SF:/home/noah/src/probar/crates/probar-cli/src/commands.rs
FN:195,_RNvXNtCs2FNCztFgQI8_10probar_cli8commandsNtNtB4_6config11ColorChoiceINtNtCs6RpC691fUBl_4core7convert4FromNtB2_8ColorArgE4from
FN:345,_RNvNtNtNtCshLLi8NjbEgn_10probar_cli8commands5tests12format_testss_25test_color_arg_conversion
FN:333,_RNvNtNtNtCshLLi8NjbEgn_10probar_cli8commands5tests12format_testss_26test_record_format_default
FN:339,_RNvNtNtNtCshLLi8NjbEgn_10probar_cli8commands5tests12format_testss_26test_report_format_default
FN:195,_RNvXNtCshLLi8NjbEgn_10probar_cli8commandsNtNtB4_6config11ColorChoiceINtNtCs6RpC691fUBl_4core7convert4FromNtB2_8ColorArgE4from
FN:323,_RNvNtNtNtCshLLi8NjbEgn_10probar_cli8commands5tests9cli_testss_22test_global_color_flag
FN:317,_RNvNtNtNtCshLLi8NjbEgn_10probar_cli8commands5tests9cli_testss_22test_global_quiet_flag
FN:295,_RNvNtNtNtCshLLi8NjbEgn_10probar_cli8commands5tests9cli_testss_23test_parse_init_command
FN:213,_RNvNtNtNtCshLLi8NjbEgn_10probar_cli8commands5tests9cli_testss_23test_parse_test_command
FN:311,_RNvNtNtNtCshLLi8NjbEgn_10probar_cli8commands5tests9cli_testss_24test_global_verbose_flag
FN:301,_RNvNtNtNtCshLLi8NjbEgn_10probar_cli8commands5tests9cli_testss_25test_parse_config_command
FN:259,_RNvNtNtNtCshLLi8NjbEgn_10probar_cli8commands5tests9cli_testss_25test_parse_record_command
FN:279,_RNvNtNtNtCshLLi8NjbEgn_10probar_cli8commands5tests9cli_testss_25test_parse_report_command
FN:219,_RNvNtNtNtCshLLi8NjbEgn_10probar_cli8commands5tests9cli_testss_27test_parse_test_with_filter
FN:269,_RNvNtNtNtCshLLi8NjbEgn_10probar_cli8commands5tests9cli_testss_29test_parse_record_with_format
FN:285,_RNvNtNtNtCshLLi8NjbEgn_10probar_cli8commands5tests9cli_testss_29test_parse_report_with_format
FN:239,_RNvNtNtNtCshLLi8NjbEgn_10probar_cli8commands5tests9cli_testss_29test_parse_test_with_coverage
FN:229,_RNvNtNtNtCshLLi8NjbEgn_10probar_cli8commands5tests9cli_testss_29test_parse_test_with_parallel
FN:249,_RNvNtNtNtCshLLi8NjbEgn_10probar_cli8commands5tests9cli_testss_30test_parse_test_with_fail_fast
FNDA:0,_RNvXNtCs2FNCztFgQI8_10probar_cli8commandsNtNtB4_6config11ColorChoiceINtNtCs6RpC691fUBl_4core7convert4FromNtB2_8ColorArgE4from
FNDA:0,_RNvNtNtNtCshLLi8NjbEgn_10probar_cli8commands5tests12format_testss_25test_color_arg_conversion
FNDA:0,_RNvNtNtNtCshLLi8NjbEgn_10probar_cli8commands5tests12format_testss_26test_record_format_default
FNDA:0,_RNvNtNtNtCshLLi8NjbEgn_10probar_cli8commands5tests12format_testss_26test_report_format_default
FNDA:0,_RNvXNtCshLLi8NjbEgn_10probar_cli8commandsNtNtB4_6config11ColorChoiceINtNtCs6RpC691fUBl_4core7convert4FromNtB2_8ColorArgE4from
FNDA:0,_RNvNtNtNtCshLLi8NjbEgn_10probar_cli8commands5tests9cli_testss_22test_global_color_flag
FNDA:0,_RNvNtNtNtCshLLi8NjbEgn_10probar_cli8commands5tests9cli_testss_22test_global_quiet_flag
FNDA:0,_RNvNtNtNtCshLLi8NjbEgn_10probar_cli8commands5tests9cli_testss_23test_parse_init_command
FNDA:0,_RNvNtNtNtCshLLi8NjbEgn_10probar_cli8commands5tests9cli_testss_23test_parse_test_command
FNDA:0,_RNvNtNtNtCshLLi8NjbEgn_10probar_cli8commands5tests9cli_testss_24test_global_verbose_flag
FNDA:0,_RNvNtNtNtCshLLi8NjbEgn_10probar_cli8commands5tests9cli_testss_25test_parse_config_command
FNDA:0,_RNvNtNtNtCshLLi8NjbEgn_10probar_cli8commands5tests9cli_testss_25test_parse_record_command
FNDA:0,_RNvNtNtNtCshLLi8NjbEgn_10probar_cli8commands5tests9cli_testss_25test_parse_report_command
FNDA:0,_RNvNtNtNtCshLLi8NjbEgn_10probar_cli8commands5tests9cli_testss_27test_parse_test_with_filter
FNDA:0,_RNvNtNtNtCshLLi8NjbEgn_10probar_cli8commands5tests9cli_testss_29test_parse_record_with_format
FNDA:0,_RNvNtNtNtCshLLi8NjbEgn_10probar_cli8commands5tests9cli_testss_29test_parse_report_with_format
FNDA:0,_RNvNtNtNtCshLLi8NjbEgn_10probar_cli8commands5tests9cli_testss_29test_parse_test_with_coverage
FNDA:0,_RNvNtNtNtCshLLi8NjbEgn_10probar_cli8commands5tests9cli_testss_29test_parse_test_with_parallel
FNDA:0,_RNvNtNtNtCshLLi8NjbEgn_10probar_cli8commands5tests9cli_testss_30test_parse_test_with_fail_fast
FNF:18
FNH:0
DA:195,0
DA:196,0
DA:197,0
DA:198,0
DA:199,0
DA:201,0
DA:213,0
DA:214,0
DA:215,0
DA:216,0
DA:219,0
DA:220,0
DA:221,0
DA:222,0
DA:224,0
DA:226,0
DA:229,0
DA:230,0
DA:231,0
DA:232,0
DA:234,0
DA:236,0
DA:239,0
DA:240,0
DA:241,0
DA:242,0
DA:244,0
DA:246,0
DA:249,0
DA:250,0
DA:251,0
DA:252,0
DA:254,0
DA:256,0
DA:259,0
DA:260,0
DA:261,0
DA:262,0
DA:264,0
DA:266,0
DA:269,0
DA:270,0
DA:271,0
DA:272,0
DA:274,0
DA:276,0
DA:279,0
DA:280,0
DA:281,0
DA:282,0
DA:285,0
DA:286,0
DA:287,0
DA:288,0
DA:290,0
DA:292,0
DA:295,0
DA:296,0
DA:297,0
DA:298,0
DA:301,0
DA:302,0
DA:303,0
DA:304,0
DA:306,0
DA:308,0
DA:311,0
DA:312,0
DA:313,0
DA:314,0
DA:317,0
DA:318,0
DA:319,0
DA:320,0
DA:323,0
DA:324,0
DA:325,0
DA:326,0
DA:333,0
DA:334,0
DA:335,0
DA:336,0
DA:339,0
DA:340,0
DA:341,0
DA:342,0
DA:345,0
DA:348,0
DA:349,0
DA:351,0
DA:352,0
DA:354,0
DA:355,0
DA:356,0
BRF:0
BRH:0
LF:94
LH:0
end_of_record
SF:/home/noah/src/probar/crates/probar-cli/src/config.rs
FN:164,_RNCNvMs1_NtCs2FNCztFgQI8_10probar_cli6configNtB7_9CliConfig14effective_jobs0B9_
FN:28,_RNvMNtCs2FNCztFgQI8_10probar_cli6configNtB2_9Verbosity10is_verbose
FN:34,_RNvMNtCs2FNCztFgQI8_10probar_cli6configNtB2_9Verbosity8is_debug
FN:22,_RNvMNtCs2FNCztFgQI8_10probar_cli6configNtB2_9Verbosity8is_quiet
FN:118,_RNvMs1_NtCs2FNCztFgQI8_10probar_cli6configNtB5_9CliConfig10with_color
FN:139,_RNvMs1_NtCs2FNCztFgQI8_10probar_cli6configNtB5_9CliConfig10with_watch
FN:146,_RNvMs1_NtCs2FNCztFgQI8_10probar_cli6configNtB5_9CliConfig13with_coverage
FN:161,_RNvMs1_NtCs2FNCztFgQI8_10probar_cli6configNtB5_9CliConfig14effective_jobs
FN:132,_RNvMs1_NtCs2FNCztFgQI8_10probar_cli6configNtB5_9CliConfig14with_fail_fast
FN:111,_RNvMs1_NtCs2FNCztFgQI8_10probar_cli6configNtB5_9CliConfig14with_verbosity
FN:125,_RNvMs1_NtCs2FNCztFgQI8_10probar_cli6configNtB5_9CliConfig18with_parallel_jobs
FN:105,_RNvMs1_NtCs2FNCztFgQI8_10probar_cli6configNtB5_9CliConfig3new
FN:54,_RNvMs_NtCs2FNCztFgQI8_10probar_cli6configNtB4_11ColorChoice12should_color
FN:64,_RNvNtCs2FNCztFgQI8_10probar_cli6config16atty_is_terminal
FN:89,_RNvXs0_NtCs2FNCztFgQI8_10probar_cli6configNtB5_9CliConfigNtNtCs6RpC691fUBl_4core7default7Default7default
FN:215,_RNvNtNtNtCshLLi8NjbEgn_10probar_cli6config5tests18color_choice_testss_18test_default_color
FN:226,_RNvNtNtNtCshLLi8NjbEgn_10probar_cli6config5tests18color_choice_testss_23test_should_color_never
FN:221,_RNvNtNtNtCshLLi8NjbEgn_10probar_cli6config5tests18color_choice_testss_24test_should_color_always
FN:203,_RNvNtNtNtCshLLi8NjbEgn_10probar_cli6config5tests15verbosity_testss_13test_is_debug
FN:187,_RNvNtNtNtCshLLi8NjbEgn_10probar_cli6config5tests15verbosity_testss_13test_is_quiet
FN:195,_RNvNtNtNtCshLLi8NjbEgn_10probar_cli6config5tests15verbosity_testss_15test_is_verbose
FN:181,_RNvNtNtNtCshLLi8NjbEgn_10probar_cli6config5tests15verbosity_testss_22test_default_verbosity
FN:252,_RNvNtNtNtCshLLi8NjbEgn_10probar_cli6config5tests16cli_config_testss_15test_with_color
FN:270,_RNvNtNtNtCshLLi8NjbEgn_10probar_cli6config5tests16cli_config_testss_15test_with_watch
FN:276,_RNvNtNtNtCshLLi8NjbEgn_10probar_cli6config5tests16cli_config_testss_18test_with_coverage
FN:235,_RNvNtNtNtCshLLi8NjbEgn_10probar_cli6config5tests16cli_config_testss_19test_default_config
FN:264,_RNvNtNtNtCshLLi8NjbEgn_10probar_cli6config5tests16cli_config_testss_19test_with_fail_fast
FN:246,_RNvNtNtNtCshLLi8NjbEgn_10probar_cli6config5tests16cli_config_testss_19test_with_verbosity
FN:282,_RNvNtNtNtCshLLi8NjbEgn_10probar_cli6config5tests16cli_config_testss_20test_with_output_dir
FN:300,_RNvNtNtNtCshLLi8NjbEgn_10probar_cli6config5tests16cli_config_testss_21test_chained_builders
FN:258,_RNvNtNtNtCshLLi8NjbEgn_10probar_cli6config5tests16cli_config_testss_23test_with_parallel_jobs
FN:294,_RNvNtNtNtCshLLi8NjbEgn_10probar_cli6config5tests16cli_config_testss_24test_effective_jobs_auto
FN:288,_RNvNtNtNtCshLLi8NjbEgn_10probar_cli6config5tests16cli_config_testss_29test_effective_jobs_specified
FN:28,_RNvMNtCshLLi8NjbEgn_10probar_cli6configNtB2_9Verbosity10is_verbose
FN:34,_RNvMNtCshLLi8NjbEgn_10probar_cli6configNtB2_9Verbosity8is_debug
FN:22,_RNvMNtCshLLi8NjbEgn_10probar_cli6configNtB2_9Verbosity8is_quiet
FN:118,_RNvMs1_NtCshLLi8NjbEgn_10probar_cli6configNtB5_9CliConfig10with_color
FN:139,_RNvMs1_NtCshLLi8NjbEgn_10probar_cli6configNtB5_9CliConfig10with_watch
FN:146,_RNvMs1_NtCshLLi8NjbEgn_10probar_cli6configNtB5_9CliConfig13with_coverage
FN:161,_RNvMs1_NtCshLLi8NjbEgn_10probar_cli6configNtB5_9CliConfig14effective_jobs
FN:132,_RNvMs1_NtCshLLi8NjbEgn_10probar_cli6configNtB5_9CliConfig14with_fail_fast
FN:111,_RNvMs1_NtCshLLi8NjbEgn_10probar_cli6configNtB5_9CliConfig14with_verbosity
FN:125,_RNvMs1_NtCshLLi8NjbEgn_10probar_cli6configNtB5_9CliConfig18with_parallel_jobs
FN:105,_RNvMs1_NtCshLLi8NjbEgn_10probar_cli6configNtB5_9CliConfig3new
FN:54,_RNvMs_NtCshLLi8NjbEgn_10probar_cli6configNtB4_11ColorChoice12should_color
FN:64,_RNvNtCshLLi8NjbEgn_10probar_cli6config16atty_is_terminal
FN:89,_RNvXs0_NtCshLLi8NjbEgn_10probar_cli6configNtB5_9CliConfigNtNtCs6RpC691fUBl_4core7default7Default7default
FN:153,_RINvMs1_NtCshLLi8NjbEgn_10probar_cli6configNtB6_9CliConfig15with_output_dirReEB8_
FN:164,_RNCNvMs1_NtCshLLi8NjbEgn_10probar_cli6configNtB7_9CliConfig14effective_jobs0B9_
FNDA:0,_RNCNvMs1_NtCs2FNCztFgQI8_10probar_cli6configNtB7_9CliConfig14effective_jobs0B9_
FNDA:0,_RNvMNtCs2FNCztFgQI8_10probar_cli6configNtB2_9Verbosity10is_verbose
FNDA:0,_RNvMNtCs2FNCztFgQI8_10probar_cli6configNtB2_9Verbosity8is_debug
FNDA:0,_RNvMNtCs2FNCztFgQI8_10probar_cli6configNtB2_9Verbosity8is_quiet
FNDA:0,_RNvMs1_NtCs2FNCztFgQI8_10probar_cli6configNtB5_9CliConfig10with_color
FNDA:0,_RNvMs1_NtCs2FNCztFgQI8_10probar_cli6configNtB5_9CliConfig10with_watch
FNDA:0,_RNvMs1_NtCs2FNCztFgQI8_10probar_cli6configNtB5_9CliConfig13with_coverage
FNDA:0,_RNvMs1_NtCs2FNCztFgQI8_10probar_cli6configNtB5_9CliConfig14effective_jobs
FNDA:0,_RNvMs1_NtCs2FNCztFgQI8_10probar_cli6configNtB5_9CliConfig14with_fail_fast
FNDA:0,_RNvMs1_NtCs2FNCztFgQI8_10probar_cli6configNtB5_9CliConfig14with_verbosity
FNDA:0,_RNvMs1_NtCs2FNCztFgQI8_10probar_cli6configNtB5_9CliConfig18with_parallel_jobs
FNDA:0,_RNvMs1_NtCs2FNCztFgQI8_10probar_cli6configNtB5_9CliConfig3new
FNDA:0,_RNvMs_NtCs2FNCztFgQI8_10probar_cli6configNtB4_11ColorChoice12should_color
FNDA:0,_RNvNtCs2FNCztFgQI8_10probar_cli6config16atty_is_terminal
FNDA:0,_RNvXs0_NtCs2FNCztFgQI8_10probar_cli6configNtB5_9CliConfigNtNtCs6RpC691fUBl_4core7default7Default7default
FNDA:0,_RNvNtNtNtCshLLi8NjbEgn_10probar_cli6config5tests18color_choice_testss_18test_default_color
FNDA:0,_RNvNtNtNtCshLLi8NjbEgn_10probar_cli6config5tests18color_choice_testss_23test_should_color_never
FNDA:0,_RNvNtNtNtCshLLi8NjbEgn_10probar_cli6config5tests18color_choice_testss_24test_should_color_always
FNDA:0,_RNvNtNtNtCshLLi8NjbEgn_10probar_cli6config5tests15verbosity_testss_13test_is_debug
FNDA:0,_RNvNtNtNtCshLLi8NjbEgn_10probar_cli6config5tests15verbosity_testss_13test_is_quiet
FNDA:0,_RNvNtNtNtCshLLi8NjbEgn_10probar_cli6config5tests15verbosity_testss_15test_is_verbose
FNDA:0,_RNvNtNtNtCshLLi8NjbEgn_10probar_cli6config5tests15verbosity_testss_22test_default_verbosity
FNDA:0,_RNvNtNtNtCshLLi8NjbEgn_10probar_cli6config5tests16cli_config_testss_15test_with_color
FNDA:0,_RNvNtNtNtCshLLi8NjbEgn_10probar_cli6config5tests16cli_config_testss_15test_with_watch
FNDA:0,_RNvNtNtNtCshLLi8NjbEgn_10probar_cli6config5tests16cli_config_testss_18test_with_coverage
FNDA:0,_RNvNtNtNtCshLLi8NjbEgn_10probar_cli6config5tests16cli_config_testss_19test_default_config
FNDA:0,_RNvNtNtNtCshLLi8NjbEgn_10probar_cli6config5tests16cli_config_testss_19test_with_fail_fast
FNDA:0,_RNvNtNtNtCshLLi8NjbEgn_10probar_cli6config5tests16cli_config_testss_19test_with_verbosity
FNDA:0,_RNvNtNtNtCshLLi8NjbEgn_10probar_cli6config5tests16cli_config_testss_20test_with_output_dir
FNDA:0,_RNvNtNtNtCshLLi8NjbEgn_10probar_cli6config5tests16cli_config_testss_21test_chained_builders
FNDA:0,_RNvNtNtNtCshLLi8NjbEgn_10probar_cli6config5tests16cli_config_testss_23test_with_parallel_jobs
FNDA:0,_RNvNtNtNtCshLLi8NjbEgn_10probar_cli6config5tests16cli_config_testss_24test_effective_jobs_auto
FNDA:0,_RNvNtNtNtCshLLi8NjbEgn_10probar_cli6config5tests16cli_config_testss_29test_effective_jobs_specified
FNDA:0,_RNvMNtCshLLi8NjbEgn_10probar_cli6configNtB2_9Verbosity10is_verbose
FNDA:0,_RNvMNtCshLLi8NjbEgn_10probar_cli6configNtB2_9Verbosity8is_debug
FNDA:0,_RNvMNtCshLLi8NjbEgn_10probar_cli6configNtB2_9Verbosity8is_quiet
FNDA:0,_RNvMs1_NtCshLLi8NjbEgn_10probar_cli6configNtB5_9CliConfig10with_color
FNDA:0,_RNvMs1_NtCshLLi8NjbEgn_10probar_cli6configNtB5_9CliConfig10with_watch
FNDA:0,_RNvMs1_NtCshLLi8NjbEgn_10probar_cli6configNtB5_9CliConfig13with_coverage
FNDA:0,_RNvMs1_NtCshLLi8NjbEgn_10probar_cli6configNtB5_9CliConfig14effective_jobs
FNDA:0,_RNvMs1_NtCshLLi8NjbEgn_10probar_cli6configNtB5_9CliConfig14with_fail_fast
FNDA:0,_RNvMs1_NtCshLLi8NjbEgn_10probar_cli6configNtB5_9CliConfig14with_verbosity
FNDA:0,_RNvMs1_NtCshLLi8NjbEgn_10probar_cli6configNtB5_9CliConfig18with_parallel_jobs
FNDA:0,_RNvMs1_NtCshLLi8NjbEgn_10probar_cli6configNtB5_9CliConfig3new
FNDA:0,_RNvMs_NtCshLLi8NjbEgn_10probar_cli6configNtB4_11ColorChoice12should_color
FNDA:0,_RNvNtCshLLi8NjbEgn_10probar_cli6config16atty_is_terminal
FNDA:0,_RNvXs0_NtCshLLi8NjbEgn_10probar_cli6configNtB5_9CliConfigNtNtCs6RpC691fUBl_4core7default7Default7default
FNDA:0,_RINvMs1_NtCshLLi8NjbEgn_10probar_cli6configNtB6_9CliConfig15with_output_dirReEB8_
FNDA:0,_RNCNvMs1_NtCshLLi8NjbEgn_10probar_cli6configNtB7_9CliConfig14effective_jobs0B9_
FNF:34
FNH:0
DA:22,0
DA:23,0
DA:24,0
DA:28,0
DA:29,0
DA:30,0
DA:34,0
DA:35,0
DA:36,0
DA:54,0
DA:55,0
DA:56,0
DA:57,0
DA:58,0
DA:60,0
DA:64,0
DA:66,0
DA:67,0
DA:89,0
DA:90,0
DA:91,0
DA:92,0
DA:93,0
DA:94,0
DA:95,0
DA:96,0
DA:97,0
DA:98,0
DA:99,0
DA:105,0
DA:106,0
DA:107,0
DA:111,0
DA:112,0
DA:113,0
DA:114,0
DA:118,0
DA:119,0
DA:120,0
DA:121,0
DA:125,0
DA:126,0
DA:127,0
DA:128,0
DA:132,0
DA:133,0
DA:134,0
DA:135,0
DA:139,0
DA:140,0
DA:141,0
DA:142,0
DA:146,0
DA:147,0
DA:148,0
DA:149,0
DA:153,0
DA:154,0
DA:155,0
DA:156,0
DA:161,0
DA:162,0
DA:163,0
DA:164,0
DA:165,0
DA:167,0
DA:169,0
DA:181,0
DA:182,0
DA:183,0
DA:184,0
DA:187,0
DA:188,0
DA:189,0
DA:190,0
DA:191,0
DA:192,0
DA:195,0
DA:196,0
DA:197,0
DA:198,0
DA:199,0
DA:200,0
DA:203,0
DA:204,0
DA:205,0
DA:206,0
DA:207,0
DA:208,0
DA:215,0
DA:216,0
DA:217,0
DA:218,0
DA:221,0
DA:222,0
DA:223,0
DA:226,0
DA:227,0
DA:228,0
DA:235,0
DA:236,0
DA:237,0
DA:238,0
DA:239,0
DA:240,0
DA:241,0
DA:242,0
DA:243,0
DA:246,0
DA:247,0
DA:248,0
DA:249,0
DA:252,0
DA:253,0
DA:254,0
DA:255,0
DA:258,0
DA:259,0
DA:260,0
DA:261,0
DA:264,0
DA:265,0
DA:266,0
DA:267,0
DA:270,0
DA:271,0
DA:272,0
DA:273,0
DA:276,0
DA:277,0
DA:278,0
DA:279,0
DA:282,0
DA:283,0
DA:284,0
DA:285,0
DA:288,0
DA:289,0
DA:290,0
DA:291,0
DA:294,0
DA:295,0
DA:296,0
DA:297,0
DA:300,0
DA:301,0
DA:302,0
DA:303,0
DA:304,0
DA:305,0
DA:306,0
DA:308,0
DA:309,0
DA:310,0
DA:311,0
DA:312,0
DA:313,0
BRF:0
BRH:0
LF:158
LH:0
end_of_record
SF:/home/noah/src/probar/crates/probar-cli/src/error.rs
FN:66,_RINvMNtCshLLi8NjbEgn_10probar_cli5errorNtB3_8CliError14test_executionReEB5_
FN:74,_RINvMNtCshLLi8NjbEgn_10probar_cli5errorNtB3_8CliError16invalid_argumentReEB5_
FN:82,_RINvMNtCshLLi8NjbEgn_10probar_cli5errorNtB3_8CliError17report_generationReEB5_
FN:58,_RINvMNtCshLLi8NjbEgn_10probar_cli5errorNtB3_8CliError6configReEB5_
FN:90,_RINvMNtCshLLi8NjbEgn_10probar_cli5errorNtB3_8CliError9recordingReEB5_
FN:103,_RNvNtNtCshLLi8NjbEgn_10probar_cli5error5testss_17test_config_error
FN:134,_RNvNtNtCshLLi8NjbEgn_10probar_cli5error5testss_18test_io_error_from
FN:128,_RNvNtNtCshLLi8NjbEgn_10probar_cli5error5testss_20test_recording_error
FN:110,_RNvNtNtCshLLi8NjbEgn_10probar_cli5error5testss_25test_test_execution_error
FN:116,_RNvNtNtCshLLi8NjbEgn_10probar_cli5error5testss_27test_invalid_argument_error
FN:122,_RNvNtNtCshLLi8NjbEgn_10probar_cli5error5testss_28test_report_generation_error
FNDA:0,_RINvMNtCshLLi8NjbEgn_10probar_cli5errorNtB3_8CliError14test_executionReEB5_
FNDA:0,_RINvMNtCshLLi8NjbEgn_10probar_cli5errorNtB3_8CliError16invalid_argumentReEB5_
FNDA:0,_RINvMNtCshLLi8NjbEgn_10probar_cli5errorNtB3_8CliError17report_generationReEB5_
FNDA:0,_RINvMNtCshLLi8NjbEgn_10probar_cli5errorNtB3_8CliError6configReEB5_
FNDA:0,_RINvMNtCshLLi8NjbEgn_10probar_cli5errorNtB3_8CliError9recordingReEB5_
FNDA:0,_RNvNtNtCshLLi8NjbEgn_10probar_cli5error5testss_17test_config_error
FNDA:0,_RNvNtNtCshLLi8NjbEgn_10probar_cli5error5testss_18test_io_error_from
FNDA:0,_RNvNtNtCshLLi8NjbEgn_10probar_cli5error5testss_20test_recording_error
FNDA:0,_RNvNtNtCshLLi8NjbEgn_10probar_cli5error5testss_25test_test_execution_error
FNDA:0,_RNvNtNtCshLLi8NjbEgn_10probar_cli5error5testss_27test_invalid_argument_error
FNDA:0,_RNvNtNtCshLLi8NjbEgn_10probar_cli5error5testss_28test_report_generation_error
FNF:11
FNH:0
DA:58,0
DA:59,0
DA:60,0
DA:61,0
DA:62,0
DA:66,0
DA:67,0
DA:68,0
DA:69,0
DA:70,0
DA:74,0
DA:75,0
DA:76,0
DA:77,0
DA:78,0
DA:82,0
DA:83,0
DA:84,0
DA:85,0
DA:86,0
DA:90,0
DA:91,0
DA:92,0
DA:93,0
DA:94,0
DA:103,0
DA:104,0
DA:105,0
DA:106,0
DA:107,0
DA:110,0
DA:111,0
DA:112,0
DA:113,0
DA:116,0
DA:117,0
DA:118,0
DA:119,0
DA:122,0
DA:123,0
DA:124,0
DA:125,0
DA:128,0
DA:129,0
DA:130,0
DA:131,0
DA:134,0
DA:135,0
DA:136,0
DA:137,0
DA:138,0
BRF:0
BRH:0
LF:51
LH:0
end_of_record
SF:/home/noah/src/probar/crates/probar-cli/src/main.rs
FN:174,_RNvNtCs5JYCyXjDyrV_6probar5testss_23test_build_config_debug
FN:181,_RNvNtCs5JYCyXjDyrV_6probar5testss_23test_build_config_quiet
FN:160,_RNvNtCs5JYCyXjDyrV_6probar5testss_25test_build_config_default
FN:167,_RNvNtCs5JYCyXjDyrV_6probar5testss_25test_build_config_verbose
FN:53,_RNvCs5JYCyXjDyrV_6probar12build_config
FN:132,_RNvCs5JYCyXjDyrV_6probar10run_config
FN:92,_RNvCs5JYCyXjDyrV_6probar10run_record
FN:105,_RNvCs5JYCyXjDyrV_6probar10run_report
FN:26,_RNvCs5JYCyXjDyrV_6probar3run
FN:16,_RNvCs5JYCyXjDyrV_6probar4main
FN:121,_RNvCs5JYCyXjDyrV_6probar8run_init
FN:71,_RNvCs5JYCyXjDyrV_6probar9run_tests
FNDA:0,_RNvNtCs5JYCyXjDyrV_6probar5testss_23test_build_config_debug
FNDA:0,_RNvNtCs5JYCyXjDyrV_6probar5testss_23test_build_config_quiet
FNDA:0,_RNvNtCs5JYCyXjDyrV_6probar5testss_25test_build_config_default
FNDA:0,_RNvNtCs5JYCyXjDyrV_6probar5testss_25test_build_config_verbose
FNDA:0,_RNvCs5JYCyXjDyrV_6probar12build_config
FNDA:0,_RNvCs5JYCyXjDyrV_6probar10run_config
FNDA:0,_RNvCs5JYCyXjDyrV_6probar10run_record
FNDA:0,_RNvCs5JYCyXjDyrV_6probar10run_report
FNDA:0,_RNvCs5JYCyXjDyrV_6probar3run
FNDA:0,_RNvCs5JYCyXjDyrV_6probar4main
FNDA:0,_RNvCs5JYCyXjDyrV_6probar8run_init
FNDA:0,_RNvCs5JYCyXjDyrV_6probar9run_tests
FNF:12
FNH:0
DA:16,0
DA:17,0
DA:18,0
DA:19,0
DA:20,0
DA:21,0
DA:24,0
DA:26,0
DA:27,0
DA:30,0
DA:32,0
DA:33,0
DA:34,0
DA:35,0
DA:36,0
DA:38,0
DA:39,0
DA:40,0
DA:42,0
DA:43,0
DA:44,0
DA:46,0
DA:47,0
DA:48,0
DA:51,0
DA:53,0
DA:54,0
DA:55,0
DA:57,0
DA:58,0
DA:59,0
DA:60,0
DA:64,0
DA:66,0
DA:67,0
DA:68,0
DA:69,0
DA:71,0
DA:72,0
DA:73,0
DA:74,0
DA:75,0
DA:76,0
DA:77,0
DA:79,0
DA:80,0
DA:82,0
DA:83,0
DA:85,0
DA:86,0
DA:87,0
DA:88,0
DA:90,0
DA:92,0
DA:93,0
DA:94,0
DA:95,0
DA:96,0
DA:97,0
DA:98,0
DA:99,0
DA:103,0
DA:105,0
DA:106,0
DA:107,0
DA:108,0
DA:109,0
DA:110,0
DA:111,0
DA:116,0
DA:117,0
DA:118,0
DA:119,0
DA:121,0
DA:122,0
DA:124,0
DA:125,0
DA:126,0
DA:130,0
DA:132,0
DA:133,0
DA:134,0
DA:135,0
DA:136,0
DA:137,0
DA:138,0
DA:139,0
DA:140,0
DA:141,0
DA:143,0
DA:144,0
DA:145,0
DA:146,0
DA:148,0
DA:149,0
DA:150,0
DA:151,0
DA:152,0
DA:160,0
DA:161,0
DA:162,0
DA:163,0
DA:164,0
DA:167,0
DA:168,0
DA:169,0
DA:170,0
DA:171,0
DA:174,0
DA:175,0
DA:176,0
DA:177,0
DA:178,0
DA:181,0
DA:182,0
DA:183,0
DA:184,0
DA:185,0
BRF:0
BRH:0
LF:118
LH:0
end_of_record
SF:/home/noah/src/probar/crates/probar-cli/src/output.rs
FN:59,_RNCNvMs_NtCs2FNCztFgQI8_10probar_cli6outputNtB6_16ProgressReporter14start_progress0B8_
FN:278,_RNvNtNtNtCshLLi8NjbEgn_10probar_cli6output5tests23progress_reporter_testss_11test_header
FN:271,_RNvNtNtNtCshLLi8NjbEgn_10probar_cli6output5tests23progress_reporter_testss_17test_info_message
FN:230,_RNvNtNtNtCshLLi8NjbEgn_10probar_cli6output5tests23progress_reporter_testss_17test_new_reporter
FN:299,_RNvNtNtNtCshLLi8NjbEgn_10probar_cli6output5tests23progress_reporter_testss_17test_progress_bar
FN:244,_RNvNtNtNtCshLLi8NjbEgn_10probar_cli6output5tests23progress_reporter_testss_19test_quiet_reporter
FN:292,_RNvNtNtNtCshLLi8NjbEgn_10probar_cli6output5tests23progress_reporter_testss_19test_summary_failed
FN:285,_RNvNtNtNtCshLLi8NjbEgn_10probar_cli6output5tests23progress_reporter_testss_19test_summary_passed
FN:257,_RNvNtNtNtCshLLi8NjbEgn_10probar_cli6output5tests23progress_reporter_testss_20test_failure_message
FN:250,_RNvNtNtNtCshLLi8NjbEgn_10probar_cli6output5tests23progress_reporter_testss_20test_success_message
FN:264,_RNvNtNtNtCshLLi8NjbEgn_10probar_cli6output5tests23progress_reporter_testss_20test_warning_message
FN:237,_RNvNtNtNtCshLLi8NjbEgn_10probar_cli6output5tests23progress_reporter_testss_21test_default_reporter
FN:310,_RNvNtNtNtCshLLi8NjbEgn_10probar_cli6output5tests23progress_reporter_testss_33test_quiet_mode_suppresses_output
FN:59,_RNCNvMs_NtCshLLi8NjbEgn_10probar_cli6outputNtB6_16ProgressReporter14start_progress0B8_
FN:213,_RNvNtNtNtCshLLi8NjbEgn_10probar_cli6output5tests19output_format_testss_19test_default_format
FN:219,_RNvNtNtNtCshLLi8NjbEgn_10probar_cli6output5tests19output_format_testss_20test_format_variants
FN:74,_RNvMs_NtCshLLi8NjbEgn_10probar_cli6outputNtB4_16ProgressReporter11set_message
FN:50,_RNvMs_NtCshLLi8NjbEgn_10probar_cli6outputNtB4_16ProgressReporter14start_progress
FN:40,_RNvMs_NtCshLLi8NjbEgn_10probar_cli6outputNtB4_16ProgressReporter3new
FN:130,_RNvMs_NtCshLLi8NjbEgn_10probar_cli6outputNtB4_16ProgressReporter4info
FN:81,_RNvMs_NtCshLLi8NjbEgn_10probar_cli6outputNtB4_16ProgressReporter6finish
FN:145,_RNvMs_NtCshLLi8NjbEgn_10probar_cli6outputNtB4_16ProgressReporter6header
FN:103,_RNvMs_NtCshLLi8NjbEgn_10probar_cli6outputNtB4_16ProgressReporter7failure
FN:88,_RNvMs_NtCshLLi8NjbEgn_10probar_cli6outputNtB4_16ProgressReporter7success
FN:161,_RNvMs_NtCshLLi8NjbEgn_10probar_cli6outputNtB4_16ProgressReporter7summary
FN:115,_RNvMs_NtCshLLi8NjbEgn_10probar_cli6outputNtB4_16ProgressReporter7warning
FN:67,_RNvMs_NtCshLLi8NjbEgn_10probar_cli6outputNtB4_16ProgressReporter9increment
FN:32,_RNvXNtCshLLi8NjbEgn_10probar_cli6outputNtB2_16ProgressReporterNtNtCs6RpC691fUBl_4core7default7Default7default
FNDA:0,_RNCNvMs_NtCs2FNCztFgQI8_10probar_cli6outputNtB6_16ProgressReporter14start_progress0B8_
FNDA:0,_RNvNtNtNtCshLLi8NjbEgn_10probar_cli6output5tests23progress_reporter_testss_11test_header
FNDA:0,_RNvNtNtNtCshLLi8NjbEgn_10probar_cli6output5tests23progress_reporter_testss_17test_info_message
FNDA:0,_RNvNtNtNtCshLLi8NjbEgn_10probar_cli6output5tests23progress_reporter_testss_17test_new_reporter
FNDA:0,_RNvNtNtNtCshLLi8NjbEgn_10probar_cli6output5tests23progress_reporter_testss_17test_progress_bar
FNDA:0,_RNvNtNtNtCshLLi8NjbEgn_10probar_cli6output5tests23progress_reporter_testss_19test_quiet_reporter
FNDA:0,_RNvNtNtNtCshLLi8NjbEgn_10probar_cli6output5tests23progress_reporter_testss_19test_summary_failed
FNDA:0,_RNvNtNtNtCshLLi8NjbEgn_10probar_cli6output5tests23progress_reporter_testss_19test_summary_passed
FNDA:0,_RNvNtNtNtCshLLi8NjbEgn_10probar_cli6output5tests23progress_reporter_testss_20test_failure_message
FNDA:0,_RNvNtNtNtCshLLi8NjbEgn_10probar_cli6output5tests23progress_reporter_testss_20test_success_message
FNDA:0,_RNvNtNtNtCshLLi8NjbEgn_10probar_cli6output5tests23progress_reporter_testss_20test_warning_message
FNDA:0,_RNvNtNtNtCshLLi8NjbEgn_10probar_cli6output5tests23progress_reporter_testss_21test_default_reporter
FNDA:0,_RNvNtNtNtCshLLi8NjbEgn_10probar_cli6output5tests23progress_reporter_testss_33test_quiet_mode_suppresses_output
FNDA:0,_RNCNvMs_NtCshLLi8NjbEgn_10probar_cli6outputNtB6_16ProgressReporter14start_progress0B8_
FNDA:0,_RNvNtNtNtCshLLi8NjbEgn_10probar_cli6output5tests19output_format_testss_19test_default_format
FNDA:0,_RNvNtNtNtCshLLi8NjbEgn_10probar_cli6output5tests19output_format_testss_20test_format_variants
FNDA:0,_RNvMs_NtCshLLi8NjbEgn_10probar_cli6outputNtB4_16ProgressReporter11set_message
FNDA:0,_RNvMs_NtCshLLi8NjbEgn_10probar_cli6outputNtB4_16ProgressReporter14start_progress
FNDA:0,_RNvMs_NtCshLLi8NjbEgn_10probar_cli6outputNtB4_16ProgressReporter3new
FNDA:0,_RNvMs_NtCshLLi8NjbEgn_10probar_cli6outputNtB4_16ProgressReporter4info
FNDA:0,_RNvMs_NtCshLLi8NjbEgn_10probar_cli6outputNtB4_16ProgressReporter6finish
FNDA:0,_RNvMs_NtCshLLi8NjbEgn_10probar_cli6outputNtB4_16ProgressReporter6header
FNDA:0,_RNvMs_NtCshLLi8NjbEgn_10probar_cli6outputNtB4_16ProgressReporter7failure
FNDA:0,_RNvMs_NtCshLLi8NjbEgn_10probar_cli6outputNtB4_16ProgressReporter7success
FNDA:0,_RNvMs_NtCshLLi8NjbEgn_10probar_cli6outputNtB4_16ProgressReporter7summary
FNDA:0,_RNvMs_NtCshLLi8NjbEgn_10probar_cli6outputNtB4_16ProgressReporter7warning
FNDA:0,_RNvMs_NtCshLLi8NjbEgn_10probar_cli6outputNtB4_16ProgressReporter9increment
FNDA:0,_RNvXNtCshLLi8NjbEgn_10probar_cli6outputNtB2_16ProgressReporterNtNtCs6RpC691fUBl_4core7default7Default7default
FNF:27
FNH:0
DA:32,0
DA:33,0
DA:34,0
DA:40,0
DA:41,0
DA:42,0
DA:43,0
DA:44,0
DA:45,0
DA:46,0
DA:47,0
DA:50,0
DA:51,0
DA:52,0
DA:53,0
DA:55,0
DA:56,0
DA:57,0
DA:58,0
DA:59,0
DA:60,0
DA:62,0
DA:63,0
DA:64,0
DA:67,0
DA:68,0
DA:69,0
DA:70,0
DA:71,0
DA:74,0
DA:75,0
DA:76,0
DA:77,0
DA:78,0
DA:81,0
DA:82,0
DA:83,0
DA:84,0
DA:85,0
DA:88,0
DA:89,0
DA:90,0
DA:91,0
DA:93,0
DA:94,0
DA:96,0
DA:99,0
DA:100,0
DA:103,0
DA:105,0
DA:106,0
DA:108,0
DA:111,0
DA:112,0
DA:115,0
DA:116,0
DA:117,0
DA:118,0
DA:120,0
DA:121,0
DA:123,0
DA:126,0
DA:127,0
DA:130,0
DA:131,0
DA:132,0
DA:133,0
DA:135,0
DA:136,0
DA:138,0
DA:141,0
DA:142,0
DA:145,0
DA:146,0
DA:147,0
DA:148,0
DA:150,0
DA:151,0
DA:153,0
DA:156,0
DA:157,0
DA:158,0
DA:161,0
DA:162,0
DA:163,0
DA:164,0
DA:166,0
DA:168,0
DA:169,0
DA:171,0
DA:172,0
DA:173,0
DA:174,0
DA:176,0
DA:177,0
DA:179,0
DA:182,0
DA:183,0
DA:187,0
DA:188,0
DA:189,0
DA:191,0
DA:193,0
DA:196,0
DA:197,0
DA:198,0
DA:199,0
DA:201,0
DA:213,0
DA:214,0
DA:215,0
DA:216,0
DA:219,0
DA:220,0
DA:221,0
DA:222,0
DA:223,0
DA:230,0
DA:231,0
DA:232,0
DA:233,0
DA:234,0
DA:237,0
DA:238,0
DA:239,0
DA:240,0
DA:241,0
DA:244,0
DA:245,0
DA:246,0
DA:247,0
DA:250,0
DA:251,0
DA:252,0
DA:254,0
DA:257,0
DA:258,0
DA:259,0
DA:261,0
DA:264,0
DA:265,0
DA:266,0
DA:268,0
DA:271,0
DA:272,0
DA:273,0
DA:275,0
DA:278,0
DA:279,0
DA:280,0
DA:282,0
DA:285,0
DA:286,0
DA:287,0
DA:289,0
DA:292,0
DA:293,0
DA:294,0
DA:296,0
DA:299,0
DA:300,0
DA:301,0
DA:302,0
DA:303,0
DA:304,0
DA:305,0
DA:307,0
DA:310,0
DA:311,0
DA:312,0
DA:313,0
DA:314,0
DA:315,0
DA:316,0
DA:318,0
DA:320,0
BRF:0
BRH:0
LF:177
LH:0
end_of_record
SF:/home/noah/src/probar/crates/probar-cli/src/runner.rs
FN:27,_RINvMNtCs2FNCztFgQI8_10probar_cli6runnerNtB3_10TestResult4passReEB5_
FN:87,_RNCNvMs_NtCs2FNCztFgQI8_10probar_cli6runnerNtB6_11TestResults6failed0B8_
FN:105,_RNCNvMs_NtCs2FNCztFgQI8_10probar_cli6runnerNtB6_11TestResults8failures0B8_
FN:235,_RNvNtNtNtCshLLi8NjbEgn_10probar_cli6runner5tests17test_result_testss_16test_fail_result
FN:227,_RNvNtNtNtCshLLi8NjbEgn_10probar_cli6runner5tests17test_result_testss_16test_pass_result
FN:242,_RNvNtNtNtCshLLi8NjbEgn_10probar_cli6runner5tests17test_result_testss_16test_with_output
FN:301,_RNvNtNtNtCshLLi8NjbEgn_10probar_cli6runner5tests17test_runner_testss_15test_new_runner
FN:308,_RNvNtNtNtCshLLi8NjbEgn_10probar_cli6runner5tests17test_runner_testss_17test_run_no_tests
FN:316,_RNvNtNtNtCshLLi8NjbEgn_10probar_cli6runner5tests17test_runner_testss_20test_run_with_filter
FN:284,_RNvNtNtNtCshLLi8NjbEgn_10probar_cli6runner5tests18test_results_testss_13test_failures
FN:273,_RNvNtNtNtCshLLi8NjbEgn_10probar_cli6runner5tests18test_results_testss_15test_all_passed
FN:261,_RNvNtNtNtCshLLi8NjbEgn_10probar_cli6runner5tests18test_results_testss_16test_add_results
FN:253,_RNvNtNtNtCshLLi8NjbEgn_10probar_cli6runner5tests18test_results_testss_16test_new_results
FN:188,_RNvMs0_NtCshLLi8NjbEgn_10probar_cli6runnerNtB5_10TestRunner14discover_tests
FN:200,_RNvMs0_NtCshLLi8NjbEgn_10probar_cli6runnerNtB5_10TestRunner15run_single_test
FN:119,_RNvMs0_NtCshLLi8NjbEgn_10probar_cli6runnerNtB5_10TestRunner3new
FN:132,_RNvMs0_NtCshLLi8NjbEgn_10probar_cli6runnerNtB5_10TestRunner3run
FN:213,_RNvMs0_NtCshLLi8NjbEgn_10probar_cli6runnerNtB5_10TestRunner8reporter
FN:98,_RNvMs_NtCshLLi8NjbEgn_10probar_cli6runnerNtB4_11TestResults10all_passed
FN:74,_RNvMs_NtCshLLi8NjbEgn_10probar_cli6runnerNtB4_11TestResults3add
FN:69,_RNvMs_NtCshLLi8NjbEgn_10probar_cli6runnerNtB4_11TestResults3new
FN:92,_RNvMs_NtCshLLi8NjbEgn_10probar_cli6runnerNtB4_11TestResults5total
FN:86,_RNvMs_NtCshLLi8NjbEgn_10probar_cli6runnerNtB4_11TestResults6failed
FN:80,_RNvMs_NtCshLLi8NjbEgn_10probar_cli6runnerNtB4_11TestResults6passed
FN:104,_RNvMs_NtCshLLi8NjbEgn_10probar_cli6runnerNtB4_11TestResults8failures
FN:51,_RINvMNtCshLLi8NjbEgn_10probar_cli6runnerNtB3_10TestResult11with_outputReEB5_
FN:39,_RINvMNtCshLLi8NjbEgn_10probar_cli6runnerNtB3_10TestResult4failReBY_EB5_
FN:27,_RINvMNtCshLLi8NjbEgn_10probar_cli6runnerNtB3_10TestResult4passReEB5_
FN:87,_RNCNvMs_NtCshLLi8NjbEgn_10probar_cli6runnerNtB6_11TestResults6failed0B8_
FN:105,_RNCNvMs_NtCshLLi8NjbEgn_10probar_cli6runnerNtB6_11TestResults8failures0B8_
FNDA:0,_RINvMNtCs2FNCztFgQI8_10probar_cli6runnerNtB3_10TestResult4passReEB5_
FNDA:0,_RNCNvMs_NtCs2FNCztFgQI8_10probar_cli6runnerNtB6_11TestResults6failed0B8_
FNDA:0,_RNCNvMs_NtCs2FNCztFgQI8_10probar_cli6runnerNtB6_11TestResults8failures0B8_
FNDA:0,_RNvNtNtNtCshLLi8NjbEgn_10probar_cli6runner5tests17test_result_testss_16test_fail_result
FNDA:0,_RNvNtNtNtCshLLi8NjbEgn_10probar_cli6runner5tests17test_result_testss_16test_pass_result
FNDA:0,_RNvNtNtNtCshLLi8NjbEgn_10probar_cli6runner5tests17test_result_testss_16test_with_output
FNDA:0,_RNvNtNtNtCshLLi8NjbEgn_10probar_cli6runner5tests17test_runner_testss_15test_new_runner
FNDA:0,_RNvNtNtNtCshLLi8NjbEgn_10probar_cli6runner5tests17test_runner_testss_17test_run_no_tests
FNDA:0,_RNvNtNtNtCshLLi8NjbEgn_10probar_cli6runner5tests17test_runner_testss_20test_run_with_filter
FNDA:0,_RNvNtNtNtCshLLi8NjbEgn_10probar_cli6runner5tests18test_results_testss_13test_failures
FNDA:0,_RNvNtNtNtCshLLi8NjbEgn_10probar_cli6runner5tests18test_results_testss_15test_all_passed
FNDA:0,_RNvNtNtNtCshLLi8NjbEgn_10probar_cli6runner5tests18test_results_testss_16test_add_results
FNDA:0,_RNvNtNtNtCshLLi8NjbEgn_10probar_cli6runner5tests18test_results_testss_16test_new_results
FNDA:0,_RNvMs0_NtCshLLi8NjbEgn_10probar_cli6runnerNtB5_10TestRunner14discover_tests
FNDA:0,_RNvMs0_NtCshLLi8NjbEgn_10probar_cli6runnerNtB5_10TestRunner15run_single_test
FNDA:0,_RNvMs0_NtCshLLi8NjbEgn_10probar_cli6runnerNtB5_10TestRunner3new
FNDA:0,_RNvMs0_NtCshLLi8NjbEgn_10probar_cli6runnerNtB5_10TestRunner3run
FNDA:0,_RNvMs0_NtCshLLi8NjbEgn_10probar_cli6runnerNtB5_10TestRunner8reporter
FNDA:0,_RNvMs_NtCshLLi8NjbEgn_10probar_cli6runnerNtB4_11TestResults10all_passed
FNDA:0,_RNvMs_NtCshLLi8NjbEgn_10probar_cli6runnerNtB4_11TestResults3add
FNDA:0,_RNvMs_NtCshLLi8NjbEgn_10probar_cli6runnerNtB4_11TestResults3new
FNDA:0,_RNvMs_NtCshLLi8NjbEgn_10probar_cli6runnerNtB4_11TestResults5total
FNDA:0,_RNvMs_NtCshLLi8NjbEgn_10probar_cli6runnerNtB4_11TestResults6failed
FNDA:0,_RNvMs_NtCshLLi8NjbEgn_10probar_cli6runnerNtB4_11TestResults6passed
FNDA:0,_RNvMs_NtCshLLi8NjbEgn_10probar_cli6runnerNtB4_11TestResults8failures
FNDA:0,_RINvMNtCshLLi8NjbEgn_10probar_cli6runnerNtB3_10TestResult11with_outputReEB5_
FNDA:0,_RINvMNtCshLLi8NjbEgn_10probar_cli6runnerNtB3_10TestResult4failReBY_EB5_
FNDA:0,_RINvMNtCshLLi8NjbEgn_10probar_cli6runnerNtB3_10TestResult4passReEB5_
FNDA:0,_RNCNvMs_NtCshLLi8NjbEgn_10probar_cli6runnerNtB6_11TestResults6failed0B8_
FNDA:0,_RNCNvMs_NtCshLLi8NjbEgn_10probar_cli6runnerNtB6_11TestResults8failures0B8_
FNF:27
FNH:0
DA:27,0
DA:28,0
DA:29,0
DA:30,0
DA:31,0
DA:32,0
DA:33,0
DA:34,0
DA:35,0
DA:39,0
DA:40,0
DA:41,0
DA:42,0
DA:43,0
DA:44,0
DA:45,0
DA:46,0
DA:47,0
DA:51,0
DA:52,0
DA:53,0
DA:54,0
DA:69,0
DA:70,0
DA:71,0
DA:74,0
DA:75,0
DA:76,0
DA:80,0
DA:81,0
DA:82,0
DA:86,0
DA:87,0
DA:88,0
DA:92,0
DA:93,0
DA:94,0
DA:98,0
DA:99,0
DA:100,0
DA:104,0
DA:105,0
DA:106,0
DA:119,0
DA:120,0
DA:121,0
DA:122,0
DA:124,0
DA:125,0
DA:132,0
DA:133,0
DA:134,0
DA:137,0
DA:139,0
DA:140,0
DA:141,0
DA:142,0
DA:143,0
DA:145,0
DA:146,0
DA:148,0
DA:149,0
DA:151,0
DA:152,0
DA:154,0
DA:155,0
DA:156,0
DA:157,0
DA:158,0
DA:159,0
DA:160,0
DA:161,0
DA:163,0
DA:164,0
DA:165,0
DA:166,0
DA:169,0
DA:170,0
DA:173,0
DA:174,0
DA:176,0
DA:177,0
DA:178,0
DA:180,0
DA:183,0
DA:184,0
DA:188,0
DA:195,0
DA:196,0
DA:197,0
DA:200,0
DA:208,0
DA:209,0
DA:213,0
DA:214,0
DA:215,0
DA:227,0
DA:228,0
DA:229,0
DA:230,0
DA:231,0
DA:232,0
DA:235,0
DA:236,0
DA:237,0
DA:238,0
DA:239,0
DA:242,0
DA:243,0
DA:244,0
DA:245,0
DA:246,0
DA:253,0
DA:254,0
DA:255,0
DA:256,0
DA:257,0
DA:258,0
DA:261,0
DA:262,0
DA:263,0
DA:264,0
DA:265,0
DA:267,0
DA:268,0
DA:269,0
DA:270,0
DA:273,0
DA:274,0
DA:275,0
DA:276,0
DA:277,0
DA:279,0
DA:280,0
DA:281,0
DA:284,0
DA:285,0
DA:286,0
DA:287,0
DA:288,0
DA:290,0
DA:291,0
DA:292,0
DA:293,0
DA:294,0
DA:301,0
DA:302,0
DA:303,0
DA:304,0
DA:305,0
DA:308,0
DA:309,0
DA:310,0
DA:311,0
DA:312,0
DA:313,0
DA:316,0
DA:317,0
DA:318,0
DA:319,0
DA:320,0
DA:321,0
BRF:0
BRH:0
LF:164
LH:0
end_of_record
SF:/home/noah/src/probar/crates/probar-derive/src/lib.rs
FN:574,_RNvNtCsbdKuokm2U5o_13probar_derive5testss_18test_to_snake_case
FN:587,_RNvNtCsbdKuokm2U5o_13probar_derive5testss_21test_generate_type_id
FN:597,_RNvNtCsbdKuokm2U5o_13probar_derive5testss_35test_generate_type_id_deterministic
FN:455,_RNCNCNCNvCsbdKuokm2U5o_13probar_derive14extract_fields0s_00B7_
FN:450,_RNCNCNvCsbdKuokm2U5o_13probar_derive14extract_fields00B5_
FN:451,_RNCNCNvCsbdKuokm2U5o_13probar_derive14extract_fields0s_0B5_
FN:449,_RNCNvCsbdKuokm2U5o_13probar_derive14extract_fields0B3_
FN:465,_RNCNvCsbdKuokm2U5o_13probar_derive14extract_fieldss_0B3_
FN:108,_RNCNvCsbdKuokm2U5o_13probar_derive20derive_probar_entity0B3_
FN:268,_RNCNvCsbdKuokm2U5o_13probar_derive22derive_probar_selector0B3_
FN:272,_RNCNvCsbdKuokm2U5o_13probar_derive22derive_probar_selectors0_0B3_
FN:273,_RNCNvCsbdKuokm2U5o_13probar_derive22derive_probar_selectors1_0B3_
FN:269,_RNCNvCsbdKuokm2U5o_13probar_derive22derive_probar_selectors_0B3_
FN:176,_RNCNvCsbdKuokm2U5o_13probar_derive23derive_probar_component0B3_
FN:186,_RNCNvCsbdKuokm2U5o_13probar_derive23derive_probar_components0_0B3_
FN:185,_RNCNvCsbdKuokm2U5o_13probar_derive23derive_probar_components_0B3_
FN:364,_RNvCsbdKuokm2U5o_13probar_derive11probar_test
FN:443,_RNvCsbdKuokm2U5o_13probar_derive14extract_fields
FN:522,_RNvCsbdKuokm2U5o_13probar_derive18parse_timeout_attr
FN:102,_RNvCsbdKuokm2U5o_13probar_derive20derive_probar_entity
FN:257,_RNvCsbdKuokm2U5o_13probar_derive22derive_probar_selector
FN:424,_RNvCsbdKuokm2U5o_13probar_derive22extract_name_attribute
FN:170,_RNvCsbdKuokm2U5o_13probar_derive23derive_probar_component
FN:474,_RNvCsbdKuokm2U5o_13probar_derive25parse_selector_attributes
FN:536,_RNvCsbdKuokm2U5o_13probar_derive13to_snake_case
FN:557,_RNvCsbdKuokm2U5o_13probar_derive16generate_type_id
FNDA:1,_RNvNtCsbdKuokm2U5o_13probar_derive5testss_18test_to_snake_case
FNDA:1,_RNvNtCsbdKuokm2U5o_13probar_derive5testss_21test_generate_type_id
FNDA:1,_RNvNtCsbdKuokm2U5o_13probar_derive5testss_35test_generate_type_id_deterministic
FNDA:0,_RNCNCNCNvCsbdKuokm2U5o_13probar_derive14extract_fields0s_00B7_
FNDA:0,_RNCNCNvCsbdKuokm2U5o_13probar_derive14extract_fields00B5_
FNDA:0,_RNCNCNvCsbdKuokm2U5o_13probar_derive14extract_fields0s_0B5_
FNDA:0,_RNCNvCsbdKuokm2U5o_13probar_derive14extract_fields0B3_
FNDA:0,_RNCNvCsbdKuokm2U5o_13probar_derive14extract_fieldss_0B3_
FNDA:0,_RNCNvCsbdKuokm2U5o_13probar_derive20derive_probar_entity0B3_
FNDA:0,_RNCNvCsbdKuokm2U5o_13probar_derive22derive_probar_selector0B3_
FNDA:0,_RNCNvCsbdKuokm2U5o_13probar_derive22derive_probar_selectors0_0B3_
FNDA:0,_RNCNvCsbdKuokm2U5o_13probar_derive22derive_probar_selectors1_0B3_
FNDA:0,_RNCNvCsbdKuokm2U5o_13probar_derive22derive_probar_selectors_0B3_
FNDA:0,_RNCNvCsbdKuokm2U5o_13probar_derive23derive_probar_component0B3_
FNDA:0,_RNCNvCsbdKuokm2U5o_13probar_derive23derive_probar_components0_0B3_
FNDA:0,_RNCNvCsbdKuokm2U5o_13probar_derive23derive_probar_components_0B3_
FNDA:0,_RNvCsbdKuokm2U5o_13probar_derive11probar_test
FNDA:0,_RNvCsbdKuokm2U5o_13probar_derive14extract_fields
FNDA:0,_RNvCsbdKuokm2U5o_13probar_derive18parse_timeout_attr
FNDA:0,_RNvCsbdKuokm2U5o_13probar_derive20derive_probar_entity
FNDA:0,_RNvCsbdKuokm2U5o_13probar_derive22derive_probar_selector
FNDA:0,_RNvCsbdKuokm2U5o_13probar_derive22extract_name_attribute
FNDA:0,_RNvCsbdKuokm2U5o_13probar_derive23derive_probar_component
FNDA:0,_RNvCsbdKuokm2U5o_13probar_derive25parse_selector_attributes
FNDA:7,_RNvCsbdKuokm2U5o_13probar_derive13to_snake_case
FNDA:104,_RNvCsbdKuokm2U5o_13probar_derive16generate_type_id
FNF:26
FNH:5
DA:102,0
DA:103,0
DA:104,0
DA:107,0
DA:108,0
DA:111,0
DA:113,0
DA:139,0
DA:140,0
DA:170,0
DA:171,0
DA:172,0
DA:175,0
DA:176,0
DA:179,0
DA:182,0
DA:183,0
DA:184,0
DA:185,0
DA:186,0
DA:187,0
DA:188,0
DA:190,0
DA:230,0
DA:231,0
DA:257,0
DA:258,0
DA:259,0
DA:262,0
DA:264,0
DA:265,0
DA:268,0
DA:269,0
DA:272,0
DA:273,0
DA:275,0
DA:346,0
DA:347,0
DA:364,0
DA:365,0
DA:366,0
DA:367,0
DA:368,0
DA:369,0
DA:370,0
DA:373,0
DA:375,0
DA:377,0
DA:378,0
DA:396,0
DA:416,0
DA:417,0
DA:424,0
DA:425,0
DA:426,0
DA:427,0
DA:428,0
DA:430,0
DA:431,0
DA:433,0
DA:434,0
DA:435,0
DA:436,0
DA:437,0
DA:439,0
DA:440,0
DA:443,0
DA:444,0
DA:445,0
DA:446,0
DA:447,0
DA:448,0
DA:449,0
DA:450,0
DA:451,0
DA:452,0
DA:453,0
DA:454,0
DA:455,0
DA:456,0
DA:457,0
DA:458,0
DA:459,0
DA:460,0
DA:461,0
DA:462,0
DA:463,0
DA:464,0
DA:465,0
DA:466,0
DA:467,0
DA:469,0
DA:471,0
DA:474,0
DA:475,0
DA:476,0
DA:478,0
DA:479,0
DA:481,0
DA:483,0
DA:485,0
DA:486,0
DA:487,0
DA:488,0
DA:489,0
DA:490,0
DA:491,0
DA:492,0
DA:494,0
DA:495,0
DA:496,0
DA:498,0
DA:500,0
DA:501,0
DA:502,0
DA:503,0
DA:504,0
DA:505,0
DA:506,0
DA:507,0
DA:508,0
DA:509,0
DA:511,0
DA:512,0
DA:513,0
DA:514,0
DA:515,0
DA:518,0
DA:519,0
DA:522,0
DA:523,0
DA:524,0
DA:526,0
DA:527,0
DA:528,0
DA:529,0
DA:531,0
DA:532,0
DA:533,0
DA:536,7
DA:537,7
DA:538,7
DA:540,56
DA:541,56
DA:542,14
DA:543,2
DA:544,12
DA:545,14
DA:546,14
DA:547,42
DA:548,42
DA:549,42
DA:550,42
DA:553,7
DA:554,7
DA:557,104
DA:561,104
DA:562,1431
DA:563,1431
DA:564,1431
DA:565,1431
DA:566,104
DA:567,104
DA:574,1
DA:575,1
DA:576,1
DA:578,1
DA:579,1
DA:581,1
DA:582,1
DA:583,1
DA:584,1
DA:587,1
DA:588,1
DA:589,1
DA:590,1
DA:592,1
DA:593,1
DA:594,1
DA:597,1
DA:599,1
DA:600,101
DA:601,100
DA:603,1
BRF:0
BRH:0
LF:197
LH:45
end_of_record
SF:/home/noah/src/probar/crates/probar/src/accessibility.rs
FN:687,_RNvNtNtNtCsbqoqex1KQlH_6probar13accessibility5tests11audit_testss_21test_new_audit_passes
FN:694,_RNvNtNtNtCsbqoqex1KQlH_6probar13accessibility5tests11audit_testss_30test_audit_with_critical_issue
FN:706,_RNvNtNtNtCsbqoqex1KQlH_6probar13accessibility5tests11audit_testss_31test_audit_with_multiple_issues
FN:366,_RNvMs5_NtCsbqoqex1KQlH_6probar13accessibilityNtB5_22AccessibilityValidator11with_config
FN:253,_RNvXs2_NtCsbqoqex1KQlH_6probar13accessibilityNtB5_18AccessibilityAuditNtNtCs6RpC691fUBl_4core7default7Default7default
FN:726,_RNvNtNtNtCsbqoqex1KQlH_6probar13accessibility5tests15validator_testss_18test_validator_new
FN:762,_RNvNtNtNtCsbqoqex1KQlH_6probar13accessibility5tests15validator_testss_20test_full_audit_pass
FN:733,_RNvNtNtNtCsbqoqex1KQlH_6probar13accessibility5tests15validator_testss_21test_analyze_contrast
FN:749,_RNvNtNtNtCsbqoqex1KQlH_6probar13accessibility5tests15validator_testss_24test_validate_focus_fail
FN:743,_RNvNtNtNtCsbqoqex1KQlH_6probar13accessibility5tests15validator_testss_24test_validate_focus_pass
FN:755,_RNvNtNtNtCsbqoqex1KQlH_6probar13accessibility5tests15validator_testss_25test_check_reduced_motion
FN:790,_RNvNtNtNtCsbqoqex1KQlH_6probar13accessibility5tests15validator_testss_26test_full_audit_fail_focus
FN:778,_RNvNtNtNtCsbqoqex1KQlH_6probar13accessibility5tests15validator_testss_29test_full_audit_fail_contrast
FN:662,_RNvNtNtNtCsbqoqex1KQlH_6probar13accessibility5tests25accessibility_issue_testss_19test_issue_creation
FN:676,_RNvNtNtNtCsbqoqex1KQlH_6probar13accessibility5tests25accessibility_issue_testss_19test_issue_with_fix
FN:669,_RNvNtNtNtCsbqoqex1KQlH_6probar13accessibility5tests25accessibility_issue_testss_23test_issue_with_context
FN:645,_RNvNtNtNtCsbqoqex1KQlH_6probar13accessibility5tests23contrast_analysis_testss_18test_min_max_ratio
FN:617,_RNvNtNtNtCsbqoqex1KQlH_6probar13accessibility5tests23contrast_analysis_testss_19test_empty_analysis
FN:635,_RNvNtNtNtCsbqoqex1KQlH_6probar13accessibility5tests23contrast_analysis_testss_21test_add_failing_pair
FN:624,_RNvNtNtNtCsbqoqex1KQlH_6probar13accessibility5tests23contrast_analysis_testss_21test_add_passing_pair
FN:292,_RINvMs3_NtCsbqoqex1KQlH_6probar13accessibilityNtB6_18AccessibilityIssue12with_contextReEB8_
FN:276,_RINvMs3_NtCsbqoqex1KQlH_6probar13accessibilityNtB6_18AccessibilityIssue3newReB1b_EB8_
FN:299,_RINvMs3_NtCsbqoqex1KQlH_6probar13accessibilityNtB6_18AccessibilityIssue8with_fixReEB8_
FN:135,_RINvMs_NtCsbqoqex1KQlH_6probar13accessibilityNtB5_16ContrastAnalysis8add_pairReEB7_
FN:861,_RNvNtNtNtCsbqoqex1KQlH_6probar13accessibility5tests12config_testss_25test_focus_config_default
FN:852,_RNvNtNtNtCsbqoqex1KQlH_6probar13accessibility5tests12config_testss_33test_accessibility_config_default
FN:802,_RNCNvNtNtNtCsbqoqex1KQlH_6probar13accessibility5tests15validator_testss_26test_full_audit_fail_focus0B9_
FN:786,_RNCNvNtNtNtCsbqoqex1KQlH_6probar13accessibility5tests15validator_testss_29test_full_audit_fail_contrast0B9_
FN:816,_RNvNtNtNtCsbqoqex1KQlH_6probar13accessibility5tests20flash_detector_testss_23test_analyze_safe_flash
FN:810,_RNvNtNtNtCsbqoqex1KQlH_6probar13accessibility5tests20flash_detector_testss_27test_flash_detector_default
FN:824,_RNvNtNtNtCsbqoqex1KQlH_6probar13accessibility5tests20flash_detector_testss_28test_analyze_high_flash_rate
FN:841,_RNvNtNtNtCsbqoqex1KQlH_6probar13accessibility5tests20flash_detector_testss_29test_analyze_large_flash_area
FN:833,_RNvNtNtNtCsbqoqex1KQlH_6probar13accessibility5tests20flash_detector_testss_31test_analyze_high_red_intensity
FN:65,_RNvMNtCsbqoqex1KQlH_6probar13accessibilityNtB2_5Color14contrast_ratio
FN:89,_RNvMNtCsbqoqex1KQlH_6probar13accessibilityNtB2_5Color16meets_wcag_aa_ui
FN:53,_RNvMNtCsbqoqex1KQlH_6probar13accessibilityNtB2_5Color18relative_luminance
FN:83,_RNvMNtCsbqoqex1KQlH_6probar13accessibilityNtB2_5Color19meets_wcag_aa_large
FN:77,_RNvMNtCsbqoqex1KQlH_6probar13accessibilityNtB2_5Color20meets_wcag_aa_normal
FN:36,_RNvMNtCsbqoqex1KQlH_6probar13accessibilityNtB2_5Color3new
FN:43,_RNvMNtCsbqoqex1KQlH_6probar13accessibilityNtB2_5Color8from_hex
FN:221,_RNvMs1_NtCsbqoqex1KQlH_6probar13accessibilityNtB5_18AccessibilityAudit3new
FN:234,_RNvMs1_NtCsbqoqex1KQlH_6probar13accessibilityNtB5_18AccessibilityAudit6passes
FN:239,_RNvMs1_NtCsbqoqex1KQlH_6probar13accessibilityNtB5_18AccessibilityAudit9add_issue
FN:397,_RNvMs5_NtCsbqoqex1KQlH_6probar13accessibilityNtB5_22AccessibilityValidator14validate_focus
FN:374,_RNvMs5_NtCsbqoqex1KQlH_6probar13accessibilityNtB5_22AccessibilityValidator16analyze_contrast
FN:388,_RNvMs5_NtCsbqoqex1KQlH_6probar13accessibilityNtB5_22AccessibilityValidator20check_reduced_motion
FN:358,_RNvMs5_NtCsbqoqex1KQlH_6probar13accessibilityNtB5_22AccessibilityValidator3new
FN:409,_RNvMs5_NtCsbqoqex1KQlH_6probar13accessibilityNtB5_22AccessibilityValidator5audit
FN:503,_RNvMs7_NtCsbqoqex1KQlH_6probar13accessibilityNtB5_13FlashDetector3new
FN:509,_RNvMs7_NtCsbqoqex1KQlH_6probar13accessibilityNtB5_13FlashDetector7analyze
FN:123,_RNvMs_NtCsbqoqex1KQlH_6probar13accessibilityNtB4_16ContrastAnalysis5empty
FN:95,_RNvNtCsbqoqex1KQlH_6probar13accessibility14srgb_to_linear
FN:189,_RNvXs0_NtCsbqoqex1KQlH_6probar13accessibilityNtB5_19AccessibilityConfigNtNtCs6RpC691fUBl_4core7default7Default7default
FN:339,_RNvXs4_NtCsbqoqex1KQlH_6probar13accessibilityNtB5_11FocusConfigNtNtCs6RpC691fUBl_4core7default7Default7default
FN:476,_RNvXs6_NtCsbqoqex1KQlH_6probar13accessibilityNtB5_13FlashDetectorNtNtCs6RpC691fUBl_4core7default7Default7default
FN:560,_RNvNtNtNtCsbqoqex1KQlH_6probar13accessibility5tests11color_testss_19test_color_from_hex
FN:597,_RNvNtNtNtCsbqoqex1KQlH_6probar13accessibility5tests11color_testss_24test_wcag_aa_black_white
FN:606,_RNvNtNtNtCsbqoqex1KQlH_6probar13accessibility5tests11color_testss_25test_wcag_aa_low_contrast
FN:568,_RNvNtNtNtCsbqoqex1KQlH_6probar13accessibility5tests11color_testss_29test_relative_luminance_black
FN:574,_RNvNtNtNtCsbqoqex1KQlH_6probar13accessibility5tests11color_testss_29test_relative_luminance_white
FN:589,_RNvNtNtNtCsbqoqex1KQlH_6probar13accessibility5tests11color_testss_30test_contrast_ratio_same_color
FN:580,_RNvNtNtNtCsbqoqex1KQlH_6probar13accessibility5tests11color_testss_31test_contrast_ratio_black_white
FN:292,_RINvMs3_NtCs4eUmXem5O3q_6probar13accessibilityNtB6_18AccessibilityIssue12with_contextpEB8_
FN:65,_RNvMNtCs4eUmXem5O3q_6probar13accessibilityNtB2_5Color14contrast_ratio
FN:89,_RNvMNtCs4eUmXem5O3q_6probar13accessibilityNtB2_5Color16meets_wcag_aa_ui
FN:53,_RNvMNtCs4eUmXem5O3q_6probar13accessibilityNtB2_5Color18relative_luminance
FN:83,_RNvMNtCs4eUmXem5O3q_6probar13accessibilityNtB2_5Color19meets_wcag_aa_large
FN:77,_RNvMNtCs4eUmXem5O3q_6probar13accessibilityNtB2_5Color20meets_wcag_aa_normal
FN:36,_RNvMNtCs4eUmXem5O3q_6probar13accessibilityNtB2_5Color3new
FN:43,_RNvMNtCs4eUmXem5O3q_6probar13accessibilityNtB2_5Color8from_hex
FN:221,_RNvMs1_NtCs4eUmXem5O3q_6probar13accessibilityNtB5_18AccessibilityAudit3new
FN:234,_RNvMs1_NtCs4eUmXem5O3q_6probar13accessibilityNtB5_18AccessibilityAudit6passes
FN:239,_RNvMs1_NtCs4eUmXem5O3q_6probar13accessibilityNtB5_18AccessibilityAudit9add_issue
FN:366,_RNvMs5_NtCs4eUmXem5O3q_6probar13accessibilityNtB5_22AccessibilityValidator11with_config
FN:397,_RNvMs5_NtCs4eUmXem5O3q_6probar13accessibilityNtB5_22AccessibilityValidator14validate_focus
FN:374,_RNvMs5_NtCs4eUmXem5O3q_6probar13accessibilityNtB5_22AccessibilityValidator16analyze_contrast
FN:388,_RNvMs5_NtCs4eUmXem5O3q_6probar13accessibilityNtB5_22AccessibilityValidator20check_reduced_motion
FN:358,_RNvMs5_NtCs4eUmXem5O3q_6probar13accessibilityNtB5_22AccessibilityValidator3new
FN:409,_RNvMs5_NtCs4eUmXem5O3q_6probar13accessibilityNtB5_22AccessibilityValidator5audit
FN:503,_RNvMs7_NtCs4eUmXem5O3q_6probar13accessibilityNtB5_13FlashDetector3new
FN:509,_RNvMs7_NtCs4eUmXem5O3q_6probar13accessibilityNtB5_13FlashDetector7analyze
FN:123,_RNvMs_NtCs4eUmXem5O3q_6probar13accessibilityNtB4_16ContrastAnalysis5empty
FN:95,_RNvNtCs4eUmXem5O3q_6probar13accessibility14srgb_to_linear
FN:189,_RNvXs0_NtCs4eUmXem5O3q_6probar13accessibilityNtB5_19AccessibilityConfigNtNtCs6RpC691fUBl_4core7default7Default7default
FN:253,_RNvXs2_NtCs4eUmXem5O3q_6probar13accessibilityNtB5_18AccessibilityAuditNtNtCs6RpC691fUBl_4core7default7Default7default
FN:339,_RNvXs4_NtCs4eUmXem5O3q_6probar13accessibilityNtB5_11FocusConfigNtNtCs6RpC691fUBl_4core7default7Default7default
FN:476,_RNvXs6_NtCs4eUmXem5O3q_6probar13accessibilityNtB5_13FlashDetectorNtNtCs6RpC691fUBl_4core7default7Default7default
FN:276,_RINvMs3_NtCs4eUmXem5O3q_6probar13accessibilityNtB6_18AccessibilityIssue3newReB1b_EB8_
FN:299,_RINvMs3_NtCs4eUmXem5O3q_6probar13accessibilityNtB6_18AccessibilityIssue8with_fixReEB8_
FN:135,_RINvMs_NtCs4eUmXem5O3q_6probar13accessibilityNtB5_16ContrastAnalysis8add_pairReEB7_
FNDA:0,_RNvNtNtNtCsbqoqex1KQlH_6probar13accessibility5tests11audit_testss_21test_new_audit_passes
FNDA:0,_RNvNtNtNtCsbqoqex1KQlH_6probar13accessibility5tests11audit_testss_30test_audit_with_critical_issue
FNDA:0,_RNvNtNtNtCsbqoqex1KQlH_6probar13accessibility5tests11audit_testss_31test_audit_with_multiple_issues
FNDA:0,_RNvMs5_NtCsbqoqex1KQlH_6probar13accessibilityNtB5_22AccessibilityValidator11with_config
FNDA:0,_RNvXs2_NtCsbqoqex1KQlH_6probar13accessibilityNtB5_18AccessibilityAuditNtNtCs6RpC691fUBl_4core7default7Default7default
FNDA:0,_RNvNtNtNtCsbqoqex1KQlH_6probar13accessibility5tests15validator_testss_18test_validator_new
FNDA:0,_RNvNtNtNtCsbqoqex1KQlH_6probar13accessibility5tests15validator_testss_20test_full_audit_pass
FNDA:0,_RNvNtNtNtCsbqoqex1KQlH_6probar13accessibility5tests15validator_testss_21test_analyze_contrast
FNDA:0,_RNvNtNtNtCsbqoqex1KQlH_6probar13accessibility5tests15validator_testss_24test_validate_focus_fail
FNDA:0,_RNvNtNtNtCsbqoqex1KQlH_6probar13accessibility5tests15validator_testss_24test_validate_focus_pass
FNDA:0,_RNvNtNtNtCsbqoqex1KQlH_6probar13accessibility5tests15validator_testss_25test_check_reduced_motion
FNDA:0,_RNvNtNtNtCsbqoqex1KQlH_6probar13accessibility5tests15validator_testss_26test_full_audit_fail_focus
FNDA:0,_RNvNtNtNtCsbqoqex1KQlH_6probar13accessibility5tests15validator_testss_29test_full_audit_fail_contrast
FNDA:0,_RNvNtNtNtCsbqoqex1KQlH_6probar13accessibility5tests25accessibility_issue_testss_19test_issue_creation
FNDA:0,_RNvNtNtNtCsbqoqex1KQlH_6probar13accessibility5tests25accessibility_issue_testss_19test_issue_with_fix
FNDA:0,_RNvNtNtNtCsbqoqex1KQlH_6probar13accessibility5tests25accessibility_issue_testss_23test_issue_with_context
FNDA:0,_RNvNtNtNtCsbqoqex1KQlH_6probar13accessibility5tests23contrast_analysis_testss_18test_min_max_ratio
FNDA:0,_RNvNtNtNtCsbqoqex1KQlH_6probar13accessibility5tests23contrast_analysis_testss_19test_empty_analysis
FNDA:0,_RNvNtNtNtCsbqoqex1KQlH_6probar13accessibility5tests23contrast_analysis_testss_21test_add_failing_pair
FNDA:0,_RNvNtNtNtCsbqoqex1KQlH_6probar13accessibility5tests23contrast_analysis_testss_21test_add_passing_pair
FNDA:0,_RINvMs3_NtCsbqoqex1KQlH_6probar13accessibilityNtB6_18AccessibilityIssue12with_contextReEB8_
FNDA:0,_RINvMs3_NtCsbqoqex1KQlH_6probar13accessibilityNtB6_18AccessibilityIssue3newReB1b_EB8_
FNDA:0,_RINvMs3_NtCsbqoqex1KQlH_6probar13accessibilityNtB6_18AccessibilityIssue8with_fixReEB8_
FNDA:0,_RINvMs_NtCsbqoqex1KQlH_6probar13accessibilityNtB5_16ContrastAnalysis8add_pairReEB7_
FNDA:0,_RNvNtNtNtCsbqoqex1KQlH_6probar13accessibility5tests12config_testss_25test_focus_config_default
FNDA:0,_RNvNtNtNtCsbqoqex1KQlH_6probar13accessibility5tests12config_testss_33test_accessibility_config_default
FNDA:0,_RNCNvNtNtNtCsbqoqex1KQlH_6probar13accessibility5tests15validator_testss_26test_full_audit_fail_focus0B9_
FNDA:0,_RNCNvNtNtNtCsbqoqex1KQlH_6probar13accessibility5tests15validator_testss_29test_full_audit_fail_contrast0B9_
FNDA:0,_RNvNtNtNtCsbqoqex1KQlH_6probar13accessibility5tests20flash_detector_testss_23test_analyze_safe_flash
FNDA:0,_RNvNtNtNtCsbqoqex1KQlH_6probar13accessibility5tests20flash_detector_testss_27test_flash_detector_default
FNDA:0,_RNvNtNtNtCsbqoqex1KQlH_6probar13accessibility5tests20flash_detector_testss_28test_analyze_high_flash_rate
FNDA:0,_RNvNtNtNtCsbqoqex1KQlH_6probar13accessibility5tests20flash_detector_testss_29test_analyze_large_flash_area
FNDA:0,_RNvNtNtNtCsbqoqex1KQlH_6probar13accessibility5tests20flash_detector_testss_31test_analyze_high_red_intensity
FNDA:0,_RNvMNtCsbqoqex1KQlH_6probar13accessibilityNtB2_5Color14contrast_ratio
FNDA:0,_RNvMNtCsbqoqex1KQlH_6probar13accessibilityNtB2_5Color16meets_wcag_aa_ui
FNDA:0,_RNvMNtCsbqoqex1KQlH_6probar13accessibilityNtB2_5Color18relative_luminance
FNDA:0,_RNvMNtCsbqoqex1KQlH_6probar13accessibilityNtB2_5Color19meets_wcag_aa_large
FNDA:0,_RNvMNtCsbqoqex1KQlH_6probar13accessibilityNtB2_5Color20meets_wcag_aa_normal
FNDA:0,_RNvMNtCsbqoqex1KQlH_6probar13accessibilityNtB2_5Color3new
FNDA:0,_RNvMNtCsbqoqex1KQlH_6probar13accessibilityNtB2_5Color8from_hex
FNDA:0,_RNvMs1_NtCsbqoqex1KQlH_6probar13accessibilityNtB5_18AccessibilityAudit3new
FNDA:0,_RNvMs1_NtCsbqoqex1KQlH_6probar13accessibilityNtB5_18AccessibilityAudit6passes
FNDA:0,_RNvMs1_NtCsbqoqex1KQlH_6probar13accessibilityNtB5_18AccessibilityAudit9add_issue
FNDA:0,_RNvMs5_NtCsbqoqex1KQlH_6probar13accessibilityNtB5_22AccessibilityValidator14validate_focus
FNDA:0,_RNvMs5_NtCsbqoqex1KQlH_6probar13accessibilityNtB5_22AccessibilityValidator16analyze_contrast
FNDA:0,_RNvMs5_NtCsbqoqex1KQlH_6probar13accessibilityNtB5_22AccessibilityValidator20check_reduced_motion
FNDA:0,_RNvMs5_NtCsbqoqex1KQlH_6probar13accessibilityNtB5_22AccessibilityValidator3new
FNDA:0,_RNvMs5_NtCsbqoqex1KQlH_6probar13accessibilityNtB5_22AccessibilityValidator5audit
FNDA:0,_RNvMs7_NtCsbqoqex1KQlH_6probar13accessibilityNtB5_13FlashDetector3new
FNDA:0,_RNvMs7_NtCsbqoqex1KQlH_6probar13accessibilityNtB5_13FlashDetector7analyze
FNDA:0,_RNvMs_NtCsbqoqex1KQlH_6probar13accessibilityNtB4_16ContrastAnalysis5empty
FNDA:0,_RNvNtCsbqoqex1KQlH_6probar13accessibility14srgb_to_linear
FNDA:0,_RNvXs0_NtCsbqoqex1KQlH_6probar13accessibilityNtB5_19AccessibilityConfigNtNtCs6RpC691fUBl_4core7default7Default7default
FNDA:0,_RNvXs4_NtCsbqoqex1KQlH_6probar13accessibilityNtB5_11FocusConfigNtNtCs6RpC691fUBl_4core7default7Default7default
FNDA:0,_RNvXs6_NtCsbqoqex1KQlH_6probar13accessibilityNtB5_13FlashDetectorNtNtCs6RpC691fUBl_4core7default7Default7default
FNDA:0,_RNvNtNtNtCsbqoqex1KQlH_6probar13accessibility5tests11color_testss_19test_color_from_hex
FNDA:0,_RNvNtNtNtCsbqoqex1KQlH_6probar13accessibility5tests11color_testss_24test_wcag_aa_black_white
FNDA:0,_RNvNtNtNtCsbqoqex1KQlH_6probar13accessibility5tests11color_testss_25test_wcag_aa_low_contrast
FNDA:0,_RNvNtNtNtCsbqoqex1KQlH_6probar13accessibility5tests11color_testss_29test_relative_luminance_black
FNDA:0,_RNvNtNtNtCsbqoqex1KQlH_6probar13accessibility5tests11color_testss_29test_relative_luminance_white
FNDA:0,_RNvNtNtNtCsbqoqex1KQlH_6probar13accessibility5tests11color_testss_30test_contrast_ratio_same_color
FNDA:0,_RNvNtNtNtCsbqoqex1KQlH_6probar13accessibility5tests11color_testss_31test_contrast_ratio_black_white
FNDA:0,_RINvMs3_NtCs4eUmXem5O3q_6probar13accessibilityNtB6_18AccessibilityIssue12with_contextpEB8_
FNDA:0,_RNvMNtCs4eUmXem5O3q_6probar13accessibilityNtB2_5Color14contrast_ratio
FNDA:0,_RNvMNtCs4eUmXem5O3q_6probar13accessibilityNtB2_5Color16meets_wcag_aa_ui
FNDA:0,_RNvMNtCs4eUmXem5O3q_6probar13accessibilityNtB2_5Color18relative_luminance
FNDA:0,_RNvMNtCs4eUmXem5O3q_6probar13accessibilityNtB2_5Color19meets_wcag_aa_large
FNDA:0,_RNvMNtCs4eUmXem5O3q_6probar13accessibilityNtB2_5Color20meets_wcag_aa_normal
FNDA:0,_RNvMNtCs4eUmXem5O3q_6probar13accessibilityNtB2_5Color3new
FNDA:0,_RNvMNtCs4eUmXem5O3q_6probar13accessibilityNtB2_5Color8from_hex
FNDA:0,_RNvMs1_NtCs4eUmXem5O3q_6probar13accessibilityNtB5_18AccessibilityAudit3new
FNDA:0,_RNvMs1_NtCs4eUmXem5O3q_6probar13accessibilityNtB5_18AccessibilityAudit6passes
FNDA:0,_RNvMs1_NtCs4eUmXem5O3q_6probar13accessibilityNtB5_18AccessibilityAudit9add_issue
FNDA:0,_RNvMs5_NtCs4eUmXem5O3q_6probar13accessibilityNtB5_22AccessibilityValidator11with_config
FNDA:0,_RNvMs5_NtCs4eUmXem5O3q_6probar13accessibilityNtB5_22AccessibilityValidator14validate_focus
FNDA:0,_RNvMs5_NtCs4eUmXem5O3q_6probar13accessibilityNtB5_22AccessibilityValidator16analyze_contrast
FNDA:0,_RNvMs5_NtCs4eUmXem5O3q_6probar13accessibilityNtB5_22AccessibilityValidator20check_reduced_motion
FNDA:0,_RNvMs5_NtCs4eUmXem5O3q_6probar13accessibilityNtB5_22AccessibilityValidator3new
FNDA:0,_RNvMs5_NtCs4eUmXem5O3q_6probar13accessibilityNtB5_22AccessibilityValidator5audit
FNDA:0,_RNvMs7_NtCs4eUmXem5O3q_6probar13accessibilityNtB5_13FlashDetector3new
FNDA:0,_RNvMs7_NtCs4eUmXem5O3q_6probar13accessibilityNtB5_13FlashDetector7analyze
FNDA:0,_RNvMs_NtCs4eUmXem5O3q_6probar13accessibilityNtB4_16ContrastAnalysis5empty
FNDA:0,_RNvNtCs4eUmXem5O3q_6probar13accessibility14srgb_to_linear
FNDA:0,_RNvXs0_NtCs4eUmXem5O3q_6probar13accessibilityNtB5_19AccessibilityConfigNtNtCs6RpC691fUBl_4core7default7Default7default
FNDA:0,_RNvXs2_NtCs4eUmXem5O3q_6probar13accessibilityNtB5_18AccessibilityAuditNtNtCs6RpC691fUBl_4core7default7Default7default
FNDA:0,_RNvXs4_NtCs4eUmXem5O3q_6probar13accessibilityNtB5_11FocusConfigNtNtCs6RpC691fUBl_4core7default7Default7default
FNDA:0,_RNvXs6_NtCs4eUmXem5O3q_6probar13accessibilityNtB5_13FlashDetectorNtNtCs6RpC691fUBl_4core7default7Default7default
FNDA:0,_RINvMs3_NtCs4eUmXem5O3q_6probar13accessibilityNtB6_18AccessibilityIssue3newReB1b_EB8_
FNDA:0,_RINvMs3_NtCs4eUmXem5O3q_6probar13accessibilityNtB6_18AccessibilityIssue8with_fixReEB8_
FNDA:0,_RINvMs_NtCs4eUmXem5O3q_6probar13accessibilityNtB5_16ContrastAnalysis8add_pairReEB7_
FNF:62
FNH:0
DA:36,0
DA:37,0
DA:38,0
DA:43,0
DA:44,0
DA:45,0
DA:46,0
DA:47,0
DA:48,0
DA:49,0
DA:53,0
DA:55,0
DA:56,0
DA:57,0
DA:60,0
DA:61,0
DA:65,0
DA:66,0
DA:67,0
DA:69,0
DA:70,0
DA:72,0
DA:73,0
DA:77,0
DA:78,0
DA:79,0
DA:83,0
DA:84,0
DA:85,0
DA:89,0
DA:90,0
DA:91,0
DA:95,0
DA:96,0
DA:97,0
DA:99,0
DA:101,0
DA:123,0
DA:124,0
DA:125,0
DA:126,0
DA:127,0
DA:128,0
DA:129,0
DA:130,0
DA:131,0
DA:132,0
DA:135,0
DA:136,0
DA:137,0
DA:139,0
DA:140,0
DA:143,0
DA:146,0
DA:147,0
DA:148,0
DA:149,0
DA:150,0
DA:151,0
DA:152,0
DA:153,0
DA:154,0
DA:155,0
DA:189,0
DA:190,0
DA:191,0
DA:192,0
DA:193,0
DA:194,0
DA:195,0
DA:196,0
DA:197,0
DA:198,0
DA:221,0
DA:222,0
DA:223,0
DA:224,0
DA:225,0
DA:226,0
DA:227,0
DA:228,0
DA:229,0
DA:230,0
DA:234,0
DA:235,0
DA:236,0
DA:239,0
DA:241,0
DA:242,0
DA:243,0
DA:244,0
DA:245,0
DA:247,0
DA:248,0
DA:249,0
DA:253,0
DA:254,0
DA:255,0
DA:276,0
DA:277,0
DA:278,0
DA:279,0
DA:280,0
DA:281,0
DA:282,0
DA:283,0
DA:284,0
DA:285,0
DA:286,0
DA:287,0
DA:288,0
DA:292,0
DA:293,0
DA:294,0
DA:295,0
DA:299,0
DA:300,0
DA:301,0
DA:302,0
DA:339,0
DA:340,0
DA:341,0
DA:342,0
DA:343,0
DA:344,0
DA:358,0
DA:359,0
DA:360,0
DA:361,0
DA:362,0
DA:366,0
DA:367,0
DA:368,0
DA:374,0
DA:375,0
DA:377,0
DA:378,0
DA:379,0
DA:381,0
DA:382,0
DA:388,0
DA:389,0
DA:390,0
DA:397,0
DA:398,0
DA:399,0
DA:401,0
DA:402,0
DA:403,0
DA:405,0
DA:409,0
DA:410,0
DA:411,0
DA:412,0
DA:413,0
DA:414,0
DA:415,0
DA:418,0
DA:419,0
DA:420,0
DA:421,0
DA:422,0
DA:423,0
DA:424,0
DA:425,0
DA:426,0
DA:427,0
DA:428,0
DA:429,0
DA:430,0
DA:433,0
DA:434,0
DA:435,0
DA:436,0
DA:437,0
DA:438,0
DA:439,0
DA:440,0
DA:441,0
DA:442,0
DA:443,0
DA:446,0
DA:447,0
DA:448,0
DA:449,0
DA:450,0
DA:451,0
DA:452,0
DA:453,0
DA:454,0
DA:455,0
DA:456,0
DA:458,0
DA:459,0
DA:476,0
DA:477,0
DA:478,0
DA:479,0
DA:480,0
DA:481,0
DA:482,0
DA:503,0
DA:504,0
DA:505,0
DA:509,0
DA:510,0
DA:511,0
DA:512,0
DA:513,0
DA:514,0
DA:515,0
DA:517,0
DA:518,0
DA:520,0
DA:523,0
DA:524,0
DA:525,0
DA:527,0
DA:528,0
DA:529,0
DA:530,0
DA:531,0
DA:532,0
DA:534,0
DA:537,0
DA:538,0
DA:539,0
DA:540,0
DA:541,0
DA:542,0
DA:543,0
DA:544,0
DA:560,0
DA:561,0
DA:562,0
DA:563,0
DA:564,0
DA:565,0
DA:568,0
DA:569,0
DA:570,0
DA:571,0
DA:574,0
DA:575,0
DA:576,0
DA:577,0
DA:580,0
DA:581,0
DA:582,0
DA:583,0
DA:585,0
DA:586,0
DA:589,0
DA:590,0
DA:591,0
DA:593,0
DA:594,0
DA:597,0
DA:598,0
DA:599,0
DA:600,0
DA:601,0
DA:602,0
DA:603,0
DA:606,0
DA:607,0
DA:608,0
DA:609,0
DA:610,0
DA:617,0
DA:618,0
DA:619,0
DA:620,0
DA:621,0
DA:624,0
DA:625,0
DA:626,0
DA:627,0
DA:628,0
DA:629,0
DA:630,0
DA:631,0
DA:632,0
DA:635,0
DA:636,0
DA:637,0
DA:638,0
DA:639,0
DA:640,0
DA:641,0
DA:642,0
DA:645,0
DA:646,0
DA:647,0
DA:648,0
DA:649,0
DA:651,0
DA:652,0
DA:654,0
DA:655,0
DA:662,0
DA:663,0
DA:664,0
DA:665,0
DA:666,0
DA:669,0
DA:670,0
DA:671,0
DA:672,0
DA:673,0
DA:676,0
DA:677,0
DA:678,0
DA:679,0
DA:680,0
DA:687,0
DA:688,0
DA:689,0
DA:690,0
DA:691,0
DA:694,0
DA:695,0
DA:696,0
DA:699,0
DA:701,0
DA:702,0
DA:703,0
DA:706,0
DA:707,0
DA:708,0
DA:711,0
DA:713,0
DA:716,0
DA:718,0
DA:719,0
DA:726,0
DA:727,0
DA:728,0
DA:729,0
DA:730,0
DA:733,0
DA:734,0
DA:735,0
DA:736,0
DA:738,0
DA:739,0
DA:740,0
DA:743,0
DA:744,0
DA:745,0
DA:746,0
DA:749,0
DA:750,0
DA:751,0
DA:752,0
DA:755,0
DA:756,0
DA:757,0
DA:758,0
DA:759,0
DA:762,0
DA:763,0
DA:764,0
DA:765,0
DA:767,0
DA:768,0
DA:773,0
DA:774,0
DA:775,0
DA:778,0
DA:779,0
DA:780,0
DA:781,0
DA:783,0
DA:785,0
DA:786,0
DA:787,0
DA:790,0
DA:791,0
DA:792,0
DA:793,0
DA:795,0
DA:796,0
DA:801,0
DA:802,0
DA:803,0
DA:810,0
DA:811,0
DA:812,0
DA:813,0
DA:816,0
DA:817,0
DA:818,0
DA:819,0
DA:820,0
DA:821,0
DA:824,0
DA:825,0
DA:827,0
DA:828,0
DA:829,0
DA:830,0
DA:833,0
DA:834,0
DA:835,0
DA:836,0
DA:837,0
DA:838,0
DA:841,0
DA:842,0
DA:843,0
DA:844,0
DA:845,0
DA:852,0
DA:853,0
DA:854,0
DA:855,0
DA:856,0
DA:857,0
DA:858,0
DA:861,0
DA:862,0
DA:863,0
DA:864,0
DA:865,0
BRF:0
BRH:0
LF:427
LH:0
end_of_record
SF:/home/noah/src/probar/crates/probar/src/assertion/equation.rs
FN:1017,_RNvNtNtNtNtCsbqoqex1KQlH_6probar9assertion8equation5tests23momentum_verifier_testss_19test_pong_collision
FN:989,_RNvNtNtNtNtCsbqoqex1KQlH_6probar9assertion8equation5tests23momentum_verifier_testss_20test_verify_momentum
FN:998,_RNvNtNtNtNtCsbqoqex1KQlH_6probar9assertion8equation5tests23momentum_verifier_testss_24test_verify_conservation
FN:1008,_RNvNtNtNtNtCsbqoqex1KQlH_6probar9assertion8equation5tests23momentum_verifier_testss_29test_verify_elastic_collision
FN:210,_RNvMs3_NtNtCsbqoqex1KQlH_6probar9assertion8equationNtB5_16EquationVerifier9tolerance
FN:395,_RNvMs4_NtNtCsbqoqex1KQlH_6probar9assertion8equationNtB5_17KinematicVerifier14with_tolerance
FN:443,_RNvMs4_NtNtCsbqoqex1KQlH_6probar9assertion8equationNtB5_17KinematicVerifier8verifier
FN:521,_RNvMs6_NtNtCsbqoqex1KQlH_6probar9assertion8equationNtB5_14EnergyVerifier18verify_work_energy
FN:534,_RNvMs6_NtNtCsbqoqex1KQlH_6probar9assertion8equationNtB5_14EnergyVerifier8verifier
FN:616,_RNvMs8_NtNtCsbqoqex1KQlH_6probar9assertion8equationNtB5_16MomentumVerifier8verifier
FN:692,_RNvMsa_NtNtCsbqoqex1KQlH_6probar9assertion8equationNtB5_17InvariantVerifier13verify_custom
FN:699,_RNvMsa_NtNtCsbqoqex1KQlH_6probar9assertion8equationNtB5_17InvariantVerifier8verifier
FN:168,_RNvXs2_NtNtCsbqoqex1KQlH_6probar9assertion8equationNtB5_14EquationResultNtNtCs6RpC691fUBl_4core3fmt7Display3fmt
FN:454,_RNvXs5_NtNtCsbqoqex1KQlH_6probar9assertion8equationNtB5_17KinematicVerifierNtNtCs6RpC691fUBl_4core7default7Default7default
FN:545,_RNvXs7_NtNtCsbqoqex1KQlH_6probar9assertion8equationNtB5_14EnergyVerifierNtNtCs6RpC691fUBl_4core7default7Default7default
FN:627,_RNvXs9_NtNtCsbqoqex1KQlH_6probar9assertion8equationNtB5_16MomentumVerifierNtNtCs6RpC691fUBl_4core7default7Default7default
FN:750,_RNvNtNtNtNtCsbqoqex1KQlH_6probar9assertion8equation5tests22equation_context_testss_16test_set_and_get
FN:760,_RNvNtNtNtNtCsbqoqex1KQlH_6probar9assertion8equation5tests22equation_context_testss_19test_from_variables
FN:744,_RNvNtNtNtNtCsbqoqex1KQlH_6probar9assertion8equation5tests22equation_context_testss_8test_new
FN:33,_RNvMNtNtCsbqoqex1KQlH_6probar9assertion8equationNtB2_8Variable3new
FN:43,_RNvMNtNtCsbqoqex1KQlH_6probar9assertion8equationNtB2_8Variable9with_unit
FN:100,_RNvMs0_NtNtCsbqoqex1KQlH_6probar9assertion8equationNtB5_15EquationContext14from_variables
FN:82,_RNvMs0_NtNtCsbqoqex1KQlH_6probar9assertion8equationNtB5_15EquationContext3get
FN:88,_RNvMs0_NtNtCsbqoqex1KQlH_6probar9assertion8equationNtB5_15EquationContext3has
FN:70,_RNvMs0_NtNtCsbqoqex1KQlH_6probar9assertion8equationNtB5_15EquationContext3new
FN:75,_RNvMs0_NtNtCsbqoqex1KQlH_6probar9assertion8equationNtB5_15EquationContext3set
FN:94,_RNvMs0_NtNtCsbqoqex1KQlH_6probar9assertion8equationNtB5_15EquationContext9variables
FN:133,_RNvMs1_NtNtCsbqoqex1KQlH_6probar9assertion8equationNtB5_14EquationResult3new
FN:326,_RNvMs3_NtNtCsbqoqex1KQlH_6probar9assertion8equationNtB5_16EquationVerifier10all_passed
FN:349,_RNvMs3_NtNtCsbqoqex1KQlH_6probar9assertion8equationNtB5_16EquationVerifier10assert_all
FN:344,_RNvMs3_NtNtCsbqoqex1KQlH_6probar9assertion8equationNtB5_16EquationVerifier12failed_count
FN:338,_RNvMs3_NtNtCsbqoqex1KQlH_6probar9assertion8equationNtB5_16EquationVerifier12passed_count
FN:197,_RNvMs3_NtNtCsbqoqex1KQlH_6probar9assertion8equationNtB5_16EquationVerifier14with_tolerance
FN:235,_RNvMs3_NtNtCsbqoqex1KQlH_6probar9assertion8equationNtB5_16EquationVerifier15verify_in_range
FN:297,_RNvMs3_NtNtCsbqoqex1KQlH_6probar9assertion8equationNtB5_16EquationVerifier15verify_positive
FN:275,_RNvMs3_NtNtCsbqoqex1KQlH_6probar9assertion8equationNtB5_16EquationVerifier19verify_non_negative
FN:222,_RNvMs3_NtNtCsbqoqex1KQlH_6probar9assertion8equationNtB5_16EquationVerifier24verify_eq_with_tolerance
FN:187,_RNvMs3_NtNtCsbqoqex1KQlH_6probar9assertion8equationNtB5_16EquationVerifier3new
FN:204,_RNvMs3_NtNtCsbqoqex1KQlH_6probar9assertion8equationNtB5_16EquationVerifier4name
FN:369,_RNvMs3_NtNtCsbqoqex1KQlH_6probar9assertion8equationNtB5_16EquationVerifier5clear
FN:320,_RNvMs3_NtNtCsbqoqex1KQlH_6probar9assertion8equationNtB5_16EquationVerifier7results
FN:332,_RNvMs3_NtNtCsbqoqex1KQlH_6probar9assertion8equationNtB5_16EquationVerifier8failures
FN:215,_RNvMs3_NtNtCsbqoqex1KQlH_6probar9assertion8equationNtB5_16EquationVerifier9verify_eq
FN:448,_RNvMs4_NtNtCsbqoqex1KQlH_6probar9assertion8equationNtB5_17KinematicVerifier10assert_all
FN:414,_RNvMs4_NtNtCsbqoqex1KQlH_6probar9assertion8equationNtB5_17KinematicVerifier15verify_position
FN:401,_RNvMs4_NtNtCsbqoqex1KQlH_6probar9assertion8equationNtB5_17KinematicVerifier15verify_velocity
FN:428,_RNvMs4_NtNtCsbqoqex1KQlH_6probar9assertion8equationNtB5_17KinematicVerifier23verify_velocity_squared
FN:387,_RNvMs4_NtNtCsbqoqex1KQlH_6probar9assertion8equationNtB5_17KinematicVerifier3new
FN:539,_RNvMs6_NtNtCsbqoqex1KQlH_6probar9assertion8equationNtB5_14EnergyVerifier10assert_all
FN:476,_RNvMs6_NtNtCsbqoqex1KQlH_6probar9assertion8equationNtB5_14EnergyVerifier14with_tolerance
FN:507,_RNvMs6_NtNtCsbqoqex1KQlH_6probar9assertion8equationNtB5_14EnergyVerifier19verify_conservation
FN:482,_RNvMs6_NtNtCsbqoqex1KQlH_6probar9assertion8equationNtB5_14EnergyVerifier21verify_kinetic_energy
FN:494,_RNvMs6_NtNtCsbqoqex1KQlH_6probar9assertion8equationNtB5_14EnergyVerifier23verify_potential_energy
FN:468,_RNvMs6_NtNtCsbqoqex1KQlH_6probar9assertion8equationNtB5_14EnergyVerifier3new
FN:621,_RNvMs8_NtNtCsbqoqex1KQlH_6probar9assertion8equationNtB5_16MomentumVerifier10assert_all
FN:567,_RNvMs8_NtNtCsbqoqex1KQlH_6probar9assertion8equationNtB5_16MomentumVerifier14with_tolerance
FN:573,_RNvMs8_NtNtCsbqoqex1KQlH_6probar9assertion8equationNtB5_16MomentumVerifier15verify_momentum
FN:585,_RNvMs8_NtNtCsbqoqex1KQlH_6probar9assertion8equationNtB5_16MomentumVerifier19verify_conservation
FN:598,_RNvMs8_NtNtCsbqoqex1KQlH_6probar9assertion8equationNtB5_16MomentumVerifier24verify_elastic_collision
FN:559,_RNvMs8_NtNtCsbqoqex1KQlH_6probar9assertion8equationNtB5_16MomentumVerifier3new
FN:704,_RNvMsa_NtNtCsbqoqex1KQlH_6probar9assertion8equationNtB5_17InvariantVerifier10assert_all
FN:661,_RNvMsa_NtNtCsbqoqex1KQlH_6probar9assertion8equationNtB5_17InvariantVerifier13verify_health
FN:649,_RNvMsa_NtNtCsbqoqex1KQlH_6probar9assertion8equationNtB5_17InvariantVerifier14with_tolerance
FN:679,_RNvMsa_NtNtCsbqoqex1KQlH_6probar9assertion8equationNtB5_17InvariantVerifier18verify_speed_limit
FN:686,_RNvMsa_NtNtCsbqoqex1KQlH_6probar9assertion8equationNtB5_17InvariantVerifier19verify_entity_count
FN:667,_RNvMsa_NtNtCsbqoqex1KQlH_6probar9assertion8equationNtB5_17InvariantVerifier22verify_position_bounds
FN:655,_RNvMsa_NtNtCsbqoqex1KQlH_6probar9assertion8equationNtB5_17InvariantVerifier25verify_score_non_negative
FN:641,_RNvMsa_NtNtCsbqoqex1KQlH_6probar9assertion8equationNtB5_17InvariantVerifier3new
FN:53,_RNvXs_NtNtCsbqoqex1KQlH_6probar9assertion8equationNtB4_8VariableNtNtCs6RpC691fUBl_4core3fmt7Display3fmt
FN:965,_RNvNtNtNtNtCsbqoqex1KQlH_6probar9assertion8equation5tests21energy_verifier_testss_20test_pendulum_energy
FN:954,_RNvNtNtNtNtCsbqoqex1KQlH_6probar9assertion8equation5tests21energy_verifier_testss_24test_verify_conservation
FN:936,_RNvNtNtNtNtCsbqoqex1KQlH_6probar9assertion8equation5tests21energy_verifier_testss_26test_verify_kinetic_energy
FN:945,_RNvNtNtNtNtCsbqoqex1KQlH_6probar9assertion8equation5tests21energy_verifier_testss_28test_verify_potential_energy
FN:874,_RNvNtNtNtNtCsbqoqex1KQlH_6probar9assertion8equation5tests23equation_verifier_testss_10test_clear
FN:792,_RNvNtNtNtNtCsbqoqex1KQlH_6probar9assertion8equation5tests23equation_verifier_testss_19test_verify_eq_fail
FN:783,_RNvNtNtNtNtCsbqoqex1KQlH_6probar9assertion8equation5tests23equation_verifier_testss_19test_verify_eq_pass
FN:866,_RNvNtNtNtNtCsbqoqex1KQlH_6probar9assertion8equation5tests23equation_verifier_testss_20test_assert_all_fail
FN:858,_RNvNtNtNtNtCsbqoqex1KQlH_6probar9assertion8equation5tests23equation_verifier_testss_20test_assert_all_pass
FN:817,_RNvNtNtNtNtCsbqoqex1KQlH_6probar9assertion8equation5tests23equation_verifier_testss_25test_verify_in_range_fail
FN:809,_RNvNtNtNtNtCsbqoqex1KQlH_6probar9assertion8equation5tests23equation_verifier_testss_25test_verify_in_range_pass
FN:850,_RNvNtNtNtNtCsbqoqex1KQlH_6probar9assertion8equation5tests23equation_verifier_testss_25test_verify_positive_fail
FN:842,_RNvNtNtNtNtCsbqoqex1KQlH_6probar9assertion8equation5tests23equation_verifier_testss_25test_verify_positive_pass
FN:801,_RNvNtNtNtNtCsbqoqex1KQlH_6probar9assertion8equation5tests23equation_verifier_testss_29test_verify_eq_with_tolerance
FN:834,_RNvNtNtNtNtCsbqoqex1KQlH_6probar9assertion8equation5tests23equation_verifier_testss_29test_verify_non_negative_fail
FN:825,_RNvNtNtNtNtCsbqoqex1KQlH_6probar9assertion8equation5tests23equation_verifier_testss_29test_verify_non_negative_pass
FN:776,_RNvNtNtNtNtCsbqoqex1KQlH_6probar9assertion8equation5tests23equation_verifier_testss_8test_new
FN:916,_RNvNtNtNtNtCsbqoqex1KQlH_6probar9assertion8equation5tests24kinematic_verifier_testss_14test_free_fall
FN:896,_RNvNtNtNtNtCsbqoqex1KQlH_6probar9assertion8equation5tests24kinematic_verifier_testss_20test_verify_position
FN:887,_RNvNtNtNtNtCsbqoqex1KQlH_6probar9assertion8equation5tests24kinematic_verifier_testss_20test_verify_velocity
FN:905,_RNvNtNtNtNtCsbqoqex1KQlH_6probar9assertion8equation5tests24kinematic_verifier_testss_28test_verify_velocity_squared
FN:731,_RNvNtNtNtNtCsbqoqex1KQlH_6probar9assertion8equation5tests14variable_testss_12test_display
FN:725,_RNvNtNtNtNtCsbqoqex1KQlH_6probar9assertion8equation5tests14variable_testss_14test_with_unit
FN:717,_RNvNtNtNtNtCsbqoqex1KQlH_6probar9assertion8equation5tests14variable_testss_8test_new
FN:1048,_RNvNtNtNtNtCsbqoqex1KQlH_6probar9assertion8equation5tests24invariant_verifier_testss_18test_verify_health
FN:1064,_RNvNtNtNtNtCsbqoqex1KQlH_6probar9assertion8equation5tests24invariant_verifier_testss_23test_verify_speed_limit
FN:1072,_RNvNtNtNtNtCsbqoqex1KQlH_6probar9assertion8equation5tests24invariant_verifier_testss_24test_verify_entity_count
FN:1080,_RNvNtNtNtNtCsbqoqex1KQlH_6probar9assertion8equation5tests24invariant_verifier_testss_26test_game_frame_invariants
FN:1056,_RNvNtNtNtNtCsbqoqex1KQlH_6probar9assertion8equation5tests24invariant_verifier_testss_27test_verify_position_bounds
FN:1040,_RNvNtNtNtNtCsbqoqex1KQlH_6probar9assertion8equation5tests24invariant_verifier_testss_30test_verify_score_non_negative
FN:356,_RNCNvMs3_NtNtCsbqoqex1KQlH_6probar9assertion8equationNtB7_16EquationVerifier10assert_all0Bb_
FN:345,_RNCNvMs3_NtNtCsbqoqex1KQlH_6probar9assertion8equationNtB7_16EquationVerifier12failed_count0Bb_
FN:333,_RNCNvMs3_NtNtCsbqoqex1KQlH_6probar9assertion8equationNtB7_16EquationVerifier8failures0Bb_
FN:356,_RNCNvMs3_NtNtCs4eUmXem5O3q_6probar9assertion8equationNtB7_16EquationVerifier10assert_all0Bb_
FN:345,_RNCNvMs3_NtNtCs4eUmXem5O3q_6probar9assertion8equationNtB7_16EquationVerifier12failed_count0Bb_
FN:333,_RNCNvMs3_NtNtCs4eUmXem5O3q_6probar9assertion8equationNtB7_16EquationVerifier8failures0Bb_
FNDA:0,_RNvNtNtNtNtCsbqoqex1KQlH_6probar9assertion8equation5tests23momentum_verifier_testss_19test_pong_collision
FNDA:0,_RNvNtNtNtNtCsbqoqex1KQlH_6probar9assertion8equation5tests23momentum_verifier_testss_20test_verify_momentum
FNDA:0,_RNvNtNtNtNtCsbqoqex1KQlH_6probar9assertion8equation5tests23momentum_verifier_testss_24test_verify_conservation
FNDA:0,_RNvNtNtNtNtCsbqoqex1KQlH_6probar9assertion8equation5tests23momentum_verifier_testss_29test_verify_elastic_collision
FNDA:0,_RNvMs3_NtNtCsbqoqex1KQlH_6probar9assertion8equationNtB5_16EquationVerifier9tolerance
FNDA:0,_RNvMs4_NtNtCsbqoqex1KQlH_6probar9assertion8equationNtB5_17KinematicVerifier14with_tolerance
FNDA:0,_RNvMs4_NtNtCsbqoqex1KQlH_6probar9assertion8equationNtB5_17KinematicVerifier8verifier
FNDA:0,_RNvMs6_NtNtCsbqoqex1KQlH_6probar9assertion8equationNtB5_14EnergyVerifier18verify_work_energy
FNDA:0,_RNvMs6_NtNtCsbqoqex1KQlH_6probar9assertion8equationNtB5_14EnergyVerifier8verifier
FNDA:0,_RNvMs8_NtNtCsbqoqex1KQlH_6probar9assertion8equationNtB5_16MomentumVerifier8verifier
FNDA:0,_RNvMsa_NtNtCsbqoqex1KQlH_6probar9assertion8equationNtB5_17InvariantVerifier13verify_custom
FNDA:0,_RNvMsa_NtNtCsbqoqex1KQlH_6probar9assertion8equationNtB5_17InvariantVerifier8verifier
FNDA:0,_RNvXs2_NtNtCsbqoqex1KQlH_6probar9assertion8equationNtB5_14EquationResultNtNtCs6RpC691fUBl_4core3fmt7Display3fmt
FNDA:0,_RNvXs5_NtNtCsbqoqex1KQlH_6probar9assertion8equationNtB5_17KinematicVerifierNtNtCs6RpC691fUBl_4core7default7Default7default
FNDA:0,_RNvXs7_NtNtCsbqoqex1KQlH_6probar9assertion8equationNtB5_14EnergyVerifierNtNtCs6RpC691fUBl_4core7default7Default7default
FNDA:0,_RNvXs9_NtNtCsbqoqex1KQlH_6probar9assertion8equationNtB5_16MomentumVerifierNtNtCs6RpC691fUBl_4core7default7Default7default
FNDA:0,_RNvNtNtNtNtCsbqoqex1KQlH_6probar9assertion8equation5tests22equation_context_testss_16test_set_and_get
FNDA:0,_RNvNtNtNtNtCsbqoqex1KQlH_6probar9assertion8equation5tests22equation_context_testss_19test_from_variables
FNDA:0,_RNvNtNtNtNtCsbqoqex1KQlH_6probar9assertion8equation5tests22equation_context_testss_8test_new
FNDA:0,_RNvMNtNtCsbqoqex1KQlH_6probar9assertion8equationNtB2_8Variable3new
FNDA:0,_RNvMNtNtCsbqoqex1KQlH_6probar9assertion8equationNtB2_8Variable9with_unit
FNDA:0,_RNvMs0_NtNtCsbqoqex1KQlH_6probar9assertion8equationNtB5_15EquationContext14from_variables
FNDA:0,_RNvMs0_NtNtCsbqoqex1KQlH_6probar9assertion8equationNtB5_15EquationContext3get
FNDA:0,_RNvMs0_NtNtCsbqoqex1KQlH_6probar9assertion8equationNtB5_15EquationContext3has
FNDA:0,_RNvMs0_NtNtCsbqoqex1KQlH_6probar9assertion8equationNtB5_15EquationContext3new
FNDA:0,_RNvMs0_NtNtCsbqoqex1KQlH_6probar9assertion8equationNtB5_15EquationContext3set
FNDA:0,_RNvMs0_NtNtCsbqoqex1KQlH_6probar9assertion8equationNtB5_15EquationContext9variables
FNDA:0,_RNvMs1_NtNtCsbqoqex1KQlH_6probar9assertion8equationNtB5_14EquationResult3new
FNDA:0,_RNvMs3_NtNtCsbqoqex1KQlH_6probar9assertion8equationNtB5_16EquationVerifier10all_passed
FNDA:0,_RNvMs3_NtNtCsbqoqex1KQlH_6probar9assertion8equationNtB5_16EquationVerifier10assert_all
FNDA:0,_RNvMs3_NtNtCsbqoqex1KQlH_6probar9assertion8equationNtB5_16EquationVerifier12failed_count
FNDA:0,_RNvMs3_NtNtCsbqoqex1KQlH_6probar9assertion8equationNtB5_16EquationVerifier12passed_count
FNDA:0,_RNvMs3_NtNtCsbqoqex1KQlH_6probar9assertion8equationNtB5_16EquationVerifier14with_tolerance
FNDA:0,_RNvMs3_NtNtCsbqoqex1KQlH_6probar9assertion8equationNtB5_16EquationVerifier15verify_in_range
FNDA:0,_RNvMs3_NtNtCsbqoqex1KQlH_6probar9assertion8equationNtB5_16EquationVerifier15verify_positive
FNDA:0,_RNvMs3_NtNtCsbqoqex1KQlH_6probar9assertion8equationNtB5_16EquationVerifier19verify_non_negative
FNDA:0,_RNvMs3_NtNtCsbqoqex1KQlH_6probar9assertion8equationNtB5_16EquationVerifier24verify_eq_with_tolerance
FNDA:0,_RNvMs3_NtNtCsbqoqex1KQlH_6probar9assertion8equationNtB5_16EquationVerifier3new
FNDA:0,_RNvMs3_NtNtCsbqoqex1KQlH_6probar9assertion8equationNtB5_16EquationVerifier4name
FNDA:0,_RNvMs3_NtNtCsbqoqex1KQlH_6probar9assertion8equationNtB5_16EquationVerifier5clear
FNDA:0,_RNvMs3_NtNtCsbqoqex1KQlH_6probar9assertion8equationNtB5_16EquationVerifier7results
FNDA:0,_RNvMs3_NtNtCsbqoqex1KQlH_6probar9assertion8equationNtB5_16EquationVerifier8failures
FNDA:0,_RNvMs3_NtNtCsbqoqex1KQlH_6probar9assertion8equationNtB5_16EquationVerifier9verify_eq
FNDA:0,_RNvMs4_NtNtCsbqoqex1KQlH_6probar9assertion8equationNtB5_17KinematicVerifier10assert_all
FNDA:0,_RNvMs4_NtNtCsbqoqex1KQlH_6probar9assertion8equationNtB5_17KinematicVerifier15verify_position
FNDA:0,_RNvMs4_NtNtCsbqoqex1KQlH_6probar9assertion8equationNtB5_17KinematicVerifier15verify_velocity
FNDA:0,_RNvMs4_NtNtCsbqoqex1KQlH_6probar9assertion8equationNtB5_17KinematicVerifier23verify_velocity_squared
FNDA:0,_RNvMs4_NtNtCsbqoqex1KQlH_6probar9assertion8equationNtB5_17KinematicVerifier3new
FNDA:0,_RNvMs6_NtNtCsbqoqex1KQlH_6probar9assertion8equationNtB5_14EnergyVerifier10assert_all
FNDA:0,_RNvMs6_NtNtCsbqoqex1KQlH_6probar9assertion8equationNtB5_14EnergyVerifier14with_tolerance
FNDA:0,_RNvMs6_NtNtCsbqoqex1KQlH_6probar9assertion8equationNtB5_14EnergyVerifier19verify_conservation
FNDA:0,_RNvMs6_NtNtCsbqoqex1KQlH_6probar9assertion8equationNtB5_14EnergyVerifier21verify_kinetic_energy
FNDA:0,_RNvMs6_NtNtCsbqoqex1KQlH_6probar9assertion8equationNtB5_14EnergyVerifier23verify_potential_energy
FNDA:0,_RNvMs6_NtNtCsbqoqex1KQlH_6probar9assertion8equationNtB5_14EnergyVerifier3new
FNDA:0,_RNvMs8_NtNtCsbqoqex1KQlH_6probar9assertion8equationNtB5_16MomentumVerifier10assert_all
FNDA:0,_RNvMs8_NtNtCsbqoqex1KQlH_6probar9assertion8equationNtB5_16MomentumVerifier14with_tolerance
FNDA:0,_RNvMs8_NtNtCsbqoqex1KQlH_6probar9assertion8equationNtB5_16MomentumVerifier15verify_momentum
FNDA:0,_RNvMs8_NtNtCsbqoqex1KQlH_6probar9assertion8equationNtB5_16MomentumVerifier19verify_conservation
FNDA:0,_RNvMs8_NtNtCsbqoqex1KQlH_6probar9assertion8equationNtB5_16MomentumVerifier24verify_elastic_collision
FNDA:0,_RNvMs8_NtNtCsbqoqex1KQlH_6probar9assertion8equationNtB5_16MomentumVerifier3new
FNDA:0,_RNvMsa_NtNtCsbqoqex1KQlH_6probar9assertion8equationNtB5_17InvariantVerifier10assert_all
FNDA:0,_RNvMsa_NtNtCsbqoqex1KQlH_6probar9assertion8equationNtB5_17InvariantVerifier13verify_health
FNDA:0,_RNvMsa_NtNtCsbqoqex1KQlH_6probar9assertion8equationNtB5_17InvariantVerifier14with_tolerance
FNDA:0,_RNvMsa_NtNtCsbqoqex1KQlH_6probar9assertion8equationNtB5_17InvariantVerifier18verify_speed_limit
FNDA:0,_RNvMsa_NtNtCsbqoqex1KQlH_6probar9assertion8equationNtB5_17InvariantVerifier19verify_entity_count
FNDA:0,_RNvMsa_NtNtCsbqoqex1KQlH_6probar9assertion8equationNtB5_17InvariantVerifier22verify_position_bounds
FNDA:0,_RNvMsa_NtNtCsbqoqex1KQlH_6probar9assertion8equationNtB5_17InvariantVerifier25verify_score_non_negative
FNDA:0,_RNvMsa_NtNtCsbqoqex1KQlH_6probar9assertion8equationNtB5_17InvariantVerifier3new
FNDA:0,_RNvXs_NtNtCsbqoqex1KQlH_6probar9assertion8equationNtB4_8VariableNtNtCs6RpC691fUBl_4core3fmt7Display3fmt
FNDA:0,_RNvNtNtNtNtCsbqoqex1KQlH_6probar9assertion8equation5tests21energy_verifier_testss_20test_pendulum_energy
FNDA:0,_RNvNtNtNtNtCsbqoqex1KQlH_6probar9assertion8equation5tests21energy_verifier_testss_24test_verify_conservation
FNDA:0,_RNvNtNtNtNtCsbqoqex1KQlH_6probar9assertion8equation5tests21energy_verifier_testss_26test_verify_kinetic_energy
FNDA:0,_RNvNtNtNtNtCsbqoqex1KQlH_6probar9assertion8equation5tests21energy_verifier_testss_28test_verify_potential_energy
FNDA:0,_RNvNtNtNtNtCsbqoqex1KQlH_6probar9assertion8equation5tests23equation_verifier_testss_10test_clear
FNDA:0,_RNvNtNtNtNtCsbqoqex1KQlH_6probar9assertion8equation5tests23equation_verifier_testss_19test_verify_eq_fail
FNDA:0,_RNvNtNtNtNtCsbqoqex1KQlH_6probar9assertion8equation5tests23equation_verifier_testss_19test_verify_eq_pass
FNDA:0,_RNvNtNtNtNtCsbqoqex1KQlH_6probar9assertion8equation5tests23equation_verifier_testss_20test_assert_all_fail
FNDA:0,_RNvNtNtNtNtCsbqoqex1KQlH_6probar9assertion8equation5tests23equation_verifier_testss_20test_assert_all_pass
FNDA:0,_RNvNtNtNtNtCsbqoqex1KQlH_6probar9assertion8equation5tests23equation_verifier_testss_25test_verify_in_range_fail
FNDA:0,_RNvNtNtNtNtCsbqoqex1KQlH_6probar9assertion8equation5tests23equation_verifier_testss_25test_verify_in_range_pass
FNDA:0,_RNvNtNtNtNtCsbqoqex1KQlH_6probar9assertion8equation5tests23equation_verifier_testss_25test_verify_positive_fail
FNDA:0,_RNvNtNtNtNtCsbqoqex1KQlH_6probar9assertion8equation5tests23equation_verifier_testss_25test_verify_positive_pass
FNDA:0,_RNvNtNtNtNtCsbqoqex1KQlH_6probar9assertion8equation5tests23equation_verifier_testss_29test_verify_eq_with_tolerance
FNDA:0,_RNvNtNtNtNtCsbqoqex1KQlH_6probar9assertion8equation5tests23equation_verifier_testss_29test_verify_non_negative_fail
FNDA:0,_RNvNtNtNtNtCsbqoqex1KQlH_6probar9assertion8equation5tests23equation_verifier_testss_29test_verify_non_negative_pass
FNDA:0,_RNvNtNtNtNtCsbqoqex1KQlH_6probar9assertion8equation5tests23equation_verifier_testss_8test_new
FNDA:0,_RNvNtNtNtNtCsbqoqex1KQlH_6probar9assertion8equation5tests24kinematic_verifier_testss_14test_free_fall
FNDA:0,_RNvNtNtNtNtCsbqoqex1KQlH_6probar9assertion8equation5tests24kinematic_verifier_testss_20test_verify_position
FNDA:0,_RNvNtNtNtNtCsbqoqex1KQlH_6probar9assertion8equation5tests24kinematic_verifier_testss_20test_verify_velocity
FNDA:0,_RNvNtNtNtNtCsbqoqex1KQlH_6probar9assertion8equation5tests24kinematic_verifier_testss_28test_verify_velocity_squared
FNDA:0,_RNvNtNtNtNtCsbqoqex1KQlH_6probar9assertion8equation5tests14variable_testss_12test_display
FNDA:0,_RNvNtNtNtNtCsbqoqex1KQlH_6probar9assertion8equation5tests14variable_testss_14test_with_unit
FNDA:0,_RNvNtNtNtNtCsbqoqex1KQlH_6probar9assertion8equation5tests14variable_testss_8test_new
FNDA:0,_RNvNtNtNtNtCsbqoqex1KQlH_6probar9assertion8equation5tests24invariant_verifier_testss_18test_verify_health
FNDA:0,_RNvNtNtNtNtCsbqoqex1KQlH_6probar9assertion8equation5tests24invariant_verifier_testss_23test_verify_speed_limit
FNDA:0,_RNvNtNtNtNtCsbqoqex1KQlH_6probar9assertion8equation5tests24invariant_verifier_testss_24test_verify_entity_count
FNDA:0,_RNvNtNtNtNtCsbqoqex1KQlH_6probar9assertion8equation5tests24invariant_verifier_testss_26test_game_frame_invariants
FNDA:0,_RNvNtNtNtNtCsbqoqex1KQlH_6probar9assertion8equation5tests24invariant_verifier_testss_27test_verify_position_bounds
FNDA:0,_RNvNtNtNtNtCsbqoqex1KQlH_6probar9assertion8equation5tests24invariant_verifier_testss_30test_verify_score_non_negative
FNDA:0,_RNCNvMs3_NtNtCsbqoqex1KQlH_6probar9assertion8equationNtB7_16EquationVerifier10assert_all0Bb_
FNDA:0,_RNCNvMs3_NtNtCsbqoqex1KQlH_6probar9assertion8equationNtB7_16EquationVerifier12failed_count0Bb_
FNDA:0,_RNCNvMs3_NtNtCsbqoqex1KQlH_6probar9assertion8equationNtB7_16EquationVerifier8failures0Bb_
FNDA:0,_RNCNvMs3_NtNtCs4eUmXem5O3q_6probar9assertion8equationNtB7_16EquationVerifier10assert_all0Bb_
FNDA:0,_RNCNvMs3_NtNtCs4eUmXem5O3q_6probar9assertion8equationNtB7_16EquationVerifier12failed_count0Bb_
FNDA:0,_RNCNvMs3_NtNtCs4eUmXem5O3q_6probar9assertion8equationNtB7_16EquationVerifier8failures0Bb_
FNF:102
FNH:0
DA:33,0
DA:34,0
DA:35,0
DA:36,0
DA:37,0
DA:38,0
DA:39,0
DA:43,0
DA:44,0
DA:45,0
DA:46,0
DA:47,0
DA:48,0
DA:49,0
DA:53,0
DA:54,0
DA:55,0
DA:56,0
DA:58,0
DA:70,0
DA:71,0
DA:72,0
DA:75,0
DA:76,0
DA:77,0
DA:78,0
DA:82,0
DA:83,0
DA:84,0
DA:88,0
DA:89,0
DA:90,0
DA:94,0
DA:95,0
DA:96,0
DA:100,0
DA:101,0
DA:102,0
DA:103,0
DA:104,0
DA:105,0
DA:106,0
DA:133,0
DA:134,0
DA:135,0
DA:136,0
DA:138,0
DA:140,0
DA:142,0
DA:143,0
DA:144,0
DA:148,0
DA:149,0
DA:154,0
DA:155,0
DA:156,0
DA:157,0
DA:158,0
DA:159,0
DA:160,0
DA:161,0
DA:162,0
DA:163,0
DA:164,0
DA:168,0
DA:169,0
DA:170,0
DA:187,0
DA:188,0
DA:189,0
DA:190,0
DA:191,0
DA:192,0
DA:193,0
DA:197,0
DA:198,0
DA:199,0
DA:200,0
DA:204,0
DA:205,0
DA:206,0
DA:210,0
DA:211,0
DA:212,0
DA:215,0
DA:216,0
DA:217,0
DA:218,0
DA:219,0
DA:222,0
DA:223,0
DA:224,0
DA:225,0
DA:226,0
DA:227,0
DA:228,0
DA:229,0
DA:230,0
DA:231,0
DA:232,0
DA:235,0
DA:236,0
DA:237,0
DA:238,0
DA:239,0
DA:240,0
DA:241,0
DA:242,0
DA:243,0
DA:244,0
DA:245,0
DA:246,0
DA:247,0
DA:249,0
DA:252,0
DA:253,0
DA:255,0
DA:256,0
DA:261,0
DA:262,0
DA:263,0
DA:264,0
DA:265,0
DA:266,0
DA:267,0
DA:268,0
DA:269,0
DA:270,0
DA:271,0
DA:272,0
DA:275,0
DA:276,0
DA:277,0
DA:278,0
DA:280,0
DA:283,0
DA:284,0
DA:285,0
DA:287,0
DA:289,0
DA:291,0
DA:293,0
DA:294,0
DA:297,0
DA:298,0
DA:299,0
DA:300,0
DA:302,0
DA:305,0
DA:306,0
DA:307,0
DA:309,0
DA:311,0
DA:313,0
DA:315,0
DA:316,0
DA:320,0
DA:321,0
DA:322,0
DA:326,0
DA:327,0
DA:328,0
DA:332,0
DA:333,0
DA:334,0
DA:338,0
DA:339,0
DA:340,0
DA:344,0
DA:345,0
DA:346,0
DA:349,0
DA:350,0
DA:351,0
DA:353,0
DA:354,0
DA:355,0
DA:356,0
DA:357,0
DA:358,0
DA:359,0
DA:360,0
DA:361,0
DA:362,0
DA:363,0
DA:364,0
DA:366,0
DA:369,0
DA:370,0
DA:371,0
DA:387,0
DA:388,0
DA:389,0
DA:390,0
DA:391,0
DA:395,0
DA:396,0
DA:397,0
DA:398,0
DA:401,0
DA:402,0
DA:403,0
DA:404,0
DA:405,0
DA:406,0
DA:407,0
DA:408,0
DA:409,0
DA:410,0
DA:411,0
DA:414,0
DA:415,0
DA:416,0
DA:417,0
DA:418,0
DA:419,0
DA:420,0
DA:421,0
DA:422,0
DA:423,0
DA:424,0
DA:425,0
DA:428,0
DA:429,0
DA:430,0
DA:431,0
DA:432,0
DA:433,0
DA:434,0
DA:435,0
DA:436,0
DA:437,0
DA:438,0
DA:439,0
DA:443,0
DA:444,0
DA:445,0
DA:448,0
DA:449,0
DA:450,0
DA:454,0
DA:455,0
DA:456,0
DA:468,0
DA:469,0
DA:470,0
DA:471,0
DA:472,0
DA:476,0
DA:477,0
DA:478,0
DA:479,0
DA:482,0
DA:483,0
DA:484,0
DA:485,0
DA:486,0
DA:487,0
DA:488,0
DA:489,0
DA:490,0
DA:491,0
DA:494,0
DA:495,0
DA:496,0
DA:497,0
DA:498,0
DA:499,0
DA:500,0
DA:501,0
DA:502,0
DA:503,0
DA:504,0
DA:507,0
DA:508,0
DA:509,0
DA:510,0
DA:511,0
DA:512,0
DA:513,0
DA:514,0
DA:515,0
DA:516,0
DA:517,0
DA:518,0
DA:521,0
DA:522,0
DA:523,0
DA:524,0
DA:525,0
DA:526,0
DA:527,0
DA:528,0
DA:529,0
DA:530,0
DA:534,0
DA:535,0
DA:536,0
DA:539,0
DA:540,0
DA:541,0
DA:545,0
DA:546,0
DA:547,0
DA:559,0
DA:560,0
DA:561,0
DA:562,0
DA:563,0
DA:567,0
DA:568,0
DA:569,0
DA:570,0
DA:573,0
DA:574,0
DA:575,0
DA:576,0
DA:577,0
DA:578,0
DA:579,0
DA:580,0
DA:581,0
DA:582,0
DA:585,0
DA:586,0
DA:587,0
DA:588,0
DA:589,0
DA:590,0
DA:591,0
DA:592,0
DA:593,0
DA:594,0
DA:595,0
DA:598,0
DA:599,0
DA:600,0
DA:601,0
DA:602,0
DA:603,0
DA:605,0
DA:608,0
DA:609,0
DA:610,0
DA:611,0
DA:612,0
DA:616,0
DA:617,0
DA:618,0
DA:621,0
DA:622,0
DA:623,0
DA:627,0
DA:628,0
DA:629,0
DA:641,0
DA:642,0
DA:643,0
DA:644,0
DA:645,0
DA:649,0
DA:650,0
DA:651,0
DA:652,0
DA:655,0
DA:656,0
DA:657,0
DA:658,0
DA:661,0
DA:662,0
DA:663,0
DA:664,0
DA:667,0
DA:668,0
DA:669,0
DA:670,0
DA:671,0
DA:672,0
DA:673,0
DA:674,0
DA:675,0
DA:676,0
DA:679,0
DA:680,0
DA:681,0
DA:682,0
DA:683,0
DA:686,0
DA:687,0
DA:688,0
DA:689,0
DA:692,0
DA:693,0
DA:694,0
DA:695,0
DA:699,0
DA:700,0
DA:701,0
DA:704,0
DA:705,0
DA:706,0
DA:717,0
DA:718,0
DA:719,0
DA:720,0
DA:721,0
DA:722,0
DA:725,0
DA:726,0
DA:727,0
DA:728,0
DA:731,0
DA:732,0
DA:733,0
DA:735,0
DA:736,0
DA:737,0
DA:744,0
DA:745,0
DA:746,0
DA:747,0
DA:750,0
DA:751,0
DA:752,0
DA:754,0
DA:755,0
DA:756,0
DA:757,0
DA:760,0
DA:761,0
DA:762,0
DA:763,0
DA:765,0
DA:767,0
DA:768,0
DA:769,0
DA:776,0
DA:777,0
DA:778,0
DA:779,0
DA:780,0
DA:783,0
DA:784,0
DA:785,0
DA:787,0
DA:788,0
DA:789,0
DA:792,0
DA:793,0
DA:794,0
DA:796,0
DA:797,0
DA:798,0
DA:801,0
DA:802,0
DA:803,0
DA:805,0
DA:806,0
DA:809,0
DA:810,0
DA:811,0
DA:813,0
DA:814,0
DA:817,0
DA:818,0
DA:819,0
DA:821,0
DA:822,0
DA:825,0
DA:826,0
DA:827,0
DA:828,0
DA:830,0
DA:831,0
DA:834,0
DA:835,0
DA:836,0
DA:838,0
DA:839,0
DA:842,0
DA:843,0
DA:844,0
DA:846,0
DA:847,0
DA:850,0
DA:851,0
DA:852,0
DA:854,0
DA:855,0
DA:858,0
DA:859,0
DA:860,0
DA:862,0
DA:863,0
DA:866,0
DA:867,0
DA:868,0
DA:870,0
DA:871,0
DA:874,0
DA:875,0
DA:876,0
DA:877,0
DA:879,0
DA:880,0
DA:887,0
DA:888,0
DA:890,0
DA:892,0
DA:893,0
DA:896,0
DA:897,0
DA:899,0
DA:901,0
DA:902,0
DA:905,0
DA:906,0
DA:909,0
DA:910,0
DA:912,0
DA:913,0
DA:916,0
DA:917,0
DA:918,0
DA:919,0
DA:922,0
DA:923,0
DA:925,0
DA:926,0
DA:928,0
DA:929,0
DA:936,0
DA:937,0
DA:939,0
DA:941,0
DA:942,0
DA:945,0
DA:946,0
DA:948,0
DA:950,0
DA:951,0
DA:954,0
DA:955,0
DA:959,0
DA:961,0
DA:962,0
DA:965,0
DA:966,0
DA:967,0
DA:968,0
DA:971,0
DA:972,0
DA:975,0
DA:976,0
DA:977,0
DA:979,0
DA:981,0
DA:982,0
DA:989,0
DA:990,0
DA:992,0
DA:994,0
DA:995,0
DA:998,0
DA:999,0
DA:1002,0
DA:1004,0
DA:1005,0
DA:1008,0
DA:1009,0
DA:1011,0
DA:1013,0
DA:1014,0
DA:1017,0
DA:1018,0
DA:1022,0
DA:1023,0
DA:1024,0
DA:1028,0
DA:1029,0
DA:1031,0
DA:1032,0
DA:1033,0
DA:1040,0
DA:1041,0
DA:1042,0
DA:1044,0
DA:1045,0
DA:1048,0
DA:1049,0
DA:1050,0
DA:1052,0
DA:1053,0
DA:1056,0
DA:1057,0
DA:1058,0
DA:1060,0
DA:1061,0
DA:1064,0
DA:1065,0
DA:1066,0
DA:1068,0
DA:1069,0
DA:1072,0
DA:1073,0
DA:1074,0
DA:1076,0
DA:1077,0
DA:1080,0
DA:1081,0
DA:1084,0
DA:1085,0
DA:1086,0
DA:1087,0
DA:1088,0
DA:1089,0
DA:1091,0
DA:1092,0
DA:1093,0
DA:1094,0
DA:1096,0
DA:1097,0
BRF:0
BRH:0
LF:625
LH:0
end_of_record
SF:/home/noah/src/probar/crates/probar/src/assertion/mod.rs
FN:38,_RNvMNtCsbqoqex1KQlH_6probar9assertionNtB2_15AssertionResult4pass
FN:92,_RNvMs_NtCsbqoqex1KQlH_6probar9assertionNtB4_9Assertion7is_true
FN:72,_RNvMs_NtCsbqoqex1KQlH_6probar9assertionNtB4_9Assertion8contains
FN:82,_RNvMs_NtCsbqoqex1KQlH_6probar9assertionNtB4_9Assertion8in_range
FN:102,_RNvMs_NtCsbqoqex1KQlH_6probar9assertionNtB4_9Assertion8is_false
FN:152,_RNvMs_NtCsbqoqex1KQlH_6probar9assertionNtB4_9Assertion9approx_eq
FN:47,_RINvMNtCsbqoqex1KQlH_6probar9assertionNtB3_15AssertionResult4failNtNtCs6juDKDKeRkf_5alloc6string6StringEB5_
FN:47,_RINvMNtCsbqoqex1KQlH_6probar9assertionNtB3_15AssertionResult4failReEB5_
FN:162,_RINvMs_NtCsbqoqex1KQlH_6probar9assertionNtB5_9Assertion10has_lengthlEB7_
FN:132,_RINvMs_NtCsbqoqex1KQlH_6probar9assertionNtB5_9Assertion5is_oklReEB7_
FN:62,_RINvMs_NtCsbqoqex1KQlH_6probar9assertionNtB5_9Assertion6equalslEB7_
FN:142,_RINvMs_NtCsbqoqex1KQlH_6probar9assertionNtB5_9Assertion6is_errlReEB7_
FN:122,_RINvMs_NtCsbqoqex1KQlH_6probar9assertionNtB5_9Assertion7is_nonelEB7_
FN:112,_RINvMs_NtCsbqoqex1KQlH_6probar9assertionNtB5_9Assertion7is_somelEB7_
FN:162,_RINvMs_NtCs4eUmXem5O3q_6probar9assertionNtB5_9Assertion10has_lengthpEB7_
FN:132,_RINvMs_NtCs4eUmXem5O3q_6probar9assertionNtB5_9Assertion5is_okppEB7_
FN:62,_RINvMs_NtCs4eUmXem5O3q_6probar9assertionNtB5_9Assertion6equalspEB7_
FN:142,_RINvMs_NtCs4eUmXem5O3q_6probar9assertionNtB5_9Assertion6is_errppEB7_
FN:122,_RINvMs_NtCs4eUmXem5O3q_6probar9assertionNtB5_9Assertion7is_nonepEB7_
FN:112,_RINvMs_NtCs4eUmXem5O3q_6probar9assertionNtB5_9Assertion7is_somepEB7_
FN:47,_RINvMNtCs4eUmXem5O3q_6probar9assertionNtB3_15AssertionResult4failNtNtCs6juDKDKeRkf_5alloc6string6StringEB5_
FN:47,_RINvMNtCs4eUmXem5O3q_6probar9assertionNtB3_15AssertionResult4failReEB5_
FN:38,_RNvMNtCs4eUmXem5O3q_6probar9assertionNtB2_15AssertionResult4pass
FN:92,_RNvMs_NtCs4eUmXem5O3q_6probar9assertionNtB4_9Assertion7is_true
FN:72,_RNvMs_NtCs4eUmXem5O3q_6probar9assertionNtB4_9Assertion8contains
FN:82,_RNvMs_NtCs4eUmXem5O3q_6probar9assertionNtB4_9Assertion8in_range
FN:102,_RNvMs_NtCs4eUmXem5O3q_6probar9assertionNtB4_9Assertion8is_false
FN:152,_RNvMs_NtCs4eUmXem5O3q_6probar9assertionNtB4_9Assertion9approx_eq
FNDA:0,_RNvMNtCsbqoqex1KQlH_6probar9assertionNtB2_15AssertionResult4pass
FNDA:0,_RNvMs_NtCsbqoqex1KQlH_6probar9assertionNtB4_9Assertion7is_true
FNDA:0,_RNvMs_NtCsbqoqex1KQlH_6probar9assertionNtB4_9Assertion8contains
FNDA:0,_RNvMs_NtCsbqoqex1KQlH_6probar9assertionNtB4_9Assertion8in_range
FNDA:0,_RNvMs_NtCsbqoqex1KQlH_6probar9assertionNtB4_9Assertion8is_false
FNDA:0,_RNvMs_NtCsbqoqex1KQlH_6probar9assertionNtB4_9Assertion9approx_eq
FNDA:0,_RINvMNtCsbqoqex1KQlH_6probar9assertionNtB3_15AssertionResult4failNtNtCs6juDKDKeRkf_5alloc6string6StringEB5_
FNDA:0,_RINvMNtCsbqoqex1KQlH_6probar9assertionNtB3_15AssertionResult4failReEB5_
FNDA:0,_RINvMs_NtCsbqoqex1KQlH_6probar9assertionNtB5_9Assertion10has_lengthlEB7_
FNDA:0,_RINvMs_NtCsbqoqex1KQlH_6probar9assertionNtB5_9Assertion5is_oklReEB7_
FNDA:0,_RINvMs_NtCsbqoqex1KQlH_6probar9assertionNtB5_9Assertion6equalslEB7_
FNDA:0,_RINvMs_NtCsbqoqex1KQlH_6probar9assertionNtB5_9Assertion6is_errlReEB7_
FNDA:0,_RINvMs_NtCsbqoqex1KQlH_6probar9assertionNtB5_9Assertion7is_nonelEB7_
FNDA:0,_RINvMs_NtCsbqoqex1KQlH_6probar9assertionNtB5_9Assertion7is_somelEB7_
FNDA:0,_RINvMs_NtCs4eUmXem5O3q_6probar9assertionNtB5_9Assertion10has_lengthpEB7_
FNDA:0,_RINvMs_NtCs4eUmXem5O3q_6probar9assertionNtB5_9Assertion5is_okppEB7_
FNDA:0,_RINvMs_NtCs4eUmXem5O3q_6probar9assertionNtB5_9Assertion6equalspEB7_
FNDA:0,_RINvMs_NtCs4eUmXem5O3q_6probar9assertionNtB5_9Assertion6is_errppEB7_
FNDA:0,_RINvMs_NtCs4eUmXem5O3q_6probar9assertionNtB5_9Assertion7is_nonepEB7_
FNDA:0,_RINvMs_NtCs4eUmXem5O3q_6probar9assertionNtB5_9Assertion7is_somepEB7_
FNDA:0,_RINvMNtCs4eUmXem5O3q_6probar9assertionNtB3_15AssertionResult4failNtNtCs6juDKDKeRkf_5alloc6string6StringEB5_
FNDA:0,_RINvMNtCs4eUmXem5O3q_6probar9assertionNtB3_15AssertionResult4failReEB5_
FNDA:0,_RNvMNtCs4eUmXem5O3q_6probar9assertionNtB2_15AssertionResult4pass
FNDA:0,_RNvMs_NtCs4eUmXem5O3q_6probar9assertionNtB4_9Assertion7is_true
FNDA:0,_RNvMs_NtCs4eUmXem5O3q_6probar9assertionNtB4_9Assertion8contains
FNDA:0,_RNvMs_NtCs4eUmXem5O3q_6probar9assertionNtB4_9Assertion8in_range
FNDA:0,_RNvMs_NtCs4eUmXem5O3q_6probar9assertionNtB4_9Assertion8is_false
FNDA:0,_RNvMs_NtCs4eUmXem5O3q_6probar9assertionNtB4_9Assertion9approx_eq
FNF:13
FNH:0
DA:38,0
DA:39,0
DA:40,0
DA:41,0
DA:42,0
DA:43,0
DA:47,0
DA:48,0
DA:49,0
DA:50,0
DA:51,0
DA:52,0
DA:62,0
DA:63,0
DA:64,0
DA:66,0
DA:68,0
DA:72,0
DA:73,0
DA:74,0
DA:76,0
DA:78,0
DA:82,0
DA:83,0
DA:84,0
DA:86,0
DA:88,0
DA:92,0
DA:93,0
DA:94,0
DA:96,0
DA:98,0
DA:102,0
DA:103,0
DA:104,0
DA:106,0
DA:108,0
DA:112,0
DA:113,0
DA:114,0
DA:116,0
DA:118,0
DA:122,0
DA:123,0
DA:124,0
DA:126,0
DA:128,0
DA:132,0
DA:133,0
DA:134,0
DA:136,0
DA:138,0
DA:142,0
DA:143,0
DA:144,0
DA:146,0
DA:148,0
DA:152,0
DA:153,0
DA:154,0
DA:156,0
DA:158,0
DA:162,0
DA:163,0
DA:164,0
DA:166,0
DA:167,0
DA:168,0
DA:171,0
BRF:0
BRH:0
LF:69
LH:0
end_of_record
SF:/home/noah/src/probar/crates/probar/src/assertion/retry.rs
FN:579,_RNvNtNtNtNtCsbqoqex1KQlH_6probar9assertion5retry5tests11retry_errors_29test_display_with_description
FN:566,_RNvNtNtNtNtCsbqoqex1KQlH_6probar9assertion5retry5tests11retry_errors_32test_display_without_description
FN:167,_RINvMs1_NtNtCsbqoqex1KQlH_6probar9assertion5retryINtB6_14RetryAssertionNCNvNtNtB6_5tests15retry_assertions_10test_debug0E16with_descriptionReEBa_
FN:167,_RINvMs1_NtNtCsbqoqex1KQlH_6probar9assertion5retryINtB6_14RetryAssertionNCNvNtNtB6_5tests15retry_assertions_21test_with_description0E16with_descriptionReEBa_
FN:354,_RINvNtNtCsbqoqex1KQlH_6probar9assertion5retry10retry_nonelNCNvNtNtB2_5tests16helper_functionss_20test_retry_none_fail0EB6_
FN:354,_RINvNtNtCsbqoqex1KQlH_6probar9assertion5retry10retry_nonelNCNvNtNtB2_5tests16helper_functionss_20test_retry_none_pass0EB6_
FN:341,_RINvNtNtCsbqoqex1KQlH_6probar9assertion5retry10retry_somelNCNvNtNtB2_5tests16helper_functionss_20test_retry_some_fail0EB6_
FN:341,_RINvNtNtCsbqoqex1KQlH_6probar9assertion5retry10retry_somelNCNvNtNtB2_5tests16helper_functionss_20test_retry_some_pass0EB6_
FN:326,_RINvNtNtCsbqoqex1KQlH_6probar9assertion5retry10retry_trueNCNvNtNtB2_5tests16helper_functionss_20test_retry_true_fail0ReEB6_
FN:326,_RINvNtNtCsbqoqex1KQlH_6probar9assertion5retry10retry_trueNCNvNtNtB2_5tests16helper_functionss_20test_retry_true_pass0ReEB6_
FN:367,_RINvNtNtCsbqoqex1KQlH_6probar9assertion5retry14retry_containsNCNvNtNtB2_5tests16helper_functionss_24test_retry_contains_fail0ReEB6_
FN:367,_RINvNtNtCsbqoqex1KQlH_6probar9assertion5retry14retry_containsNCNvNtNtB2_5tests16helper_functionss_24test_retry_contains_pass0ReEB6_
FN:310,_RINvNtNtCsbqoqex1KQlH_6probar9assertion5retry8retry_eqlNCNvNtNtB2_5tests16helper_functionss_18test_retry_eq_fail0EB6_
FN:310,_RINvNtNtCsbqoqex1KQlH_6probar9assertion5retry8retry_eqlNCNvNtNtB2_5tests16helper_functionss_18test_retry_eq_pass0EB6_
FN:357,_RNCINvNtNtCsbqoqex1KQlH_6probar9assertion5retry10retry_nonelNCNvNtNtB4_5tests16helper_functionss_20test_retry_none_fail0E0B8_
FN:357,_RNCINvNtNtCsbqoqex1KQlH_6probar9assertion5retry10retry_nonelNCNvNtNtB4_5tests16helper_functionss_20test_retry_none_pass0E0B8_
FN:344,_RNCINvNtNtCsbqoqex1KQlH_6probar9assertion5retry10retry_somelNCNvNtNtB4_5tests16helper_functionss_20test_retry_some_fail0E0B8_
FN:344,_RNCINvNtNtCsbqoqex1KQlH_6probar9assertion5retry10retry_somelNCNvNtNtB4_5tests16helper_functionss_20test_retry_some_pass0E0B8_
FN:331,_RNCINvNtNtCsbqoqex1KQlH_6probar9assertion5retry10retry_trueNCNvNtNtB4_5tests16helper_functionss_20test_retry_true_fail0ReE0B8_
FN:331,_RNCINvNtNtCsbqoqex1KQlH_6probar9assertion5retry10retry_trueNCNvNtNtB4_5tests16helper_functionss_20test_retry_true_pass0ReE0B8_
FN:372,_RNCINvNtNtCsbqoqex1KQlH_6probar9assertion5retry14retry_containsNCNvNtNtB4_5tests16helper_functionss_24test_retry_contains_fail0ReE0B8_
FN:372,_RNCINvNtNtCsbqoqex1KQlH_6probar9assertion5retry14retry_containsNCNvNtNtB4_5tests16helper_functionss_24test_retry_contains_pass0ReE0B8_
FN:315,_RNCINvNtNtCsbqoqex1KQlH_6probar9assertion5retry8retry_eqlNCNvNtNtB4_5tests16helper_functionss_18test_retry_eq_fail0E0B8_
FN:315,_RNCINvNtNtCsbqoqex1KQlH_6probar9assertion5retry8retry_eqlNCNvNtNtB4_5tests16helper_functionss_18test_retry_eq_pass0E0B8_
FN:160,_RNvMs1_NtNtCsbqoqex1KQlH_6probar9assertion5retryINtB5_14RetryAssertionNCINvB5_10retry_nonelNCNvNtNtB5_5tests16helper_functionss_20test_retry_none_fail0E0E16with_max_retriesB9_
FN:136,_RNvMs1_NtNtCsbqoqex1KQlH_6probar9assertion5retryINtB5_14RetryAssertionNCINvB5_10retry_nonelNCNvNtNtB5_5tests16helper_functionss_20test_retry_none_fail0E0E3newB9_
FN:191,_RNvMs1_NtNtCsbqoqex1KQlH_6probar9assertion5retryINtB5_14RetryAssertionNCINvB5_10retry_nonelNCNvNtNtB5_5tests16helper_functionss_20test_retry_none_fail0E0E6verifyB9_
FN:160,_RNvMs1_NtNtCsbqoqex1KQlH_6probar9assertion5retryINtB5_14RetryAssertionNCINvB5_10retry_nonelNCNvNtNtB5_5tests16helper_functionss_20test_retry_none_pass0E0E16with_max_retriesB9_
FN:136,_RNvMs1_NtNtCsbqoqex1KQlH_6probar9assertion5retryINtB5_14RetryAssertionNCINvB5_10retry_nonelNCNvNtNtB5_5tests16helper_functionss_20test_retry_none_pass0E0E3newB9_
FN:191,_RNvMs1_NtNtCsbqoqex1KQlH_6probar9assertion5retryINtB5_14RetryAssertionNCINvB5_10retry_nonelNCNvNtNtB5_5tests16helper_functionss_20test_retry_none_pass0E0E6verifyB9_
FN:160,_RNvMs1_NtNtCsbqoqex1KQlH_6probar9assertion5retryINtB5_14RetryAssertionNCINvB5_10retry_somelNCNvNtNtB5_5tests16helper_functionss_20test_retry_some_fail0E0E16with_max_retriesB9_
FN:136,_RNvMs1_NtNtCsbqoqex1KQlH_6probar9assertion5retryINtB5_14RetryAssertionNCINvB5_10retry_somelNCNvNtNtB5_5tests16helper_functionss_20test_retry_some_fail0E0E3newB9_
FN:191,_RNvMs1_NtNtCsbqoqex1KQlH_6probar9assertion5retryINtB5_14RetryAssertionNCINvB5_10retry_somelNCNvNtNtB5_5tests16helper_functionss_20test_retry_some_fail0E0E6verifyB9_
FN:160,_RNvMs1_NtNtCsbqoqex1KQlH_6probar9assertion5retryINtB5_14RetryAssertionNCINvB5_10retry_somelNCNvNtNtB5_5tests16helper_functionss_20test_retry_some_pass0E0E16with_max_retriesB9_
FN:136,_RNvMs1_NtNtCsbqoqex1KQlH_6probar9assertion5retryINtB5_14RetryAssertionNCINvB5_10retry_somelNCNvNtNtB5_5tests16helper_functionss_20test_retry_some_pass0E0E3newB9_
FN:191,_RNvMs1_NtNtCsbqoqex1KQlH_6probar9assertion5retryINtB5_14RetryAssertionNCINvB5_10retry_somelNCNvNtNtB5_5tests16helper_functionss_20test_retry_some_pass0E0E6verifyB9_
FN:160,_RNvMs1_NtNtCsbqoqex1KQlH_6probar9assertion5retryINtB5_14RetryAssertionNCINvB5_10retry_trueNCNvNtNtB5_5tests16helper_functionss_20test_retry_true_fail0ReE0E16with_max_retriesB9_
FN:136,_RNvMs1_NtNtCsbqoqex1KQlH_6probar9assertion5retryINtB5_14RetryAssertionNCINvB5_10retry_trueNCNvNtNtB5_5tests16helper_functionss_20test_retry_true_fail0ReE0E3newB9_
FN:191,_RNvMs1_NtNtCsbqoqex1KQlH_6probar9assertion5retryINtB5_14RetryAssertionNCINvB5_10retry_trueNCNvNtNtB5_5tests16helper_functionss_20test_retry_true_fail0ReE0E6verifyB9_
FN:160,_RNvMs1_NtNtCsbqoqex1KQlH_6probar9assertion5retryINtB5_14RetryAssertionNCINvB5_10retry_trueNCNvNtNtB5_5tests16helper_functionss_20test_retry_true_pass0ReE0E16with_max_retriesB9_
FN:136,_RNvMs1_NtNtCsbqoqex1KQlH_6probar9assertion5retryINtB5_14RetryAssertionNCINvB5_10retry_trueNCNvNtNtB5_5tests16helper_functionss_20test_retry_true_pass0ReE0E3newB9_
FN:191,_RNvMs1_NtNtCsbqoqex1KQlH_6probar9assertion5retryINtB5_14RetryAssertionNCINvB5_10retry_trueNCNvNtNtB5_5tests16helper_functionss_20test_retry_true_pass0ReE0E6verifyB9_
FN:160,_RNvMs1_NtNtCsbqoqex1KQlH_6probar9assertion5retryINtB5_14RetryAssertionNCINvB5_14retry_containsNCNvNtNtB5_5tests16helper_functionss_24test_retry_contains_fail0ReE0E16with_max_retriesB9_
FN:136,_RNvMs1_NtNtCsbqoqex1KQlH_6probar9assertion5retryINtB5_14RetryAssertionNCINvB5_14retry_containsNCNvNtNtB5_5tests16helper_functionss_24test_retry_contains_fail0ReE0E3newB9_
FN:191,_RNvMs1_NtNtCsbqoqex1KQlH_6probar9assertion5retryINtB5_14RetryAssertionNCINvB5_14retry_containsNCNvNtNtB5_5tests16helper_functionss_24test_retry_contains_fail0ReE0E6verifyB9_
FN:160,_RNvMs1_NtNtCsbqoqex1KQlH_6probar9assertion5retryINtB5_14RetryAssertionNCINvB5_14retry_containsNCNvNtNtB5_5tests16helper_functionss_24test_retry_contains_pass0ReE0E16with_max_retriesB9_
FN:136,_RNvMs1_NtNtCsbqoqex1KQlH_6probar9assertion5retryINtB5_14RetryAssertionNCINvB5_14retry_containsNCNvNtNtB5_5tests16helper_functionss_24test_retry_contains_pass0ReE0E3newB9_
FN:191,_RNvMs1_NtNtCsbqoqex1KQlH_6probar9assertion5retryINtB5_14RetryAssertionNCINvB5_14retry_containsNCNvNtNtB5_5tests16helper_functionss_24test_retry_contains_pass0ReE0E6verifyB9_
FN:160,_RNvMs1_NtNtCsbqoqex1KQlH_6probar9assertion5retryINtB5_14RetryAssertionNCINvB5_8retry_eqlNCNvNtNtB5_5tests16helper_functionss_18test_retry_eq_fail0E0E16with_max_retriesB9_
FN:136,_RNvMs1_NtNtCsbqoqex1KQlH_6probar9assertion5retryINtB5_14RetryAssertionNCINvB5_8retry_eqlNCNvNtNtB5_5tests16helper_functionss_18test_retry_eq_fail0E0E3newB9_
FN:191,_RNvMs1_NtNtCsbqoqex1KQlH_6probar9assertion5retryINtB5_14RetryAssertionNCINvB5_8retry_eqlNCNvNtNtB5_5tests16helper_functionss_18test_retry_eq_fail0E0E6verifyB9_
FN:160,_RNvMs1_NtNtCsbqoqex1KQlH_6probar9assertion5retryINtB5_14RetryAssertionNCINvB5_8retry_eqlNCNvNtNtB5_5tests16helper_functionss_18test_retry_eq_pass0E0E16with_max_retriesB9_
FN:136,_RNvMs1_NtNtCsbqoqex1KQlH_6probar9assertion5retryINtB5_14RetryAssertionNCINvB5_8retry_eqlNCNvNtNtB5_5tests16helper_functionss_18test_retry_eq_pass0E0E3newB9_
FN:191,_RNvMs1_NtNtCsbqoqex1KQlH_6probar9assertion5retryINtB5_14RetryAssertionNCINvB5_8retry_eqlNCNvNtNtB5_5tests16helper_functionss_18test_retry_eq_pass0E0E6verifyB9_
FN:136,_RNvMs1_NtNtCsbqoqex1KQlH_6probar9assertion5retryINtB5_14RetryAssertionNCNvNtNtB5_5tests15retry_assertions_10test_debug0E3newB9_
FN:146,_RNvMs1_NtNtCsbqoqex1KQlH_6probar9assertion5retryINtB5_14RetryAssertionNCNvNtNtB5_5tests15retry_assertions_16test_max_retries0E12with_timeoutB9_
FN:160,_RNvMs1_NtNtCsbqoqex1KQlH_6probar9assertion5retryINtB5_14RetryAssertionNCNvNtNtB5_5tests15retry_assertions_16test_max_retries0E16with_max_retriesB9_
FN:136,_RNvMs1_NtNtCsbqoqex1KQlH_6probar9assertion5retryINtB5_14RetryAssertionNCNvNtNtB5_5tests15retry_assertions_16test_max_retries0E3newB9_
FN:191,_RNvMs1_NtNtCsbqoqex1KQlH_6probar9assertion5retryINtB5_14RetryAssertionNCNvNtNtB5_5tests15retry_assertions_16test_max_retries0E6verifyB9_
FN:174,_RNvMs1_NtNtCsbqoqex1KQlH_6probar9assertion5retryINtB5_14RetryAssertionNCNvNtNtB5_5tests15retry_assertions_16test_with_config0E11with_configB9_
FN:136,_RNvMs1_NtNtCsbqoqex1KQlH_6probar9assertion5retryINtB5_14RetryAssertionNCNvNtNtB5_5tests15retry_assertions_16test_with_config0E3newB9_
FN:181,_RNvMs1_NtNtCsbqoqex1KQlH_6probar9assertion5retryINtB5_14RetryAssertionNCNvNtNtB5_5tests15retry_assertions_16test_with_config0E6configB9_
FN:146,_RNvMs1_NtNtCsbqoqex1KQlH_6probar9assertion5retryINtB5_14RetryAssertionNCNvNtNtB5_5tests15retry_assertions_18test_eventual_pass0E12with_timeoutB9_
FN:153,_RNvMs1_NtNtCsbqoqex1KQlH_6probar9assertion5retryINtB5_14RetryAssertionNCNvNtNtB5_5tests15retry_assertions_18test_eventual_pass0E18with_poll_intervalB9_
FN:136,_RNvMs1_NtNtCsbqoqex1KQlH_6probar9assertion5retryINtB5_14RetryAssertionNCNvNtNtB5_5tests15retry_assertions_18test_eventual_pass0E3newB9_
FN:191,_RNvMs1_NtNtCsbqoqex1KQlH_6probar9assertion5retryINtB5_14RetryAssertionNCNvNtNtB5_5tests15retry_assertions_18test_eventual_pass0E6verifyB9_
FN:136,_RNvMs1_NtNtCsbqoqex1KQlH_6probar9assertion5retryINtB5_14RetryAssertionNCNvNtNtB5_5tests15retry_assertions_19test_immediate_pass0E3newB9_
FN:191,_RNvMs1_NtNtCsbqoqex1KQlH_6probar9assertion5retryINtB5_14RetryAssertionNCNvNtNtB5_5tests15retry_assertions_19test_immediate_pass0E6verifyB9_
FN:241,_RNvMs1_NtNtCsbqoqex1KQlH_6probar9assertion5retryINtB5_14RetryAssertionNCNvNtNtB5_5tests15retry_assertions_21test_verify_once_fail0E11verify_onceB9_
FN:136,_RNvMs1_NtNtCsbqoqex1KQlH_6probar9assertion5retryINtB5_14RetryAssertionNCNvNtNtB5_5tests15retry_assertions_21test_verify_once_fail0E3newB9_
FN:241,_RNvMs1_NtNtCsbqoqex1KQlH_6probar9assertion5retryINtB5_14RetryAssertionNCNvNtNtB5_5tests15retry_assertions_21test_verify_once_pass0E11verify_onceB9_
FN:136,_RNvMs1_NtNtCsbqoqex1KQlH_6probar9assertion5retryINtB5_14RetryAssertionNCNvNtNtB5_5tests15retry_assertions_21test_verify_once_pass0E3newB9_
FN:160,_RNvMs1_NtNtCsbqoqex1KQlH_6probar9assertion5retryINtB5_14RetryAssertionNCNvNtNtB5_5tests15retry_assertions_21test_with_description0E16with_max_retriesB9_
FN:136,_RNvMs1_NtNtCsbqoqex1KQlH_6probar9assertion5retryINtB5_14RetryAssertionNCNvNtNtB5_5tests15retry_assertions_21test_with_description0E3newB9_
FN:191,_RNvMs1_NtNtCsbqoqex1KQlH_6probar9assertion5retryINtB5_14RetryAssertionNCNvNtNtB5_5tests15retry_assertions_21test_with_description0E6verifyB9_
FN:146,_RNvMs1_NtNtCsbqoqex1KQlH_6probar9assertion5retryINtB5_14RetryAssertionNCNvNtNtB5_5tests15retry_assertions_32test_immediate_fail_with_timeout0E12with_timeoutB9_
FN:153,_RNvMs1_NtNtCsbqoqex1KQlH_6probar9assertion5retryINtB5_14RetryAssertionNCNvNtNtB5_5tests15retry_assertions_32test_immediate_fail_with_timeout0E18with_poll_intervalB9_
FN:136,_RNvMs1_NtNtCsbqoqex1KQlH_6probar9assertion5retryINtB5_14RetryAssertionNCNvNtNtB5_5tests15retry_assertions_32test_immediate_fail_with_timeout0E3newB9_
FN:191,_RNvMs1_NtNtCsbqoqex1KQlH_6probar9assertion5retryINtB5_14RetryAssertionNCNvNtNtB5_5tests15retry_assertions_32test_immediate_fail_with_timeout0E6verifyB9_
FN:258,_RNvXs2_NtNtCsbqoqex1KQlH_6probar9assertion5retryINtB5_14RetryAssertionNCNvNtNtB5_5tests15retry_assertions_10test_debug0ENtNtCs6RpC691fUBl_4core3fmt5Debug3fmtB9_
FN:507,_RNCNvNtNtNtNtCsbqoqex1KQlH_6probar9assertion5retry5tests15retry_assertions_16test_max_retries0Bb_
FN:487,_RNCNvNtNtNtNtCsbqoqex1KQlH_6probar9assertion5retry5tests15retry_assertions_18test_eventual_pass0Bb_
FN:546,_RNCNvNtNtNtNtCsbqoqex1KQlH_6probar9assertion5retry5tests15retry_assertions_21test_verify_once_fail0Bb_
FN:520,_RNCNvNtNtNtNtCsbqoqex1KQlH_6probar9assertion5retry5tests15retry_assertions_21test_with_description0Bb_
FN:471,_RNCNvNtNtNtNtCsbqoqex1KQlH_6probar9assertion5retry5tests15retry_assertions_32test_immediate_fail_with_timeout0Bb_
FN:406,_RNvNtNtNtNtCsbqoqex1KQlH_6probar9assertion5retry5tests22assertion_check_results_9test_fail
FN:399,_RNvNtNtNtNtCsbqoqex1KQlH_6probar9assertion5retry5tests22assertion_check_results_9test_pass
FN:417,_RNvNtNtNtNtCsbqoqex1KQlH_6probar9assertion5retry5tests12retry_configs_12test_default
FN:438,_RNvNtNtNtNtCsbqoqex1KQlH_6probar9assertion5retry5tests12retry_configs_21test_with_max_retries
FN:431,_RNvNtNtNtNtCsbqoqex1KQlH_6probar9assertion5retry5tests12retry_configs_23test_with_poll_interval
FN:425,_RNvNtNtNtNtCsbqoqex1KQlH_6probar9assertion5retry5tests12retry_configs_8test_new
FN:445,_RNvNtNtNtNtCsbqoqex1KQlH_6probar9assertion5retry5tests12retry_configs_9test_fast
FN:452,_RNvNtNtNtNtCsbqoqex1KQlH_6probar9assertion5retry5tests12retry_configs_9test_slow
FN:673,_RNvNtNtNtNtCsbqoqex1KQlH_6probar9assertion5retry5tests12retry_results_18test_result_fields
FN:662,_RNCNvNtNtNtNtCsbqoqex1KQlH_6probar9assertion5retry5tests16helper_functionss_24test_retry_contains_fail0Bb_
FN:655,_RNCNvNtNtNtNtCsbqoqex1KQlH_6probar9assertion5retry5tests16helper_functionss_24test_retry_contains_pass0Bb_
FN:554,_RNvNtNtNtNtCsbqoqex1KQlH_6probar9assertion5retry5tests15retry_assertions_10test_debug
FN:503,_RNvNtNtNtNtCsbqoqex1KQlH_6probar9assertion5retry5tests15retry_assertions_16test_max_retries
FN:531,_RNvNtNtNtNtCsbqoqex1KQlH_6probar9assertion5retry5tests15retry_assertions_16test_with_config
FN:483,_RNvNtNtNtNtCsbqoqex1KQlH_6probar9assertion5retry5tests15retry_assertions_18test_eventual_pass
FN:463,_RNvNtNtNtNtCsbqoqex1KQlH_6probar9assertion5retry5tests15retry_assertions_19test_immediate_pass
FN:545,_RNvNtNtNtNtCsbqoqex1KQlH_6probar9assertion5retry5tests15retry_assertions_21test_verify_once_fail
FN:539,_RNvNtNtNtNtCsbqoqex1KQlH_6probar9assertion5retry5tests15retry_assertions_21test_verify_once_pass
FN:519,_RNvNtNtNtNtCsbqoqex1KQlH_6probar9assertion5retry5tests15retry_assertions_21test_with_description
FN:470,_RNvNtNtNtNtCsbqoqex1KQlH_6probar9assertion5retry5tests15retry_assertions_32test_immediate_fail_with_timeout
FN:33,_RNvMNtNtCsbqoqex1KQlH_6probar9assertion5retryNtB2_20AssertionCheckResult7is_fail
FN:27,_RNvMNtNtCsbqoqex1KQlH_6probar9assertion5retryNtB2_20AssertionCheckResult7is_pass
FN:79,_RNvMs0_NtNtCsbqoqex1KQlH_6probar9assertion5retryNtB5_11RetryConfig16with_max_retries
FN:72,_RNvMs0_NtNtCsbqoqex1KQlH_6probar9assertion5retryNtB5_11RetryConfig18with_poll_interval
FN:62,_RNvMs0_NtNtCsbqoqex1KQlH_6probar9assertion5retryNtB5_11RetryConfig3new
FN:86,_RNvMs0_NtNtCsbqoqex1KQlH_6probar9assertion5retryNtB5_11RetryConfig4fast
FN:96,_RNvMs0_NtNtCsbqoqex1KQlH_6probar9assertion5retryNtB5_11RetryConfig4slow
FN:289,_RNvXs3_NtNtCsbqoqex1KQlH_6probar9assertion5retryNtB5_10RetryErrorNtNtCs6RpC691fUBl_4core3fmt7Display3fmt
FN:50,_RNvXs_NtNtCsbqoqex1KQlH_6probar9assertion5retryNtB4_11RetryConfigNtNtCs6RpC691fUBl_4core7default7Default7default
FN:603,_RNvNtNtNtNtCsbqoqex1KQlH_6probar9assertion5retry5tests16helper_functionss_18test_retry_eq_fail
FN:596,_RNvNtNtNtNtCsbqoqex1KQlH_6probar9assertion5retry5tests16helper_functionss_18test_retry_eq_pass
FN:647,_RNvNtNtNtNtCsbqoqex1KQlH_6probar9assertion5retry5tests16helper_functionss_20test_retry_none_fail
FN:640,_RNvNtNtNtNtCsbqoqex1KQlH_6probar9assertion5retry5tests16helper_functionss_20test_retry_none_pass
FN:633,_RNvNtNtNtNtCsbqoqex1KQlH_6probar9assertion5retry5tests16helper_functionss_20test_retry_some_fail
FN:626,_RNvNtNtNtNtCsbqoqex1KQlH_6probar9assertion5retry5tests16helper_functionss_20test_retry_some_pass
FN:618,_RNvNtNtNtNtCsbqoqex1KQlH_6probar9assertion5retry5tests16helper_functionss_20test_retry_true_fail
FN:611,_RNvNtNtNtNtCsbqoqex1KQlH_6probar9assertion5retry5tests16helper_functionss_20test_retry_true_pass
FN:661,_RNvNtNtNtNtCsbqoqex1KQlH_6probar9assertion5retry5tests16helper_functionss_24test_retry_contains_fail
FN:654,_RNvNtNtNtNtCsbqoqex1KQlH_6probar9assertion5retry5tests16helper_functionss_24test_retry_contains_pass
FN:167,_RINvMs1_NtNtCs4eUmXem5O3q_6probar9assertion5retryINtB6_14RetryAssertionpE16with_descriptionpEBa_
FN:354,_RINvNtNtCs4eUmXem5O3q_6probar9assertion5retry10retry_noneppEB6_
FN:341,_RINvNtNtCs4eUmXem5O3q_6probar9assertion5retry10retry_someppEB6_
FN:326,_RINvNtNtCs4eUmXem5O3q_6probar9assertion5retry10retry_trueppEB6_
FN:367,_RINvNtNtCs4eUmXem5O3q_6probar9assertion5retry14retry_containsppEB6_
FN:310,_RINvNtNtCs4eUmXem5O3q_6probar9assertion5retry8retry_eqppEB6_
FN:357,_RNCINvNtNtCs4eUmXem5O3q_6probar9assertion5retry10retry_noneppE0B8_
FN:344,_RNCINvNtNtCs4eUmXem5O3q_6probar9assertion5retry10retry_someppE0B8_
FN:331,_RNCINvNtNtCs4eUmXem5O3q_6probar9assertion5retry10retry_trueppE0B8_
FN:372,_RNCINvNtNtCs4eUmXem5O3q_6probar9assertion5retry14retry_containsppE0B8_
FN:315,_RNCINvNtNtCs4eUmXem5O3q_6probar9assertion5retry8retry_eqppE0B8_
FN:241,_RNvMs1_NtNtCs4eUmXem5O3q_6probar9assertion5retryINtB5_14RetryAssertionpE11verify_onceB9_
FN:174,_RNvMs1_NtNtCs4eUmXem5O3q_6probar9assertion5retryINtB5_14RetryAssertionpE11with_configB9_
FN:146,_RNvMs1_NtNtCs4eUmXem5O3q_6probar9assertion5retryINtB5_14RetryAssertionpE12with_timeoutB9_
FN:160,_RNvMs1_NtNtCs4eUmXem5O3q_6probar9assertion5retryINtB5_14RetryAssertionpE16with_max_retriesB9_
FN:153,_RNvMs1_NtNtCs4eUmXem5O3q_6probar9assertion5retryINtB5_14RetryAssertionpE18with_poll_intervalB9_
FN:136,_RNvMs1_NtNtCs4eUmXem5O3q_6probar9assertion5retryINtB5_14RetryAssertionpE3newB9_
FN:181,_RNvMs1_NtNtCs4eUmXem5O3q_6probar9assertion5retryINtB5_14RetryAssertionpE6configB9_
FN:191,_RNvMs1_NtNtCs4eUmXem5O3q_6probar9assertion5retryINtB5_14RetryAssertionpE6verifyB9_
FN:258,_RNvXININtNtCs4eUmXem5O3q_6probar9assertion5retrys2_0pEINtB5_14RetryAssertionpENtNtCs6RpC691fUBl_4core3fmt5Debug3fmtB9_
FN:33,_RNvMNtNtCs4eUmXem5O3q_6probar9assertion5retryNtB2_20AssertionCheckResult7is_fail
FN:27,_RNvMNtNtCs4eUmXem5O3q_6probar9assertion5retryNtB2_20AssertionCheckResult7is_pass
FN:79,_RNvMs0_NtNtCs4eUmXem5O3q_6probar9assertion5retryNtB5_11RetryConfig16with_max_retries
FN:72,_RNvMs0_NtNtCs4eUmXem5O3q_6probar9assertion5retryNtB5_11RetryConfig18with_poll_interval
FN:62,_RNvMs0_NtNtCs4eUmXem5O3q_6probar9assertion5retryNtB5_11RetryConfig3new
FN:86,_RNvMs0_NtNtCs4eUmXem5O3q_6probar9assertion5retryNtB5_11RetryConfig4fast
FN:96,_RNvMs0_NtNtCs4eUmXem5O3q_6probar9assertion5retryNtB5_11RetryConfig4slow
FN:289,_RNvXs3_NtNtCs4eUmXem5O3q_6probar9assertion5retryNtB5_10RetryErrorNtNtCs6RpC691fUBl_4core3fmt7Display3fmt
FN:50,_RNvXs_NtNtCs4eUmXem5O3q_6probar9assertion5retryNtB4_11RetryConfigNtNtCs6RpC691fUBl_4core7default7Default7default
FNDA:0,_RNvNtNtNtNtCsbqoqex1KQlH_6probar9assertion5retry5tests11retry_errors_29test_display_with_description
FNDA:0,_RNvNtNtNtNtCsbqoqex1KQlH_6probar9assertion5retry5tests11retry_errors_32test_display_without_description
FNDA:0,_RINvMs1_NtNtCsbqoqex1KQlH_6probar9assertion5retryINtB6_14RetryAssertionNCNvNtNtB6_5tests15retry_assertions_10test_debug0E16with_descriptionReEBa_
FNDA:0,_RINvMs1_NtNtCsbqoqex1KQlH_6probar9assertion5retryINtB6_14RetryAssertionNCNvNtNtB6_5tests15retry_assertions_21test_with_description0E16with_descriptionReEBa_
FNDA:0,_RINvNtNtCsbqoqex1KQlH_6probar9assertion5retry10retry_nonelNCNvNtNtB2_5tests16helper_functionss_20test_retry_none_fail0EB6_
FNDA:0,_RINvNtNtCsbqoqex1KQlH_6probar9assertion5retry10retry_nonelNCNvNtNtB2_5tests16helper_functionss_20test_retry_none_pass0EB6_
FNDA:0,_RINvNtNtCsbqoqex1KQlH_6probar9assertion5retry10retry_somelNCNvNtNtB2_5tests16helper_functionss_20test_retry_some_fail0EB6_
FNDA:0,_RINvNtNtCsbqoqex1KQlH_6probar9assertion5retry10retry_somelNCNvNtNtB2_5tests16helper_functionss_20test_retry_some_pass0EB6_
FNDA:0,_RINvNtNtCsbqoqex1KQlH_6probar9assertion5retry10retry_trueNCNvNtNtB2_5tests16helper_functionss_20test_retry_true_fail0ReEB6_
FNDA:0,_RINvNtNtCsbqoqex1KQlH_6probar9assertion5retry10retry_trueNCNvNtNtB2_5tests16helper_functionss_20test_retry_true_pass0ReEB6_
FNDA:0,_RINvNtNtCsbqoqex1KQlH_6probar9assertion5retry14retry_containsNCNvNtNtB2_5tests16helper_functionss_24test_retry_contains_fail0ReEB6_
FNDA:0,_RINvNtNtCsbqoqex1KQlH_6probar9assertion5retry14retry_containsNCNvNtNtB2_5tests16helper_functionss_24test_retry_contains_pass0ReEB6_
FNDA:0,_RINvNtNtCsbqoqex1KQlH_6probar9assertion5retry8retry_eqlNCNvNtNtB2_5tests16helper_functionss_18test_retry_eq_fail0EB6_
FNDA:0,_RINvNtNtCsbqoqex1KQlH_6probar9assertion5retry8retry_eqlNCNvNtNtB2_5tests16helper_functionss_18test_retry_eq_pass0EB6_
FNDA:0,_RNCINvNtNtCsbqoqex1KQlH_6probar9assertion5retry10retry_nonelNCNvNtNtB4_5tests16helper_functionss_20test_retry_none_fail0E0B8_
FNDA:0,_RNCINvNtNtCsbqoqex1KQlH_6probar9assertion5retry10retry_nonelNCNvNtNtB4_5tests16helper_functionss_20test_retry_none_pass0E0B8_
FNDA:0,_RNCINvNtNtCsbqoqex1KQlH_6probar9assertion5retry10retry_somelNCNvNtNtB4_5tests16helper_functionss_20test_retry_some_fail0E0B8_
FNDA:0,_RNCINvNtNtCsbqoqex1KQlH_6probar9assertion5retry10retry_somelNCNvNtNtB4_5tests16helper_functionss_20test_retry_some_pass0E0B8_
FNDA:0,_RNCINvNtNtCsbqoqex1KQlH_6probar9assertion5retry10retry_trueNCNvNtNtB4_5tests16helper_functionss_20test_retry_true_fail0ReE0B8_
FNDA:0,_RNCINvNtNtCsbqoqex1KQlH_6probar9assertion5retry10retry_trueNCNvNtNtB4_5tests16helper_functionss_20test_retry_true_pass0ReE0B8_
FNDA:0,_RNCINvNtNtCsbqoqex1KQlH_6probar9assertion5retry14retry_containsNCNvNtNtB4_5tests16helper_functionss_24test_retry_contains_fail0ReE0B8_
FNDA:0,_RNCINvNtNtCsbqoqex1KQlH_6probar9assertion5retry14retry_containsNCNvNtNtB4_5tests16helper_functionss_24test_retry_contains_pass0ReE0B8_
FNDA:0,_RNCINvNtNtCsbqoqex1KQlH_6probar9assertion5retry8retry_eqlNCNvNtNtB4_5tests16helper_functionss_18test_retry_eq_fail0E0B8_
FNDA:0,_RNCINvNtNtCsbqoqex1KQlH_6probar9assertion5retry8retry_eqlNCNvNtNtB4_5tests16helper_functionss_18test_retry_eq_pass0E0B8_
FNDA:0,_RNvMs1_NtNtCsbqoqex1KQlH_6probar9assertion5retryINtB5_14RetryAssertionNCINvB5_10retry_nonelNCNvNtNtB5_5tests16helper_functionss_20test_retry_none_fail0E0E16with_max_retriesB9_
FNDA:0,_RNvMs1_NtNtCsbqoqex1KQlH_6probar9assertion5retryINtB5_14RetryAssertionNCINvB5_10retry_nonelNCNvNtNtB5_5tests16helper_functionss_20test_retry_none_fail0E0E3newB9_
FNDA:0,_RNvMs1_NtNtCsbqoqex1KQlH_6probar9assertion5retryINtB5_14RetryAssertionNCINvB5_10retry_nonelNCNvNtNtB5_5tests16helper_functionss_20test_retry_none_fail0E0E6verifyB9_
FNDA:0,_RNvMs1_NtNtCsbqoqex1KQlH_6probar9assertion5retryINtB5_14RetryAssertionNCINvB5_10retry_nonelNCNvNtNtB5_5tests16helper_functionss_20test_retry_none_pass0E0E16with_max_retriesB9_
FNDA:0,_RNvMs1_NtNtCsbqoqex1KQlH_6probar9assertion5retryINtB5_14RetryAssertionNCINvB5_10retry_nonelNCNvNtNtB5_5tests16helper_functionss_20test_retry_none_pass0E0E3newB9_
FNDA:0,_RNvMs1_NtNtCsbqoqex1KQlH_6probar9assertion5retryINtB5_14RetryAssertionNCINvB5_10retry_nonelNCNvNtNtB5_5tests16helper_functionss_20test_retry_none_pass0E0E6verifyB9_
FNDA:0,_RNvMs1_NtNtCsbqoqex1KQlH_6probar9assertion5retryINtB5_14RetryAssertionNCINvB5_10retry_somelNCNvNtNtB5_5tests16helper_functionss_20test_retry_some_fail0E0E16with_max_retriesB9_
FNDA:0,_RNvMs1_NtNtCsbqoqex1KQlH_6probar9assertion5retryINtB5_14RetryAssertionNCINvB5_10retry_somelNCNvNtNtB5_5tests16helper_functionss_20test_retry_some_fail0E0E3newB9_
FNDA:0,_RNvMs1_NtNtCsbqoqex1KQlH_6probar9assertion5retryINtB5_14RetryAssertionNCINvB5_10retry_somelNCNvNtNtB5_5tests16helper_functionss_20test_retry_some_fail0E0E6verifyB9_
FNDA:0,_RNvMs1_NtNtCsbqoqex1KQlH_6probar9assertion5retryINtB5_14RetryAssertionNCINvB5_10retry_somelNCNvNtNtB5_5tests16helper_functionss_20test_retry_some_pass0E0E16with_max_retriesB9_
FNDA:0,_RNvMs1_NtNtCsbqoqex1KQlH_6probar9assertion5retryINtB5_14RetryAssertionNCINvB5_10retry_somelNCNvNtNtB5_5tests16helper_functionss_20test_retry_some_pass0E0E3newB9_
FNDA:0,_RNvMs1_NtNtCsbqoqex1KQlH_6probar9assertion5retryINtB5_14RetryAssertionNCINvB5_10retry_somelNCNvNtNtB5_5tests16helper_functionss_20test_retry_some_pass0E0E6verifyB9_
FNDA:0,_RNvMs1_NtNtCsbqoqex1KQlH_6probar9assertion5retryINtB5_14RetryAssertionNCINvB5_10retry_trueNCNvNtNtB5_5tests16helper_functionss_20test_retry_true_fail0ReE0E16with_max_retriesB9_
FNDA:0,_RNvMs1_NtNtCsbqoqex1KQlH_6probar9assertion5retryINtB5_14RetryAssertionNCINvB5_10retry_trueNCNvNtNtB5_5tests16helper_functionss_20test_retry_true_fail0ReE0E3newB9_
FNDA:0,_RNvMs1_NtNtCsbqoqex1KQlH_6probar9assertion5retryINtB5_14RetryAssertionNCINvB5_10retry_trueNCNvNtNtB5_5tests16helper_functionss_20test_retry_true_fail0ReE0E6verifyB9_
FNDA:0,_RNvMs1_NtNtCsbqoqex1KQlH_6probar9assertion5retryINtB5_14RetryAssertionNCINvB5_10retry_trueNCNvNtNtB5_5tests16helper_functionss_20test_retry_true_pass0ReE0E16with_max_retriesB9_
FNDA:0,_RNvMs1_NtNtCsbqoqex1KQlH_6probar9assertion5retryINtB5_14RetryAssertionNCINvB5_10retry_trueNCNvNtNtB5_5tests16helper_functionss_20test_retry_true_pass0ReE0E3newB9_
FNDA:0,_RNvMs1_NtNtCsbqoqex1KQlH_6probar9assertion5retryINtB5_14RetryAssertionNCINvB5_10retry_trueNCNvNtNtB5_5tests16helper_functionss_20test_retry_true_pass0ReE0E6verifyB9_
FNDA:0,_RNvMs1_NtNtCsbqoqex1KQlH_6probar9assertion5retryINtB5_14RetryAssertionNCINvB5_14retry_containsNCNvNtNtB5_5tests16helper_functionss_24test_retry_contains_fail0ReE0E16with_max_retriesB9_
FNDA:0,_RNvMs1_NtNtCsbqoqex1KQlH_6probar9assertion5retryINtB5_14RetryAssertionNCINvB5_14retry_containsNCNvNtNtB5_5tests16helper_functionss_24test_retry_contains_fail0ReE0E3newB9_
FNDA:0,_RNvMs1_NtNtCsbqoqex1KQlH_6probar9assertion5retryINtB5_14RetryAssertionNCINvB5_14retry_containsNCNvNtNtB5_5tests16helper_functionss_24test_retry_contains_fail0ReE0E6verifyB9_
FNDA:0,_RNvMs1_NtNtCsbqoqex1KQlH_6probar9assertion5retryINtB5_14RetryAssertionNCINvB5_14retry_containsNCNvNtNtB5_5tests16helper_functionss_24test_retry_contains_pass0ReE0E16with_max_retriesB9_
FNDA:0,_RNvMs1_NtNtCsbqoqex1KQlH_6probar9assertion5retryINtB5_14RetryAssertionNCINvB5_14retry_containsNCNvNtNtB5_5tests16helper_functionss_24test_retry_contains_pass0ReE0E3newB9_
FNDA:0,_RNvMs1_NtNtCsbqoqex1KQlH_6probar9assertion5retryINtB5_14RetryAssertionNCINvB5_14retry_containsNCNvNtNtB5_5tests16helper_functionss_24test_retry_contains_pass0ReE0E6verifyB9_
FNDA:0,_RNvMs1_NtNtCsbqoqex1KQlH_6probar9assertion5retryINtB5_14RetryAssertionNCINvB5_8retry_eqlNCNvNtNtB5_5tests16helper_functionss_18test_retry_eq_fail0E0E16with_max_retriesB9_
FNDA:0,_RNvMs1_NtNtCsbqoqex1KQlH_6probar9assertion5retryINtB5_14RetryAssertionNCINvB5_8retry_eqlNCNvNtNtB5_5tests16helper_functionss_18test_retry_eq_fail0E0E3newB9_
FNDA:0,_RNvMs1_NtNtCsbqoqex1KQlH_6probar9assertion5retryINtB5_14RetryAssertionNCINvB5_8retry_eqlNCNvNtNtB5_5tests16helper_functionss_18test_retry_eq_fail0E0E6verifyB9_
FNDA:0,_RNvMs1_NtNtCsbqoqex1KQlH_6probar9assertion5retryINtB5_14RetryAssertionNCINvB5_8retry_eqlNCNvNtNtB5_5tests16helper_functionss_18test_retry_eq_pass0E0E16with_max_retriesB9_
FNDA:0,_RNvMs1_NtNtCsbqoqex1KQlH_6probar9assertion5retryINtB5_14RetryAssertionNCINvB5_8retry_eqlNCNvNtNtB5_5tests16helper_functionss_18test_retry_eq_pass0E0E3newB9_
FNDA:0,_RNvMs1_NtNtCsbqoqex1KQlH_6probar9assertion5retryINtB5_14RetryAssertionNCINvB5_8retry_eqlNCNvNtNtB5_5tests16helper_functionss_18test_retry_eq_pass0E0E6verifyB9_
FNDA:0,_RNvMs1_NtNtCsbqoqex1KQlH_6probar9assertion5retryINtB5_14RetryAssertionNCNvNtNtB5_5tests15retry_assertions_10test_debug0E3newB9_
FNDA:0,_RNvMs1_NtNtCsbqoqex1KQlH_6probar9assertion5retryINtB5_14RetryAssertionNCNvNtNtB5_5tests15retry_assertions_16test_max_retries0E12with_timeoutB9_
FNDA:0,_RNvMs1_NtNtCsbqoqex1KQlH_6probar9assertion5retryINtB5_14RetryAssertionNCNvNtNtB5_5tests15retry_assertions_16test_max_retries0E16with_max_retriesB9_
FNDA:0,_RNvMs1_NtNtCsbqoqex1KQlH_6probar9assertion5retryINtB5_14RetryAssertionNCNvNtNtB5_5tests15retry_assertions_16test_max_retries0E3newB9_
FNDA:0,_RNvMs1_NtNtCsbqoqex1KQlH_6probar9assertion5retryINtB5_14RetryAssertionNCNvNtNtB5_5tests15retry_assertions_16test_max_retries0E6verifyB9_
FNDA:0,_RNvMs1_NtNtCsbqoqex1KQlH_6probar9assertion5retryINtB5_14RetryAssertionNCNvNtNtB5_5tests15retry_assertions_16test_with_config0E11with_configB9_
FNDA:0,_RNvMs1_NtNtCsbqoqex1KQlH_6probar9assertion5retryINtB5_14RetryAssertionNCNvNtNtB5_5tests15retry_assertions_16test_with_config0E3newB9_
FNDA:0,_RNvMs1_NtNtCsbqoqex1KQlH_6probar9assertion5retryINtB5_14RetryAssertionNCNvNtNtB5_5tests15retry_assertions_16test_with_config0E6configB9_
FNDA:0,_RNvMs1_NtNtCsbqoqex1KQlH_6probar9assertion5retryINtB5_14RetryAssertionNCNvNtNtB5_5tests15retry_assertions_18test_eventual_pass0E12with_timeoutB9_
FNDA:0,_RNvMs1_NtNtCsbqoqex1KQlH_6probar9assertion5retryINtB5_14RetryAssertionNCNvNtNtB5_5tests15retry_assertions_18test_eventual_pass0E18with_poll_intervalB9_
FNDA:0,_RNvMs1_NtNtCsbqoqex1KQlH_6probar9assertion5retryINtB5_14RetryAssertionNCNvNtNtB5_5tests15retry_assertions_18test_eventual_pass0E3newB9_
FNDA:0,_RNvMs1_NtNtCsbqoqex1KQlH_6probar9assertion5retryINtB5_14RetryAssertionNCNvNtNtB5_5tests15retry_assertions_18test_eventual_pass0E6verifyB9_
FNDA:0,_RNvMs1_NtNtCsbqoqex1KQlH_6probar9assertion5retryINtB5_14RetryAssertionNCNvNtNtB5_5tests15retry_assertions_19test_immediate_pass0E3newB9_
FNDA:0,_RNvMs1_NtNtCsbqoqex1KQlH_6probar9assertion5retryINtB5_14RetryAssertionNCNvNtNtB5_5tests15retry_assertions_19test_immediate_pass0E6verifyB9_
FNDA:0,_RNvMs1_NtNtCsbqoqex1KQlH_6probar9assertion5retryINtB5_14RetryAssertionNCNvNtNtB5_5tests15retry_assertions_21test_verify_once_fail0E11verify_onceB9_
FNDA:0,_RNvMs1_NtNtCsbqoqex1KQlH_6probar9assertion5retryINtB5_14RetryAssertionNCNvNtNtB5_5tests15retry_assertions_21test_verify_once_fail0E3newB9_
FNDA:0,_RNvMs1_NtNtCsbqoqex1KQlH_6probar9assertion5retryINtB5_14RetryAssertionNCNvNtNtB5_5tests15retry_assertions_21test_verify_once_pass0E11verify_onceB9_
FNDA:0,_RNvMs1_NtNtCsbqoqex1KQlH_6probar9assertion5retryINtB5_14RetryAssertionNCNvNtNtB5_5tests15retry_assertions_21test_verify_once_pass0E3newB9_
FNDA:0,_RNvMs1_NtNtCsbqoqex1KQlH_6probar9assertion5retryINtB5_14RetryAssertionNCNvNtNtB5_5tests15retry_assertions_21test_with_description0E16with_max_retriesB9_
FNDA:0,_RNvMs1_NtNtCsbqoqex1KQlH_6probar9assertion5retryINtB5_14RetryAssertionNCNvNtNtB5_5tests15retry_assertions_21test_with_description0E3newB9_
FNDA:0,_RNvMs1_NtNtCsbqoqex1KQlH_6probar9assertion5retryINtB5_14RetryAssertionNCNvNtNtB5_5tests15retry_assertions_21test_with_description0E6verifyB9_
FNDA:0,_RNvMs1_NtNtCsbqoqex1KQlH_6probar9assertion5retryINtB5_14RetryAssertionNCNvNtNtB5_5tests15retry_assertions_32test_immediate_fail_with_timeout0E12with_timeoutB9_
FNDA:0,_RNvMs1_NtNtCsbqoqex1KQlH_6probar9assertion5retryINtB5_14RetryAssertionNCNvNtNtB5_5tests15retry_assertions_32test_immediate_fail_with_timeout0E18with_poll_intervalB9_
FNDA:0,_RNvMs1_NtNtCsbqoqex1KQlH_6probar9assertion5retryINtB5_14RetryAssertionNCNvNtNtB5_5tests15retry_assertions_32test_immediate_fail_with_timeout0E3newB9_
FNDA:0,_RNvMs1_NtNtCsbqoqex1KQlH_6probar9assertion5retryINtB5_14RetryAssertionNCNvNtNtB5_5tests15retry_assertions_32test_immediate_fail_with_timeout0E6verifyB9_
FNDA:0,_RNvXs2_NtNtCsbqoqex1KQlH_6probar9assertion5retryINtB5_14RetryAssertionNCNvNtNtB5_5tests15retry_assertions_10test_debug0ENtNtCs6RpC691fUBl_4core3fmt5Debug3fmtB9_
FNDA:0,_RNCNvNtNtNtNtCsbqoqex1KQlH_6probar9assertion5retry5tests15retry_assertions_16test_max_retries0Bb_
FNDA:0,_RNCNvNtNtNtNtCsbqoqex1KQlH_6probar9assertion5retry5tests15retry_assertions_18test_eventual_pass0Bb_
FNDA:0,_RNCNvNtNtNtNtCsbqoqex1KQlH_6probar9assertion5retry5tests15retry_assertions_21test_verify_once_fail0Bb_
FNDA:0,_RNCNvNtNtNtNtCsbqoqex1KQlH_6probar9assertion5retry5tests15retry_assertions_21test_with_description0Bb_
FNDA:0,_RNCNvNtNtNtNtCsbqoqex1KQlH_6probar9assertion5retry5tests15retry_assertions_32test_immediate_fail_with_timeout0Bb_
FNDA:0,_RNvNtNtNtNtCsbqoqex1KQlH_6probar9assertion5retry5tests22assertion_check_results_9test_fail
FNDA:0,_RNvNtNtNtNtCsbqoqex1KQlH_6probar9assertion5retry5tests22assertion_check_results_9test_pass
FNDA:0,_RNvNtNtNtNtCsbqoqex1KQlH_6probar9assertion5retry5tests12retry_configs_12test_default
FNDA:0,_RNvNtNtNtNtCsbqoqex1KQlH_6probar9assertion5retry5tests12retry_configs_21test_with_max_retries
FNDA:0,_RNvNtNtNtNtCsbqoqex1KQlH_6probar9assertion5retry5tests12retry_configs_23test_with_poll_interval
FNDA:0,_RNvNtNtNtNtCsbqoqex1KQlH_6probar9assertion5retry5tests12retry_configs_8test_new
FNDA:0,_RNvNtNtNtNtCsbqoqex1KQlH_6probar9assertion5retry5tests12retry_configs_9test_fast
FNDA:0,_RNvNtNtNtNtCsbqoqex1KQlH_6probar9assertion5retry5tests12retry_configs_9test_slow
FNDA:0,_RNvNtNtNtNtCsbqoqex1KQlH_6probar9assertion5retry5tests12retry_results_18test_result_fields
FNDA:0,_RNCNvNtNtNtNtCsbqoqex1KQlH_6probar9assertion5retry5tests16helper_functionss_24test_retry_contains_fail0Bb_
FNDA:0,_RNCNvNtNtNtNtCsbqoqex1KQlH_6probar9assertion5retry5tests16helper_functionss_24test_retry_contains_pass0Bb_
FNDA:0,_RNvNtNtNtNtCsbqoqex1KQlH_6probar9assertion5retry5tests15retry_assertions_10test_debug
FNDA:0,_RNvNtNtNtNtCsbqoqex1KQlH_6probar9assertion5retry5tests15retry_assertions_16test_max_retries
FNDA:0,_RNvNtNtNtNtCsbqoqex1KQlH_6probar9assertion5retry5tests15retry_assertions_16test_with_config
FNDA:0,_RNvNtNtNtNtCsbqoqex1KQlH_6probar9assertion5retry5tests15retry_assertions_18test_eventual_pass
FNDA:0,_RNvNtNtNtNtCsbqoqex1KQlH_6probar9assertion5retry5tests15retry_assertions_19test_immediate_pass
FNDA:0,_RNvNtNtNtNtCsbqoqex1KQlH_6probar9assertion5retry5tests15retry_assertions_21test_verify_once_fail
FNDA:0,_RNvNtNtNtNtCsbqoqex1KQlH_6probar9assertion5retry5tests15retry_assertions_21test_verify_once_pass
FNDA:0,_RNvNtNtNtNtCsbqoqex1KQlH_6probar9assertion5retry5tests15retry_assertions_21test_with_description
FNDA:0,_RNvNtNtNtNtCsbqoqex1KQlH_6probar9assertion5retry5tests15retry_assertions_32test_immediate_fail_with_timeout
FNDA:0,_RNvMNtNtCsbqoqex1KQlH_6probar9assertion5retryNtB2_20AssertionCheckResult7is_fail
FNDA:0,_RNvMNtNtCsbqoqex1KQlH_6probar9assertion5retryNtB2_20AssertionCheckResult7is_pass
FNDA:0,_RNvMs0_NtNtCsbqoqex1KQlH_6probar9assertion5retryNtB5_11RetryConfig16with_max_retries
FNDA:0,_RNvMs0_NtNtCsbqoqex1KQlH_6probar9assertion5retryNtB5_11RetryConfig18with_poll_interval
FNDA:0,_RNvMs0_NtNtCsbqoqex1KQlH_6probar9assertion5retryNtB5_11RetryConfig3new
FNDA:0,_RNvMs0_NtNtCsbqoqex1KQlH_6probar9assertion5retryNtB5_11RetryConfig4fast
FNDA:0,_RNvMs0_NtNtCsbqoqex1KQlH_6probar9assertion5retryNtB5_11RetryConfig4slow
FNDA:0,_RNvXs3_NtNtCsbqoqex1KQlH_6probar9assertion5retryNtB5_10RetryErrorNtNtCs6RpC691fUBl_4core3fmt7Display3fmt
FNDA:0,_RNvXs_NtNtCsbqoqex1KQlH_6probar9assertion5retryNtB4_11RetryConfigNtNtCs6RpC691fUBl_4core7default7Default7default
FNDA:0,_RNvNtNtNtNtCsbqoqex1KQlH_6probar9assertion5retry5tests16helper_functionss_18test_retry_eq_fail
FNDA:0,_RNvNtNtNtNtCsbqoqex1KQlH_6probar9assertion5retry5tests16helper_functionss_18test_retry_eq_pass
FNDA:0,_RNvNtNtNtNtCsbqoqex1KQlH_6probar9assertion5retry5tests16helper_functionss_20test_retry_none_fail
FNDA:0,_RNvNtNtNtNtCsbqoqex1KQlH_6probar9assertion5retry5tests16helper_functionss_20test_retry_none_pass
FNDA:0,_RNvNtNtNtNtCsbqoqex1KQlH_6probar9assertion5retry5tests16helper_functionss_20test_retry_some_fail
FNDA:0,_RNvNtNtNtNtCsbqoqex1KQlH_6probar9assertion5retry5tests16helper_functionss_20test_retry_some_pass
FNDA:0,_RNvNtNtNtNtCsbqoqex1KQlH_6probar9assertion5retry5tests16helper_functionss_20test_retry_true_fail
FNDA:0,_RNvNtNtNtNtCsbqoqex1KQlH_6probar9assertion5retry5tests16helper_functionss_20test_retry_true_pass
FNDA:0,_RNvNtNtNtNtCsbqoqex1KQlH_6probar9assertion5retry5tests16helper_functionss_24test_retry_contains_fail
FNDA:0,_RNvNtNtNtNtCsbqoqex1KQlH_6probar9assertion5retry5tests16helper_functionss_24test_retry_contains_pass
FNDA:0,_RINvMs1_NtNtCs4eUmXem5O3q_6probar9assertion5retryINtB6_14RetryAssertionpE16with_descriptionpEBa_
FNDA:0,_RINvNtNtCs4eUmXem5O3q_6probar9assertion5retry10retry_noneppEB6_
FNDA:0,_RINvNtNtCs4eUmXem5O3q_6probar9assertion5retry10retry_someppEB6_
FNDA:0,_RINvNtNtCs4eUmXem5O3q_6probar9assertion5retry10retry_trueppEB6_
FNDA:0,_RINvNtNtCs4eUmXem5O3q_6probar9assertion5retry14retry_containsppEB6_
FNDA:0,_RINvNtNtCs4eUmXem5O3q_6probar9assertion5retry8retry_eqppEB6_
FNDA:0,_RNCINvNtNtCs4eUmXem5O3q_6probar9assertion5retry10retry_noneppE0B8_
FNDA:0,_RNCINvNtNtCs4eUmXem5O3q_6probar9assertion5retry10retry_someppE0B8_
FNDA:0,_RNCINvNtNtCs4eUmXem5O3q_6probar9assertion5retry10retry_trueppE0B8_
FNDA:0,_RNCINvNtNtCs4eUmXem5O3q_6probar9assertion5retry14retry_containsppE0B8_
FNDA:0,_RNCINvNtNtCs4eUmXem5O3q_6probar9assertion5retry8retry_eqppE0B8_
FNDA:0,_RNvMs1_NtNtCs4eUmXem5O3q_6probar9assertion5retryINtB5_14RetryAssertionpE11verify_onceB9_
FNDA:0,_RNvMs1_NtNtCs4eUmXem5O3q_6probar9assertion5retryINtB5_14RetryAssertionpE11with_configB9_
FNDA:0,_RNvMs1_NtNtCs4eUmXem5O3q_6probar9assertion5retryINtB5_14RetryAssertionpE12with_timeoutB9_
FNDA:0,_RNvMs1_NtNtCs4eUmXem5O3q_6probar9assertion5retryINtB5_14RetryAssertionpE16with_max_retriesB9_
FNDA:0,_RNvMs1_NtNtCs4eUmXem5O3q_6probar9assertion5retryINtB5_14RetryAssertionpE18with_poll_intervalB9_
FNDA:0,_RNvMs1_NtNtCs4eUmXem5O3q_6probar9assertion5retryINtB5_14RetryAssertionpE3newB9_
FNDA:0,_RNvMs1_NtNtCs4eUmXem5O3q_6probar9assertion5retryINtB5_14RetryAssertionpE6configB9_
FNDA:0,_RNvMs1_NtNtCs4eUmXem5O3q_6probar9assertion5retryINtB5_14RetryAssertionpE6verifyB9_
FNDA:0,_RNvXININtNtCs4eUmXem5O3q_6probar9assertion5retrys2_0pEINtB5_14RetryAssertionpENtNtCs6RpC691fUBl_4core3fmt5Debug3fmtB9_
FNDA:0,_RNvMNtNtCs4eUmXem5O3q_6probar9assertion5retryNtB2_20AssertionCheckResult7is_fail
FNDA:0,_RNvMNtNtCs4eUmXem5O3q_6probar9assertion5retryNtB2_20AssertionCheckResult7is_pass
FNDA:0,_RNvMs0_NtNtCs4eUmXem5O3q_6probar9assertion5retryNtB5_11RetryConfig16with_max_retries
FNDA:0,_RNvMs0_NtNtCs4eUmXem5O3q_6probar9assertion5retryNtB5_11RetryConfig18with_poll_interval
FNDA:0,_RNvMs0_NtNtCs4eUmXem5O3q_6probar9assertion5retryNtB5_11RetryConfig3new
FNDA:0,_RNvMs0_NtNtCs4eUmXem5O3q_6probar9assertion5retryNtB5_11RetryConfig4fast
FNDA:0,_RNvMs0_NtNtCs4eUmXem5O3q_6probar9assertion5retryNtB5_11RetryConfig4slow
FNDA:0,_RNvXs3_NtNtCs4eUmXem5O3q_6probar9assertion5retryNtB5_10RetryErrorNtNtCs6RpC691fUBl_4core3fmt7Display3fmt
FNDA:0,_RNvXs_NtNtCs4eUmXem5O3q_6probar9assertion5retryNtB4_11RetryConfigNtNtCs6RpC691fUBl_4core7default7Default7default
FNF:66
FNH:0
DA:27,0
DA:28,0
DA:29,0
DA:33,0
DA:34,0
DA:35,0
DA:50,0
DA:51,0
DA:52,0
DA:53,0
DA:54,0
DA:55,0
DA:56,0
DA:62,0
DA:63,0
DA:64,0
DA:65,0
DA:66,0
DA:67,0
DA:68,0
DA:72,0
DA:73,0
DA:74,0
DA:75,0
DA:79,0
DA:80,0
DA:81,0
DA:82,0
DA:86,0
DA:87,0
DA:88,0
DA:89,0
DA:90,0
DA:91,0
DA:92,0
DA:96,0
DA:97,0
DA:98,0
DA:99,0
DA:100,0
DA:101,0
DA:102,0
DA:136,0
DA:137,0
DA:138,0
DA:139,0
DA:140,0
DA:141,0
DA:142,0
DA:146,0
DA:147,0
DA:148,0
DA:149,0
DA:153,0
DA:154,0
DA:155,0
DA:156,0
DA:160,0
DA:161,0
DA:162,0
DA:163,0
DA:167,0
DA:168,0
DA:169,0
DA:170,0
DA:174,0
DA:175,0
DA:176,0
DA:177,0
DA:181,0
DA:182,0
DA:183,0
DA:191,0
DA:192,0
DA:193,0
DA:194,0
DA:197,0
DA:199,0
DA:201,0
DA:202,0
DA:203,0
DA:204,0
DA:206,0
DA:207,0
DA:208,0
DA:212,0
DA:213,0
DA:214,0
DA:215,0
DA:216,0
DA:217,0
DA:218,0
DA:219,0
DA:222,0
DA:223,0
DA:224,0
DA:225,0
DA:226,0
DA:227,0
DA:228,0
DA:229,0
DA:232,0
DA:234,0
DA:241,0
DA:242,0
DA:243,0
DA:244,0
DA:245,0
DA:246,0
DA:247,0
DA:248,0
DA:249,0
DA:251,0
DA:258,0
DA:259,0
DA:260,0
DA:261,0
DA:262,0
DA:263,0
DA:289,0
DA:290,0
DA:291,0
DA:292,0
DA:293,0
DA:294,0
DA:295,0
DA:297,0
DA:300,0
DA:310,0
DA:311,0
DA:312,0
DA:313,0
DA:314,0
DA:315,0
DA:316,0
DA:317,0
DA:318,0
DA:320,0
DA:322,0
DA:323,0
DA:326,0
DA:327,0
DA:328,0
DA:329,0
DA:330,0
DA:331,0
DA:332,0
DA:333,0
DA:335,0
DA:337,0
DA:338,0
DA:341,0
DA:342,0
DA:343,0
DA:344,0
DA:345,0
DA:346,0
DA:348,0
DA:350,0
DA:351,0
DA:354,0
DA:355,0
DA:356,0
DA:357,0
DA:358,0
DA:359,0
DA:361,0
DA:363,0
DA:364,0
DA:367,0
DA:368,0
DA:369,0
DA:370,0
DA:371,0
DA:372,0
DA:373,0
DA:374,0
DA:375,0
DA:377,0
DA:378,0
DA:379,0
DA:381,0
DA:382,0
DA:399,0
DA:400,0
DA:401,0
DA:402,0
DA:403,0
DA:406,0
DA:407,0
DA:408,0
DA:409,0
DA:410,0
DA:417,0
DA:418,0
DA:419,0
DA:420,0
DA:421,0
DA:422,0
DA:425,0
DA:426,0
DA:427,0
DA:428,0
DA:431,0
DA:432,0
DA:433,0
DA:434,0
DA:435,0
DA:438,0
DA:439,0
DA:440,0
DA:441,0
DA:442,0
DA:445,0
DA:446,0
DA:447,0
DA:448,0
DA:449,0
DA:452,0
DA:453,0
DA:454,0
DA:455,0
DA:456,0
DA:463,0
DA:464,0
DA:465,0
DA:466,0
DA:467,0
DA:470,0
DA:471,0
DA:472,0
DA:473,0
DA:474,0
DA:475,0
DA:477,0
DA:478,0
DA:479,0
DA:480,0
DA:483,0
DA:484,0
DA:485,0
DA:487,0
DA:488,0
DA:489,0
DA:490,0
DA:492,0
DA:494,0
DA:495,0
DA:496,0
DA:498,0
DA:499,0
DA:500,0
DA:503,0
DA:504,0
DA:505,0
DA:507,0
DA:508,0
DA:509,0
DA:510,0
DA:511,0
DA:512,0
DA:514,0
DA:515,0
DA:516,0
DA:519,0
DA:520,0
DA:521,0
DA:522,0
DA:523,0
DA:524,0
DA:526,0
DA:527,0
DA:528,0
DA:531,0
DA:532,0
DA:533,0
DA:534,0
DA:535,0
DA:536,0
DA:539,0
DA:540,0
DA:541,0
DA:542,0
DA:545,0
DA:546,0
DA:547,0
DA:548,0
DA:549,0
DA:550,0
DA:551,0
DA:554,0
DA:555,0
DA:556,0
DA:557,0
DA:558,0
DA:559,0
DA:566,0
DA:567,0
DA:568,0
DA:569,0
DA:570,0
DA:571,0
DA:572,0
DA:573,0
DA:574,0
DA:575,0
DA:576,0
DA:579,0
DA:580,0
DA:581,0
DA:582,0
DA:583,0
DA:584,0
DA:585,0
DA:586,0
DA:587,0
DA:588,0
DA:589,0
DA:596,0
DA:597,0
DA:598,0
DA:599,0
DA:600,0
DA:603,0
DA:604,0
DA:605,0
DA:606,0
DA:607,0
DA:608,0
DA:611,0
DA:612,0
DA:613,0
DA:614,0
DA:615,0
DA:618,0
DA:619,0
DA:620,0
DA:621,0
DA:622,0
DA:623,0
DA:626,0
DA:627,0
DA:628,0
DA:629,0
DA:630,0
DA:633,0
DA:634,0
DA:635,0
DA:636,0
DA:637,0
DA:640,0
DA:641,0
DA:642,0
DA:643,0
DA:644,0
DA:647,0
DA:648,0
DA:649,0
DA:650,0
DA:651,0
DA:654,0
DA:655,0
DA:656,0
DA:657,0
DA:658,0
DA:661,0
DA:662,0
DA:663,0
DA:664,0
DA:665,0
DA:666,0
DA:673,0
DA:674,0
DA:675,0
DA:676,0
DA:677,0
DA:678,0
DA:679,0
DA:680,0
BRF:0
BRH:0
LF:391
LH:0
end_of_record
SF:/home/noah/src/probar/crates/probar/src/assertion/soft.rs
FN:522,_RNvNtNtNtNtCsbqoqex1KQlH_6probar9assertion4soft5tests17string_assertionss_25test_assert_contains_fail
FN:515,_RNvNtNtNtNtCsbqoqex1KQlH_6probar9assertion4soft5tests17string_assertionss_25test_assert_contains_pass
FN:363,_RNvNtNtNtNtCsbqoqex1KQlH_6probar9assertion4soft5tests21soft_assertions_basics_14test_with_mode
FN:369,_RNvNtNtNtNtCsbqoqex1KQlH_6probar9assertion4soft5tests21soft_assertions_basics_17test_mode_builder
FN:355,_RNvNtNtNtNtCsbqoqex1KQlH_6probar9assertion4soft5tests21soft_assertions_basics_22test_new_creates_empty
FN:698,_RNvNtNtNtNtCsbqoqex1KQlH_6probar9assertion4soft5tests5clears_10test_clear
FN:468,_RNvNtNtNtNtCsbqoqex1KQlH_6probar9assertion4soft5tests17option_assertionss_21test_assert_none_fail
FN:461,_RNvNtNtNtNtCsbqoqex1KQlH_6probar9assertion4soft5tests17option_assertionss_21test_assert_none_pass
FN:454,_RNvNtNtNtNtCsbqoqex1KQlH_6probar9assertion4soft5tests17option_assertionss_21test_assert_some_fail
FN:447,_RNvNtNtNtNtCsbqoqex1KQlH_6probar9assertion4soft5tests17option_assertionss_21test_assert_some_pass
FN:322,_RNvMs0_NtNtCsbqoqex1KQlH_6probar9assertion4softNtB5_18SoftAssertionError3new
FN:265,_RNvMs_NtNtCsbqoqex1KQlH_6probar9assertion4softNtB4_14SoftAssertions10all_passed
FN:126,_RNvMs_NtNtCsbqoqex1KQlH_6probar9assertion4softNtB4_14SoftAssertions11assert_true
FN:134,_RNvMs_NtNtCsbqoqex1KQlH_6probar9assertion4softNtB4_14SoftAssertions12assert_false
FN:253,_RNvMs_NtNtCsbqoqex1KQlH_6probar9assertion4softNtB4_14SoftAssertions13failure_count
FN:240,_RNvMs_NtNtCsbqoqex1KQlH_6probar9assertion4softNtB4_14SoftAssertions14record_failure
FN:174,_RNvMs_NtNtCsbqoqex1KQlH_6probar9assertion4softNtB4_14SoftAssertions15assert_contains
FN:224,_RNvMs_NtNtCsbqoqex1KQlH_6probar9assertion4softNtB4_14SoftAssertions15assert_in_range
FN:259,_RNvMs_NtNtCsbqoqex1KQlH_6probar9assertion4softNtB4_14SoftAssertions15assertion_count
FN:214,_RNvMs_NtNtCsbqoqex1KQlH_6probar9assertion4softNtB4_14SoftAssertions16assert_approx_eq
FN:83,_RNvMs_NtNtCsbqoqex1KQlH_6probar9assertion4softNtB4_14SoftAssertions3new
FN:98,_RNvMs_NtNtCsbqoqex1KQlH_6probar9assertion4softNtB4_14SoftAssertions4mode
FN:283,_RNvMs_NtNtCsbqoqex1KQlH_6probar9assertion4softNtB4_14SoftAssertions5clear
FN:274,_RNvMs_NtNtCsbqoqex1KQlH_6probar9assertion4softNtB4_14SoftAssertions6verify
FN:290,_RNvMs_NtNtCsbqoqex1KQlH_6probar9assertion4softNtB4_14SoftAssertions7summary
FN:247,_RNvMs_NtNtCsbqoqex1KQlH_6probar9assertion4softNtB4_14SoftAssertions8failures
FN:89,_RNvMs_NtNtCsbqoqex1KQlH_6probar9assertion4softNtB4_14SoftAssertions9with_mode
FN:331,_RNvXs1_NtNtCsbqoqex1KQlH_6probar9assertion4softNtB5_18SoftAssertionErrorNtNtCs6RpC691fUBl_4core3fmt7Display3fmt
FN:43,_RINvMNtNtCsbqoqex1KQlH_6probar9assertion4softNtB3_16AssertionFailure13with_locationReEB7_
FN:32,_RINvMNtNtCsbqoqex1KQlH_6probar9assertion4softNtB3_16AssertionFailure3newNtNtCs6juDKDKeRkf_5alloc6string6StringEB7_
FN:32,_RINvMNtNtCsbqoqex1KQlH_6probar9assertion4softNtB3_16AssertionFailure3newReEB7_
FN:166,_RINvMs_NtNtCsbqoqex1KQlH_6probar9assertion4softNtB5_14SoftAssertions10assert_errlReEB9_
FN:184,_RINvMs_NtNtCsbqoqex1KQlH_6probar9assertion4softNtB5_14SoftAssertions10assert_lenlEB9_
FN:150,_RINvMs_NtNtCsbqoqex1KQlH_6probar9assertion4softNtB5_14SoftAssertions11assert_nonelEB9_
FN:142,_RINvMs_NtNtCsbqoqex1KQlH_6probar9assertion4softNtB5_14SoftAssertions11assert_somelEB9_
FN:195,_RINvMs_NtNtCsbqoqex1KQlH_6probar9assertion4softNtB5_14SoftAssertions12assert_emptylEB9_
FN:206,_RINvMs_NtNtCsbqoqex1KQlH_6probar9assertion4softNtB5_14SoftAssertions16assert_not_emptylEB9_
FN:234,_RINvMs_NtNtCsbqoqex1KQlH_6probar9assertion4softNtB5_14SoftAssertions4failReEB9_
FN:104,_RINvMs_NtNtCsbqoqex1KQlH_6probar9assertion4softNtB5_14SoftAssertions9assert_eqlEB9_
FN:115,_RINvMs_NtNtCsbqoqex1KQlH_6probar9assertion4softNtB5_14SoftAssertions9assert_nelEB9_
FN:158,_RINvMs_NtNtCsbqoqex1KQlH_6probar9assertion4softNtB5_14SoftAssertions9assert_oklReEB9_
FN:324,_RNCNvMs0_NtNtCsbqoqex1KQlH_6probar9assertion4softNtB7_18SoftAssertionError3new0Bb_
FN:387,_RNvNtNtNtNtCsbqoqex1KQlH_6probar9assertion4soft5tests19equality_assertionss_19test_assert_eq_fail
FN:379,_RNvNtNtNtNtCsbqoqex1KQlH_6probar9assertion4soft5tests19equality_assertionss_19test_assert_eq_pass
FN:403,_RNvNtNtNtNtCsbqoqex1KQlH_6probar9assertion4soft5tests19equality_assertionss_19test_assert_ne_fail
FN:396,_RNvNtNtNtNtCsbqoqex1KQlH_6probar9assertion4soft5tests19equality_assertionss_19test_assert_ne_pass
FN:714,_RNvNtNtNtNtCsbqoqex1KQlH_6probar9assertion4soft5tests14custom_failures_16test_fail_method
FN:656,_RNvNtNtNtNtCsbqoqex1KQlH_6probar9assertion4soft5tests6verifys_16test_verify_fail
FN:649,_RNvNtNtNtNtCsbqoqex1KQlH_6probar9assertion4soft5tests6verifys_16test_verify_pass
FN:665,_RNvNtNtNtNtCsbqoqex1KQlH_6probar9assertion4soft5tests6verifys_18test_error_display
FN:421,_RNvNtNtNtNtCsbqoqex1KQlH_6probar9assertion4soft5tests18boolean_assertionss_21test_assert_true_fail
FN:414,_RNvNtNtNtNtCsbqoqex1KQlH_6probar9assertion4soft5tests18boolean_assertionss_21test_assert_true_pass
FN:436,_RNvNtNtNtNtCsbqoqex1KQlH_6probar9assertion4soft5tests18boolean_assertionss_22test_assert_false_fail
FN:429,_RNvNtNtNtNtCsbqoqex1KQlH_6probar9assertion4soft5tests18boolean_assertionss_22test_assert_false_pass
FN:602,_RNvNtNtNtNtCsbqoqex1KQlH_6probar9assertion4soft5tests18numeric_assertionss_25test_assert_in_range_fail
FN:595,_RNvNtNtNtNtCsbqoqex1KQlH_6probar9assertion4soft5tests18numeric_assertionss_25test_assert_in_range_pass
FN:588,_RNvNtNtNtNtCsbqoqex1KQlH_6probar9assertion4soft5tests18numeric_assertionss_26test_assert_approx_eq_fail
FN:581,_RNvNtNtNtNtCsbqoqex1KQlH_6probar9assertion4soft5tests18numeric_assertionss_26test_assert_approx_eq_pass
FN:609,_RNvNtNtNtNtCsbqoqex1KQlH_6probar9assertion4soft5tests18numeric_assertionss_31test_assert_in_range_boundaries
FN:487,_RNvNtNtNtNtCsbqoqex1KQlH_6probar9assertion4soft5tests17result_assertionss_19test_assert_ok_fail
FN:479,_RNvNtNtNtNtCsbqoqex1KQlH_6probar9assertion4soft5tests17result_assertionss_19test_assert_ok_pass
FN:503,_RNvNtNtNtNtCsbqoqex1KQlH_6probar9assertion4soft5tests17result_assertionss_20test_assert_err_fail
FN:495,_RNvNtNtNtNtCsbqoqex1KQlH_6probar9assertion4soft5tests17result_assertionss_20test_assert_err_pass
FN:726,_RNvNtNtNtNtCsbqoqex1KQlH_6probar9assertion4soft5tests17assertion_failures_26test_assertion_failure_new
FN:735,_RNvNtNtNtNtCsbqoqex1KQlH_6probar9assertion4soft5tests17assertion_failures_36test_assertion_failure_with_location
FN:681,_RNvNtNtNtNtCsbqoqex1KQlH_6probar9assertion4soft5tests7summarys_12test_summary
FN:540,_RNvNtNtNtNtCsbqoqex1KQlH_6probar9assertion4soft5tests21collection_assertionss_20test_assert_len_fail
FN:533,_RNvNtNtNtNtCsbqoqex1KQlH_6probar9assertion4soft5tests21collection_assertionss_20test_assert_len_pass
FN:555,_RNvNtNtNtNtCsbqoqex1KQlH_6probar9assertion4soft5tests21collection_assertionss_22test_assert_empty_fail
FN:547,_RNvNtNtNtNtCsbqoqex1KQlH_6probar9assertion4soft5tests21collection_assertionss_22test_assert_empty_pass
FN:569,_RNvNtNtNtNtCsbqoqex1KQlH_6probar9assertion4soft5tests21collection_assertionss_26test_assert_not_empty_fail
FN:562,_RNvNtNtNtNtCsbqoqex1KQlH_6probar9assertion4soft5tests21collection_assertionss_26test_assert_not_empty_pass
FN:632,_RNvNtNtNtNtCsbqoqex1KQlH_6probar9assertion4soft5tests17multiple_failuress_24test_mixed_pass_and_fail
FN:621,_RNvNtNtNtNtCsbqoqex1KQlH_6probar9assertion4soft5tests17multiple_failuress_31test_collects_multiple_failures
FN:43,_RINvMNtNtCs4eUmXem5O3q_6probar9assertion4softNtB3_16AssertionFailure13with_locationpEB7_
FN:166,_RINvMs_NtNtCs4eUmXem5O3q_6probar9assertion4softNtB5_14SoftAssertions10assert_errppEB9_
FN:184,_RINvMs_NtNtCs4eUmXem5O3q_6probar9assertion4softNtB5_14SoftAssertions10assert_lenpEB9_
FN:150,_RINvMs_NtNtCs4eUmXem5O3q_6probar9assertion4softNtB5_14SoftAssertions11assert_nonepEB9_
FN:142,_RINvMs_NtNtCs4eUmXem5O3q_6probar9assertion4softNtB5_14SoftAssertions11assert_somepEB9_
FN:195,_RINvMs_NtNtCs4eUmXem5O3q_6probar9assertion4softNtB5_14SoftAssertions12assert_emptypEB9_
FN:206,_RINvMs_NtNtCs4eUmXem5O3q_6probar9assertion4softNtB5_14SoftAssertions16assert_not_emptypEB9_
FN:234,_RINvMs_NtNtCs4eUmXem5O3q_6probar9assertion4softNtB5_14SoftAssertions4failpEB9_
FN:104,_RINvMs_NtNtCs4eUmXem5O3q_6probar9assertion4softNtB5_14SoftAssertions9assert_eqpEB9_
FN:115,_RINvMs_NtNtCs4eUmXem5O3q_6probar9assertion4softNtB5_14SoftAssertions9assert_nepEB9_
FN:158,_RINvMs_NtNtCs4eUmXem5O3q_6probar9assertion4softNtB5_14SoftAssertions9assert_okppEB9_
FN:32,_RINvMNtNtCs4eUmXem5O3q_6probar9assertion4softNtB3_16AssertionFailure3newNtNtCs6juDKDKeRkf_5alloc6string6StringEB7_
FN:324,_RNCNvMs0_NtNtCs4eUmXem5O3q_6probar9assertion4softNtB7_18SoftAssertionError3new0Bb_
FNDA:0,_RNvNtNtNtNtCsbqoqex1KQlH_6probar9assertion4soft5tests17string_assertionss_25test_assert_contains_fail
FNDA:0,_RNvNtNtNtNtCsbqoqex1KQlH_6probar9assertion4soft5tests17string_assertionss_25test_assert_contains_pass
FNDA:0,_RNvNtNtNtNtCsbqoqex1KQlH_6probar9assertion4soft5tests21soft_assertions_basics_14test_with_mode
FNDA:0,_RNvNtNtNtNtCsbqoqex1KQlH_6probar9assertion4soft5tests21soft_assertions_basics_17test_mode_builder
FNDA:0,_RNvNtNtNtNtCsbqoqex1KQlH_6probar9assertion4soft5tests21soft_assertions_basics_22test_new_creates_empty
FNDA:0,_RNvNtNtNtNtCsbqoqex1KQlH_6probar9assertion4soft5tests5clears_10test_clear
FNDA:0,_RNvNtNtNtNtCsbqoqex1KQlH_6probar9assertion4soft5tests17option_assertionss_21test_assert_none_fail
FNDA:0,_RNvNtNtNtNtCsbqoqex1KQlH_6probar9assertion4soft5tests17option_assertionss_21test_assert_none_pass
FNDA:0,_RNvNtNtNtNtCsbqoqex1KQlH_6probar9assertion4soft5tests17option_assertionss_21test_assert_some_fail
FNDA:0,_RNvNtNtNtNtCsbqoqex1KQlH_6probar9assertion4soft5tests17option_assertionss_21test_assert_some_pass
FNDA:0,_RNvMs0_NtNtCsbqoqex1KQlH_6probar9assertion4softNtB5_18SoftAssertionError3new
FNDA:0,_RNvMs_NtNtCsbqoqex1KQlH_6probar9assertion4softNtB4_14SoftAssertions10all_passed
FNDA:0,_RNvMs_NtNtCsbqoqex1KQlH_6probar9assertion4softNtB4_14SoftAssertions11assert_true
FNDA:0,_RNvMs_NtNtCsbqoqex1KQlH_6probar9assertion4softNtB4_14SoftAssertions12assert_false
FNDA:0,_RNvMs_NtNtCsbqoqex1KQlH_6probar9assertion4softNtB4_14SoftAssertions13failure_count
FNDA:0,_RNvMs_NtNtCsbqoqex1KQlH_6probar9assertion4softNtB4_14SoftAssertions14record_failure
FNDA:0,_RNvMs_NtNtCsbqoqex1KQlH_6probar9assertion4softNtB4_14SoftAssertions15assert_contains
FNDA:0,_RNvMs_NtNtCsbqoqex1KQlH_6probar9assertion4softNtB4_14SoftAssertions15assert_in_range
FNDA:0,_RNvMs_NtNtCsbqoqex1KQlH_6probar9assertion4softNtB4_14SoftAssertions15assertion_count
FNDA:0,_RNvMs_NtNtCsbqoqex1KQlH_6probar9assertion4softNtB4_14SoftAssertions16assert_approx_eq
FNDA:0,_RNvMs_NtNtCsbqoqex1KQlH_6probar9assertion4softNtB4_14SoftAssertions3new
FNDA:0,_RNvMs_NtNtCsbqoqex1KQlH_6probar9assertion4softNtB4_14SoftAssertions4mode
FNDA:0,_RNvMs_NtNtCsbqoqex1KQlH_6probar9assertion4softNtB4_14SoftAssertions5clear
FNDA:0,_RNvMs_NtNtCsbqoqex1KQlH_6probar9assertion4softNtB4_14SoftAssertions6verify
FNDA:0,_RNvMs_NtNtCsbqoqex1KQlH_6probar9assertion4softNtB4_14SoftAssertions7summary
FNDA:0,_RNvMs_NtNtCsbqoqex1KQlH_6probar9assertion4softNtB4_14SoftAssertions8failures
FNDA:0,_RNvMs_NtNtCsbqoqex1KQlH_6probar9assertion4softNtB4_14SoftAssertions9with_mode
FNDA:0,_RNvXs1_NtNtCsbqoqex1KQlH_6probar9assertion4softNtB5_18SoftAssertionErrorNtNtCs6RpC691fUBl_4core3fmt7Display3fmt
FNDA:0,_RINvMNtNtCsbqoqex1KQlH_6probar9assertion4softNtB3_16AssertionFailure13with_locationReEB7_
FNDA:0,_RINvMNtNtCsbqoqex1KQlH_6probar9assertion4softNtB3_16AssertionFailure3newNtNtCs6juDKDKeRkf_5alloc6string6StringEB7_
FNDA:0,_RINvMNtNtCsbqoqex1KQlH_6probar9assertion4softNtB3_16AssertionFailure3newReEB7_
FNDA:0,_RINvMs_NtNtCsbqoqex1KQlH_6probar9assertion4softNtB5_14SoftAssertions10assert_errlReEB9_
FNDA:0,_RINvMs_NtNtCsbqoqex1KQlH_6probar9assertion4softNtB5_14SoftAssertions10assert_lenlEB9_
FNDA:0,_RINvMs_NtNtCsbqoqex1KQlH_6probar9assertion4softNtB5_14SoftAssertions11assert_nonelEB9_
FNDA:0,_RINvMs_NtNtCsbqoqex1KQlH_6probar9assertion4softNtB5_14SoftAssertions11assert_somelEB9_
FNDA:0,_RINvMs_NtNtCsbqoqex1KQlH_6probar9assertion4softNtB5_14SoftAssertions12assert_emptylEB9_
FNDA:0,_RINvMs_NtNtCsbqoqex1KQlH_6probar9assertion4softNtB5_14SoftAssertions16assert_not_emptylEB9_
FNDA:0,_RINvMs_NtNtCsbqoqex1KQlH_6probar9assertion4softNtB5_14SoftAssertions4failReEB9_
FNDA:0,_RINvMs_NtNtCsbqoqex1KQlH_6probar9assertion4softNtB5_14SoftAssertions9assert_eqlEB9_
FNDA:0,_RINvMs_NtNtCsbqoqex1KQlH_6probar9assertion4softNtB5_14SoftAssertions9assert_nelEB9_
FNDA:0,_RINvMs_NtNtCsbqoqex1KQlH_6probar9assertion4softNtB5_14SoftAssertions9assert_oklReEB9_
FNDA:0,_RNCNvMs0_NtNtCsbqoqex1KQlH_6probar9assertion4softNtB7_18SoftAssertionError3new0Bb_
FNDA:0,_RNvNtNtNtNtCsbqoqex1KQlH_6probar9assertion4soft5tests19equality_assertionss_19test_assert_eq_fail
FNDA:0,_RNvNtNtNtNtCsbqoqex1KQlH_6probar9assertion4soft5tests19equality_assertionss_19test_assert_eq_pass
FNDA:0,_RNvNtNtNtNtCsbqoqex1KQlH_6probar9assertion4soft5tests19equality_assertionss_19test_assert_ne_fail
FNDA:0,_RNvNtNtNtNtCsbqoqex1KQlH_6probar9assertion4soft5tests19equality_assertionss_19test_assert_ne_pass
FNDA:0,_RNvNtNtNtNtCsbqoqex1KQlH_6probar9assertion4soft5tests14custom_failures_16test_fail_method
FNDA:0,_RNvNtNtNtNtCsbqoqex1KQlH_6probar9assertion4soft5tests6verifys_16test_verify_fail
FNDA:0,_RNvNtNtNtNtCsbqoqex1KQlH_6probar9assertion4soft5tests6verifys_16test_verify_pass
FNDA:0,_RNvNtNtNtNtCsbqoqex1KQlH_6probar9assertion4soft5tests6verifys_18test_error_display
FNDA:0,_RNvNtNtNtNtCsbqoqex1KQlH_6probar9assertion4soft5tests18boolean_assertionss_21test_assert_true_fail
FNDA:0,_RNvNtNtNtNtCsbqoqex1KQlH_6probar9assertion4soft5tests18boolean_assertionss_21test_assert_true_pass
FNDA:0,_RNvNtNtNtNtCsbqoqex1KQlH_6probar9assertion4soft5tests18boolean_assertionss_22test_assert_false_fail
FNDA:0,_RNvNtNtNtNtCsbqoqex1KQlH_6probar9assertion4soft5tests18boolean_assertionss_22test_assert_false_pass
FNDA:0,_RNvNtNtNtNtCsbqoqex1KQlH_6probar9assertion4soft5tests18numeric_assertionss_25test_assert_in_range_fail
FNDA:0,_RNvNtNtNtNtCsbqoqex1KQlH_6probar9assertion4soft5tests18numeric_assertionss_25test_assert_in_range_pass
FNDA:0,_RNvNtNtNtNtCsbqoqex1KQlH_6probar9assertion4soft5tests18numeric_assertionss_26test_assert_approx_eq_fail
FNDA:0,_RNvNtNtNtNtCsbqoqex1KQlH_6probar9assertion4soft5tests18numeric_assertionss_26test_assert_approx_eq_pass
FNDA:0,_RNvNtNtNtNtCsbqoqex1KQlH_6probar9assertion4soft5tests18numeric_assertionss_31test_assert_in_range_boundaries
FNDA:0,_RNvNtNtNtNtCsbqoqex1KQlH_6probar9assertion4soft5tests17result_assertionss_19test_assert_ok_fail
FNDA:0,_RNvNtNtNtNtCsbqoqex1KQlH_6probar9assertion4soft5tests17result_assertionss_19test_assert_ok_pass
FNDA:0,_RNvNtNtNtNtCsbqoqex1KQlH_6probar9assertion4soft5tests17result_assertionss_20test_assert_err_fail
FNDA:0,_RNvNtNtNtNtCsbqoqex1KQlH_6probar9assertion4soft5tests17result_assertionss_20test_assert_err_pass
FNDA:0,_RNvNtNtNtNtCsbqoqex1KQlH_6probar9assertion4soft5tests17assertion_failures_26test_assertion_failure_new
FNDA:0,_RNvNtNtNtNtCsbqoqex1KQlH_6probar9assertion4soft5tests17assertion_failures_36test_assertion_failure_with_location
FNDA:0,_RNvNtNtNtNtCsbqoqex1KQlH_6probar9assertion4soft5tests7summarys_12test_summary
FNDA:0,_RNvNtNtNtNtCsbqoqex1KQlH_6probar9assertion4soft5tests21collection_assertionss_20test_assert_len_fail
FNDA:0,_RNvNtNtNtNtCsbqoqex1KQlH_6probar9assertion4soft5tests21collection_assertionss_20test_assert_len_pass
FNDA:0,_RNvNtNtNtNtCsbqoqex1KQlH_6probar9assertion4soft5tests21collection_assertionss_22test_assert_empty_fail
FNDA:0,_RNvNtNtNtNtCsbqoqex1KQlH_6probar9assertion4soft5tests21collection_assertionss_22test_assert_empty_pass
FNDA:0,_RNvNtNtNtNtCsbqoqex1KQlH_6probar9assertion4soft5tests21collection_assertionss_26test_assert_not_empty_fail
FNDA:0,_RNvNtNtNtNtCsbqoqex1KQlH_6probar9assertion4soft5tests21collection_assertionss_26test_assert_not_empty_pass
FNDA:0,_RNvNtNtNtNtCsbqoqex1KQlH_6probar9assertion4soft5tests17multiple_failuress_24test_mixed_pass_and_fail
FNDA:0,_RNvNtNtNtNtCsbqoqex1KQlH_6probar9assertion4soft5tests17multiple_failuress_31test_collects_multiple_failures
FNDA:0,_RINvMNtNtCs4eUmXem5O3q_6probar9assertion4softNtB3_16AssertionFailure13with_locationpEB7_
FNDA:0,_RINvMs_NtNtCs4eUmXem5O3q_6probar9assertion4softNtB5_14SoftAssertions10assert_errppEB9_
FNDA:0,_RINvMs_NtNtCs4eUmXem5O3q_6probar9assertion4softNtB5_14SoftAssertions10assert_lenpEB9_
FNDA:0,_RINvMs_NtNtCs4eUmXem5O3q_6probar9assertion4softNtB5_14SoftAssertions11assert_nonepEB9_
FNDA:0,_RINvMs_NtNtCs4eUmXem5O3q_6probar9assertion4softNtB5_14SoftAssertions11assert_somepEB9_
FNDA:0,_RINvMs_NtNtCs4eUmXem5O3q_6probar9assertion4softNtB5_14SoftAssertions12assert_emptypEB9_
FNDA:0,_RINvMs_NtNtCs4eUmXem5O3q_6probar9assertion4softNtB5_14SoftAssertions16assert_not_emptypEB9_
FNDA:0,_RINvMs_NtNtCs4eUmXem5O3q_6probar9assertion4softNtB5_14SoftAssertions4failpEB9_
FNDA:0,_RINvMs_NtNtCs4eUmXem5O3q_6probar9assertion4softNtB5_14SoftAssertions9assert_eqpEB9_
FNDA:0,_RINvMs_NtNtCs4eUmXem5O3q_6probar9assertion4softNtB5_14SoftAssertions9assert_nepEB9_
FNDA:0,_RINvMs_NtNtCs4eUmXem5O3q_6probar9assertion4softNtB5_14SoftAssertions9assert_okppEB9_
FNDA:0,_RINvMNtNtCs4eUmXem5O3q_6probar9assertion4softNtB3_16AssertionFailure3newNtNtCs6juDKDKeRkf_5alloc6string6StringEB7_
FNDA:0,_RNCNvMs0_NtNtCs4eUmXem5O3q_6probar9assertion4softNtB7_18SoftAssertionError3new0Bb_
FNF:73
FNH:0
DA:32,0
DA:33,0
DA:34,0
DA:35,0
DA:36,0
DA:37,0
DA:38,0
DA:39,0
DA:43,0
DA:44,0
DA:45,0
DA:46,0
DA:83,0
DA:84,0
DA:85,0
DA:89,0
DA:90,0
DA:91,0
DA:92,0
DA:93,0
DA:94,0
DA:98,0
DA:99,0
DA:100,0
DA:101,0
DA:104,0
DA:105,0
DA:106,0
DA:107,0
DA:108,0
DA:109,0
DA:110,0
DA:111,0
DA:112,0
DA:115,0
DA:116,0
DA:117,0
DA:118,0
DA:119,0
DA:120,0
DA:121,0
DA:122,0
DA:123,0
DA:126,0
DA:127,0
DA:128,0
DA:129,0
DA:130,0
DA:131,0
DA:134,0
DA:135,0
DA:136,0
DA:137,0
DA:138,0
DA:139,0
DA:142,0
DA:143,0
DA:144,0
DA:145,0
DA:146,0
DA:147,0
DA:150,0
DA:151,0
DA:152,0
DA:153,0
DA:154,0
DA:155,0
DA:158,0
DA:159,0
DA:160,0
DA:161,0
DA:162,0
DA:163,0
DA:166,0
DA:167,0
DA:168,0
DA:169,0
DA:170,0
DA:171,0
DA:174,0
DA:175,0
DA:176,0
DA:177,0
DA:178,0
DA:179,0
DA:180,0
DA:181,0
DA:184,0
DA:185,0
DA:186,0
DA:187,0
DA:188,0
DA:189,0
DA:190,0
DA:191,0
DA:192,0
DA:195,0
DA:196,0
DA:197,0
DA:198,0
DA:199,0
DA:200,0
DA:201,0
DA:202,0
DA:203,0
DA:206,0
DA:207,0
DA:208,0
DA:209,0
DA:210,0
DA:211,0
DA:214,0
DA:215,0
DA:216,0
DA:217,0
DA:218,0
DA:219,0
DA:220,0
DA:221,0
DA:224,0
DA:225,0
DA:226,0
DA:227,0
DA:228,0
DA:229,0
DA:230,0
DA:231,0
DA:234,0
DA:235,0
DA:236,0
DA:237,0
DA:240,0
DA:241,0
DA:242,0
DA:243,0
DA:247,0
DA:248,0
DA:249,0
DA:253,0
DA:254,0
DA:255,0
DA:259,0
DA:260,0
DA:261,0
DA:265,0
DA:266,0
DA:267,0
DA:274,0
DA:275,0
DA:276,0
DA:278,0
DA:280,0
DA:283,0
DA:284,0
DA:285,0
DA:286,0
DA:290,0
DA:291,0
DA:292,0
DA:293,0
DA:294,0
DA:295,0
DA:296,0
DA:322,0
DA:324,0
DA:325,0
DA:327,0
DA:331,0
DA:332,0
DA:333,0
DA:334,0
DA:336,0
DA:337,0
DA:355,0
DA:356,0
DA:357,0
DA:358,0
DA:359,0
DA:360,0
DA:363,0
DA:364,0
DA:365,0
DA:366,0
DA:369,0
DA:370,0
DA:371,0
DA:372,0
DA:379,0
DA:380,0
DA:381,0
DA:382,0
DA:383,0
DA:384,0
DA:387,0
DA:388,0
DA:389,0
DA:390,0
DA:391,0
DA:392,0
DA:393,0
DA:396,0
DA:397,0
DA:398,0
DA:399,0
DA:400,0
DA:403,0
DA:404,0
DA:405,0
DA:406,0
DA:407,0
DA:414,0
DA:415,0
DA:416,0
DA:417,0
DA:418,0
DA:421,0
DA:422,0
DA:423,0
DA:424,0
DA:425,0
DA:426,0
DA:429,0
DA:430,0
DA:431,0
DA:432,0
DA:433,0
DA:436,0
DA:437,0
DA:438,0
DA:439,0
DA:440,0
DA:447,0
DA:448,0
DA:449,0
DA:450,0
DA:451,0
DA:454,0
DA:455,0
DA:456,0
DA:457,0
DA:458,0
DA:461,0
DA:462,0
DA:463,0
DA:464,0
DA:465,0
DA:468,0
DA:469,0
DA:470,0
DA:471,0
DA:472,0
DA:479,0
DA:480,0
DA:481,0
DA:482,0
DA:483,0
DA:484,0
DA:487,0
DA:488,0
DA:489,0
DA:490,0
DA:491,0
DA:492,0
DA:495,0
DA:496,0
DA:497,0
DA:498,0
DA:499,0
DA:500,0
DA:503,0
DA:504,0
DA:505,0
DA:506,0
DA:507,0
DA:508,0
DA:515,0
DA:516,0
DA:517,0
DA:518,0
DA:519,0
DA:522,0
DA:523,0
DA:524,0
DA:525,0
DA:526,0
DA:533,0
DA:534,0
DA:535,0
DA:536,0
DA:537,0
DA:540,0
DA:541,0
DA:542,0
DA:543,0
DA:544,0
DA:547,0
DA:548,0
DA:549,0
DA:550,0
DA:551,0
DA:552,0
DA:555,0
DA:556,0
DA:557,0
DA:558,0
DA:559,0
DA:562,0
DA:563,0
DA:564,0
DA:565,0
DA:566,0
DA:569,0
DA:570,0
DA:571,0
DA:572,0
DA:573,0
DA:574,0
DA:581,0
DA:582,0
DA:583,0
DA:584,0
DA:585,0
DA:588,0
DA:589,0
DA:590,0
DA:591,0
DA:592,0
DA:595,0
DA:596,0
DA:597,0
DA:598,0
DA:599,0
DA:602,0
DA:603,0
DA:604,0
DA:605,0
DA:606,0
DA:609,0
DA:610,0
DA:611,0
DA:612,0
DA:613,0
DA:614,0
DA:621,0
DA:622,0
DA:623,0
DA:624,0
DA:625,0
DA:627,0
DA:628,0
DA:629,0
DA:632,0
DA:633,0
DA:634,0
DA:635,0
DA:636,0
DA:637,0
DA:639,0
DA:640,0
DA:641,0
DA:642,0
DA:649,0
DA:650,0
DA:651,0
DA:652,0
DA:653,0
DA:656,0
DA:657,0
DA:658,0
DA:659,0
DA:660,0
DA:661,0
DA:662,0
DA:665,0
DA:666,0
DA:667,0
DA:668,0
DA:669,0
DA:670,0
DA:671,0
DA:672,0
DA:673,0
DA:674,0
DA:681,0
DA:682,0
DA:683,0
DA:684,0
DA:685,0
DA:687,0
DA:688,0
DA:689,0
DA:690,0
DA:691,0
DA:698,0
DA:699,0
DA:700,0
DA:701,0
DA:703,0
DA:704,0
DA:705,0
DA:706,0
DA:707,0
DA:714,0
DA:715,0
DA:716,0
DA:717,0
DA:718,0
DA:719,0
DA:726,0
DA:727,0
DA:728,0
DA:729,0
DA:730,0
DA:731,0
DA:732,0
DA:735,0
DA:736,0
DA:737,0
DA:738,0
DA:739,0
BRF:0
BRH:0
LF:421
LH:0
end_of_record
SF:/home/noah/src/probar/crates/probar/src/bridge.rs
FN:657,_RNvNtNtNtCsbqoqex1KQlH_6probar6bridge5tests25game_state_snapshot_testss_15test_with_phash
FN:649,_RNvNtNtNtCsbqoqex1KQlH_6probar6bridge5tests25game_state_snapshot_testss_17test_new_snapshot
FN:635,_RNvNtNtNtCsbqoqex1KQlH_6probar6bridge5tests21entity_snapshot_testss_18test_add_component
FN:623,_RNvNtNtNtCsbqoqex1KQlH_6probar6bridge5tests21entity_snapshot_testss_18test_with_position
FN:629,_RNvNtNtNtCsbqoqex1KQlH_6probar6bridge5tests21entity_snapshot_testss_18test_with_velocity
FN:615,_RNvNtNtNtCsbqoqex1KQlH_6probar6bridge5tests21entity_snapshot_testss_24test_new_entity_snapshot
FN:229,_RINvMs0_NtCsbqoqex1KQlH_6probar6bridgeNtB6_14EntitySnapshot13add_componentReEB8_
FN:203,_RINvMs0_NtCsbqoqex1KQlH_6probar6bridgeNtB6_14EntitySnapshot3newNtNtCs6juDKDKeRkf_5alloc6string6StringEB8_
FN:203,_RINvMs0_NtCsbqoqex1KQlH_6probar6bridgeNtB6_14EntitySnapshot3newReEB8_
FN:407,_RINvMs3_NtCsbqoqex1KQlH_6probar6bridgeNtB6_11StateBridge3rpcReEB8_
FN:109,_RINvMs_NtCsbqoqex1KQlH_6probar6bridgeNtB5_13GameStateData8set_flagReEB7_
FN:104,_RINvMs_NtCsbqoqex1KQlH_6probar6bridgeNtB5_13GameStateData9set_scoreReEB7_
FN:333,_RNCNvMs2_NtCsbqoqex1KQlH_6probar6bridgeNtB7_13SnapshotCache3get0B9_
FN:165,_RNCNvMs_NtCsbqoqex1KQlH_6probar6bridgeNtB6_13GameStateData12compute_hashs0_0B8_
FN:173,_RNCNvMs_NtCsbqoqex1KQlH_6probar6bridgeNtB6_13GameStateData12compute_hashs1_0B8_
FN:577,_RNvNtNtNtCsbqoqex1KQlH_6probar6bridge5tests21game_state_data_testss_13test_set_flag
FN:567,_RNvNtNtNtCsbqoqex1KQlH_6probar6bridge5tests21game_state_data_testss_14test_set_score
FN:552,_RNvNtNtNtCsbqoqex1KQlH_6probar6bridge5tests21game_state_data_testss_17test_add_position
FN:560,_RNvNtNtNtCsbqoqex1KQlH_6probar6bridge5tests21game_state_data_testss_17test_add_velocity
FN:544,_RNvNtNtNtCsbqoqex1KQlH_6probar6bridge5tests21game_state_data_testss_19test_new_state_data
FN:600,_RNvNtNtNtCsbqoqex1KQlH_6probar6bridge5tests21game_state_data_testss_27test_compute_hash_different
FN:586,_RNvNtNtNtCsbqoqex1KQlH_6probar6bridge5tests21game_state_data_testss_31test_compute_hash_deterministic
FN:732,_RNvNtNtNtCsbqoqex1KQlH_6probar6bridge5tests20snapshot_cache_testss_10test_clear
FN:695,_RNvNtNtNtCsbqoqex1KQlH_6probar6bridge5tests20snapshot_cache_testss_14test_new_cache
FN:714,_RNvNtNtNtCsbqoqex1KQlH_6probar6bridge5tests20snapshot_cache_testss_17test_lru_eviction
FN:702,_RNvNtNtNtCsbqoqex1KQlH_6probar6bridge5tests20snapshot_cache_testss_19test_insert_and_get
FN:65,_RNvMNtCsbqoqex1KQlH_6probar6bridgeNtB2_17GameStateSnapshot10with_phash
FN:53,_RNvMNtCsbqoqex1KQlH_6probar6bridgeNtB2_17GameStateSnapshot3new
FN:216,_RNvMs0_NtCsbqoqex1KQlH_6probar6bridgeNtB5_14EntitySnapshot13with_position
FN:223,_RNvMs0_NtCsbqoqex1KQlH_6probar6bridgeNtB5_14EntitySnapshot13with_velocity
FN:275,_RNvMs1_NtCsbqoqex1KQlH_6probar6bridgeNtB5_10VisualDiff12is_identical
FN:256,_RNvMs1_NtCsbqoqex1KQlH_6probar6bridgeNtB5_10VisualDiff3new
FN:269,_RNvMs1_NtCsbqoqex1KQlH_6probar6bridgeNtB5_10VisualDiff7matches
FN:330,_RNvMs2_NtCsbqoqex1KQlH_6probar6bridgeNtB5_13SnapshotCache3get
FN:365,_RNvMs2_NtCsbqoqex1KQlH_6probar6bridgeNtB5_13SnapshotCache3len
FN:321,_RNvMs2_NtCsbqoqex1KQlH_6probar6bridgeNtB5_13SnapshotCache3new
FN:358,_RNvMs2_NtCsbqoqex1KQlH_6probar6bridgeNtB5_13SnapshotCache5clear
FN:342,_RNvMs2_NtCsbqoqex1KQlH_6probar6bridgeNtB5_13SnapshotCache6insert
FN:371,_RNvMs2_NtCsbqoqex1KQlH_6probar6bridgeNtB5_13SnapshotCache8is_empty
FN:483,_RNvMs3_NtCsbqoqex1KQlH_6probar6bridgeNtB5_11StateBridge12clear_deltas
FN:429,_RNvMs3_NtCsbqoqex1KQlH_6probar6bridgeNtB5_11StateBridge12query_entity
FN:472,_RNvMs3_NtCsbqoqex1KQlH_6probar6bridgeNtB5_11StateBridge12record_delta
FN:491,_RNvMs3_NtCsbqoqex1KQlH_6probar6bridgeNtB5_11StateBridge13compute_phash
FN:513,_RNvMs3_NtCsbqoqex1KQlH_6probar6bridgeNtB5_11StateBridge14visual_compare
FN:478,_RNvMs3_NtCsbqoqex1KQlH_6probar6bridgeNtB5_11StateBridge6deltas
FN:396,_RNvMs3_NtCsbqoqex1KQlH_6probar6bridgeNtB5_11StateBridge6direct
FN:455,_RNvMs3_NtCsbqoqex1KQlH_6probar6bridgeNtB5_11StateBridge8snapshot
FN:420,_RNvMs3_NtCsbqoqex1KQlH_6probar6bridgeNtB5_11StateBridge9is_direct
FN:94,_RNvMs_NtCsbqoqex1KQlH_6probar6bridgeNtB4_13GameStateData12add_position
FN:99,_RNvMs_NtCsbqoqex1KQlH_6probar6bridgeNtB4_13GameStateData12add_velocity
FN:139,_RNvMs_NtCsbqoqex1KQlH_6probar6bridgeNtB4_13GameStateData12compute_hash
FN:115,_RNvMs_NtCsbqoqex1KQlH_6probar6bridgeNtB4_13GameStateData12get_position
FN:121,_RNvMs_NtCsbqoqex1KQlH_6probar6bridgeNtB4_13GameStateData12get_velocity
FN:89,_RNvMs_NtCsbqoqex1KQlH_6probar6bridgeNtB4_13GameStateData3new
FN:133,_RNvMs_NtCsbqoqex1KQlH_6probar6bridgeNtB4_13GameStateData8get_flag
FN:127,_RNvMs_NtCsbqoqex1KQlH_6probar6bridgeNtB4_13GameStateData9get_score
FN:682,_RNvNtNtNtCsbqoqex1KQlH_6probar6bridge5tests17visual_diff_testss_17test_is_identical
FN:668,_RNvNtNtNtCsbqoqex1KQlH_6probar6bridge5tests17visual_diff_testss_20test_new_visual_diff
FN:674,_RNvNtNtNtCsbqoqex1KQlH_6probar6bridge5tests17visual_diff_testss_22test_matches_threshold
FN:752,_RNvNtNtNtCsbqoqex1KQlH_6probar6bridge5tests18state_bridge_testss_15test_rpc_bridge
FN:789,_RNvNtNtNtCsbqoqex1KQlH_6probar6bridge5tests18state_bridge_testss_17test_clear_deltas
FN:758,_RNvNtNtNtCsbqoqex1KQlH_6probar6bridge5tests18state_bridge_testss_17test_query_entity
FN:778,_RNvNtNtNtCsbqoqex1KQlH_6probar6bridge5tests18state_bridge_testss_17test_record_delta
FN:801,_RNvNtNtNtCsbqoqex1KQlH_6probar6bridge5tests18state_bridge_testss_18test_compute_phash
FN:745,_RNvNtNtNtCsbqoqex1KQlH_6probar6bridge5tests18state_bridge_testss_18test_direct_bridge
FN:815,_RNvNtNtNtCsbqoqex1KQlH_6probar6bridge5tests18state_bridge_testss_19test_visual_compare
FN:766,_RNvNtNtNtCsbqoqex1KQlH_6probar6bridge5tests18state_bridge_testss_21test_snapshot_caching
FN:825,_RNvNtNtNtCsbqoqex1KQlH_6probar6bridge5tests18state_bridge_testss_29test_visual_compare_different
FN:229,_RINvMs0_NtCs4eUmXem5O3q_6probar6bridgeNtB6_14EntitySnapshot13add_componentpEB8_
FN:407,_RINvMs3_NtCs4eUmXem5O3q_6probar6bridgeNtB6_11StateBridge3rpcpEB8_
FN:109,_RINvMs_NtCs4eUmXem5O3q_6probar6bridgeNtB5_13GameStateData8set_flagpEB7_
FN:104,_RINvMs_NtCs4eUmXem5O3q_6probar6bridgeNtB5_13GameStateData9set_scorepEB7_
FN:203,_RINvMs0_NtCs4eUmXem5O3q_6probar6bridgeNtB6_14EntitySnapshot3newNtNtCs6juDKDKeRkf_5alloc6string6StringEB8_
FN:333,_RNCNvMs2_NtCs4eUmXem5O3q_6probar6bridgeNtB7_13SnapshotCache3get0B9_
FN:165,_RNCNvMs_NtCs4eUmXem5O3q_6probar6bridgeNtB6_13GameStateData12compute_hashs0_0B8_
FN:173,_RNCNvMs_NtCs4eUmXem5O3q_6probar6bridgeNtB6_13GameStateData12compute_hashs1_0B8_
FNDA:0,_RNvNtNtNtCsbqoqex1KQlH_6probar6bridge5tests25game_state_snapshot_testss_15test_with_phash
FNDA:0,_RNvNtNtNtCsbqoqex1KQlH_6probar6bridge5tests25game_state_snapshot_testss_17test_new_snapshot
FNDA:0,_RNvNtNtNtCsbqoqex1KQlH_6probar6bridge5tests21entity_snapshot_testss_18test_add_component
FNDA:0,_RNvNtNtNtCsbqoqex1KQlH_6probar6bridge5tests21entity_snapshot_testss_18test_with_position
FNDA:0,_RNvNtNtNtCsbqoqex1KQlH_6probar6bridge5tests21entity_snapshot_testss_18test_with_velocity
FNDA:0,_RNvNtNtNtCsbqoqex1KQlH_6probar6bridge5tests21entity_snapshot_testss_24test_new_entity_snapshot
FNDA:0,_RINvMs0_NtCsbqoqex1KQlH_6probar6bridgeNtB6_14EntitySnapshot13add_componentReEB8_
FNDA:0,_RINvMs0_NtCsbqoqex1KQlH_6probar6bridgeNtB6_14EntitySnapshot3newNtNtCs6juDKDKeRkf_5alloc6string6StringEB8_
FNDA:0,_RINvMs0_NtCsbqoqex1KQlH_6probar6bridgeNtB6_14EntitySnapshot3newReEB8_
FNDA:0,_RINvMs3_NtCsbqoqex1KQlH_6probar6bridgeNtB6_11StateBridge3rpcReEB8_
FNDA:0,_RINvMs_NtCsbqoqex1KQlH_6probar6bridgeNtB5_13GameStateData8set_flagReEB7_
FNDA:0,_RINvMs_NtCsbqoqex1KQlH_6probar6bridgeNtB5_13GameStateData9set_scoreReEB7_
FNDA:0,_RNCNvMs2_NtCsbqoqex1KQlH_6probar6bridgeNtB7_13SnapshotCache3get0B9_
FNDA:0,_RNCNvMs_NtCsbqoqex1KQlH_6probar6bridgeNtB6_13GameStateData12compute_hashs0_0B8_
FNDA:0,_RNCNvMs_NtCsbqoqex1KQlH_6probar6bridgeNtB6_13GameStateData12compute_hashs1_0B8_
FNDA:0,_RNvNtNtNtCsbqoqex1KQlH_6probar6bridge5tests21game_state_data_testss_13test_set_flag
FNDA:0,_RNvNtNtNtCsbqoqex1KQlH_6probar6bridge5tests21game_state_data_testss_14test_set_score
FNDA:0,_RNvNtNtNtCsbqoqex1KQlH_6probar6bridge5tests21game_state_data_testss_17test_add_position
FNDA:0,_RNvNtNtNtCsbqoqex1KQlH_6probar6bridge5tests21game_state_data_testss_17test_add_velocity
FNDA:0,_RNvNtNtNtCsbqoqex1KQlH_6probar6bridge5tests21game_state_data_testss_19test_new_state_data
FNDA:0,_RNvNtNtNtCsbqoqex1KQlH_6probar6bridge5tests21game_state_data_testss_27test_compute_hash_different
FNDA:0,_RNvNtNtNtCsbqoqex1KQlH_6probar6bridge5tests21game_state_data_testss_31test_compute_hash_deterministic
FNDA:0,_RNvNtNtNtCsbqoqex1KQlH_6probar6bridge5tests20snapshot_cache_testss_10test_clear
FNDA:0,_RNvNtNtNtCsbqoqex1KQlH_6probar6bridge5tests20snapshot_cache_testss_14test_new_cache
FNDA:0,_RNvNtNtNtCsbqoqex1KQlH_6probar6bridge5tests20snapshot_cache_testss_17test_lru_eviction
FNDA:0,_RNvNtNtNtCsbqoqex1KQlH_6probar6bridge5tests20snapshot_cache_testss_19test_insert_and_get
FNDA:0,_RNvMNtCsbqoqex1KQlH_6probar6bridgeNtB2_17GameStateSnapshot10with_phash
FNDA:0,_RNvMNtCsbqoqex1KQlH_6probar6bridgeNtB2_17GameStateSnapshot3new
FNDA:0,_RNvMs0_NtCsbqoqex1KQlH_6probar6bridgeNtB5_14EntitySnapshot13with_position
FNDA:0,_RNvMs0_NtCsbqoqex1KQlH_6probar6bridgeNtB5_14EntitySnapshot13with_velocity
FNDA:0,_RNvMs1_NtCsbqoqex1KQlH_6probar6bridgeNtB5_10VisualDiff12is_identical
FNDA:0,_RNvMs1_NtCsbqoqex1KQlH_6probar6bridgeNtB5_10VisualDiff3new
FNDA:0,_RNvMs1_NtCsbqoqex1KQlH_6probar6bridgeNtB5_10VisualDiff7matches
FNDA:0,_RNvMs2_NtCsbqoqex1KQlH_6probar6bridgeNtB5_13SnapshotCache3get
FNDA:0,_RNvMs2_NtCsbqoqex1KQlH_6probar6bridgeNtB5_13SnapshotCache3len
FNDA:0,_RNvMs2_NtCsbqoqex1KQlH_6probar6bridgeNtB5_13SnapshotCache3new
FNDA:0,_RNvMs2_NtCsbqoqex1KQlH_6probar6bridgeNtB5_13SnapshotCache5clear
FNDA:0,_RNvMs2_NtCsbqoqex1KQlH_6probar6bridgeNtB5_13SnapshotCache6insert
FNDA:0,_RNvMs2_NtCsbqoqex1KQlH_6probar6bridgeNtB5_13SnapshotCache8is_empty
FNDA:0,_RNvMs3_NtCsbqoqex1KQlH_6probar6bridgeNtB5_11StateBridge12clear_deltas
FNDA:0,_RNvMs3_NtCsbqoqex1KQlH_6probar6bridgeNtB5_11StateBridge12query_entity
FNDA:0,_RNvMs3_NtCsbqoqex1KQlH_6probar6bridgeNtB5_11StateBridge12record_delta
FNDA:0,_RNvMs3_NtCsbqoqex1KQlH_6probar6bridgeNtB5_11StateBridge13compute_phash
FNDA:0,_RNvMs3_NtCsbqoqex1KQlH_6probar6bridgeNtB5_11StateBridge14visual_compare
FNDA:0,_RNvMs3_NtCsbqoqex1KQlH_6probar6bridgeNtB5_11StateBridge6deltas
FNDA:0,_RNvMs3_NtCsbqoqex1KQlH_6probar6bridgeNtB5_11StateBridge6direct
FNDA:0,_RNvMs3_NtCsbqoqex1KQlH_6probar6bridgeNtB5_11StateBridge8snapshot
FNDA:0,_RNvMs3_NtCsbqoqex1KQlH_6probar6bridgeNtB5_11StateBridge9is_direct
FNDA:0,_RNvMs_NtCsbqoqex1KQlH_6probar6bridgeNtB4_13GameStateData12add_position
FNDA:0,_RNvMs_NtCsbqoqex1KQlH_6probar6bridgeNtB4_13GameStateData12add_velocity
FNDA:0,_RNvMs_NtCsbqoqex1KQlH_6probar6bridgeNtB4_13GameStateData12compute_hash
FNDA:0,_RNvMs_NtCsbqoqex1KQlH_6probar6bridgeNtB4_13GameStateData12get_position
FNDA:0,_RNvMs_NtCsbqoqex1KQlH_6probar6bridgeNtB4_13GameStateData12get_velocity
FNDA:0,_RNvMs_NtCsbqoqex1KQlH_6probar6bridgeNtB4_13GameStateData3new
FNDA:0,_RNvMs_NtCsbqoqex1KQlH_6probar6bridgeNtB4_13GameStateData8get_flag
FNDA:0,_RNvMs_NtCsbqoqex1KQlH_6probar6bridgeNtB4_13GameStateData9get_score
FNDA:0,_RNvNtNtNtCsbqoqex1KQlH_6probar6bridge5tests17visual_diff_testss_17test_is_identical
FNDA:0,_RNvNtNtNtCsbqoqex1KQlH_6probar6bridge5tests17visual_diff_testss_20test_new_visual_diff
FNDA:0,_RNvNtNtNtCsbqoqex1KQlH_6probar6bridge5tests17visual_diff_testss_22test_matches_threshold
FNDA:0,_RNvNtNtNtCsbqoqex1KQlH_6probar6bridge5tests18state_bridge_testss_15test_rpc_bridge
FNDA:0,_RNvNtNtNtCsbqoqex1KQlH_6probar6bridge5tests18state_bridge_testss_17test_clear_deltas
FNDA:0,_RNvNtNtNtCsbqoqex1KQlH_6probar6bridge5tests18state_bridge_testss_17test_query_entity
FNDA:0,_RNvNtNtNtCsbqoqex1KQlH_6probar6bridge5tests18state_bridge_testss_17test_record_delta
FNDA:0,_RNvNtNtNtCsbqoqex1KQlH_6probar6bridge5tests18state_bridge_testss_18test_compute_phash
FNDA:0,_RNvNtNtNtCsbqoqex1KQlH_6probar6bridge5tests18state_bridge_testss_18test_direct_bridge
FNDA:0,_RNvNtNtNtCsbqoqex1KQlH_6probar6bridge5tests18state_bridge_testss_19test_visual_compare
FNDA:0,_RNvNtNtNtCsbqoqex1KQlH_6probar6bridge5tests18state_bridge_testss_21test_snapshot_caching
FNDA:0,_RNvNtNtNtCsbqoqex1KQlH_6probar6bridge5tests18state_bridge_testss_29test_visual_compare_different
FNDA:0,_RINvMs0_NtCs4eUmXem5O3q_6probar6bridgeNtB6_14EntitySnapshot13add_componentpEB8_
FNDA:0,_RINvMs3_NtCs4eUmXem5O3q_6probar6bridgeNtB6_11StateBridge3rpcpEB8_
FNDA:0,_RINvMs_NtCs4eUmXem5O3q_6probar6bridgeNtB5_13GameStateData8set_flagpEB7_
FNDA:0,_RINvMs_NtCs4eUmXem5O3q_6probar6bridgeNtB5_13GameStateData9set_scorepEB7_
FNDA:0,_RINvMs0_NtCs4eUmXem5O3q_6probar6bridgeNtB6_14EntitySnapshot3newNtNtCs6juDKDKeRkf_5alloc6string6StringEB8_
FNDA:0,_RNCNvMs2_NtCs4eUmXem5O3q_6probar6bridgeNtB7_13SnapshotCache3get0B9_
FNDA:0,_RNCNvMs_NtCs4eUmXem5O3q_6probar6bridgeNtB6_13GameStateData12compute_hashs0_0B8_
FNDA:0,_RNCNvMs_NtCs4eUmXem5O3q_6probar6bridgeNtB6_13GameStateData12compute_hashs1_0B8_
FNF:67
FNH:0
DA:53,0
DA:54,0
DA:55,0
DA:56,0
DA:57,0
DA:58,0
DA:59,0
DA:60,0
DA:61,0
DA:65,0
DA:66,0
DA:67,0
DA:68,0
DA:89,0
DA:90,0
DA:91,0
DA:94,0
DA:95,0
DA:96,0
DA:99,0
DA:100,0
DA:101,0
DA:104,0
DA:105,0
DA:106,0
DA:109,0
DA:110,0
DA:111,0
DA:115,0
DA:116,0
DA:117,0
DA:121,0
DA:122,0
DA:123,0
DA:127,0
DA:128,0
DA:129,0
DA:133,0
DA:134,0
DA:135,0
DA:139,0
DA:143,0
DA:146,0
DA:147,0
DA:148,0
DA:149,0
DA:150,0
DA:151,0
DA:152,0
DA:155,0
DA:156,0
DA:157,0
DA:158,0
DA:159,0
DA:160,0
DA:161,0
DA:164,0
DA:165,0
DA:166,0
DA:167,0
DA:168,0
DA:169,0
DA:172,0
DA:173,0
DA:174,0
DA:175,0
DA:176,0
DA:177,0
DA:179,0
DA:180,0
DA:203,0
DA:204,0
DA:205,0
DA:206,0
DA:207,0
DA:208,0
DA:209,0
DA:210,0
DA:211,0
DA:212,0
DA:216,0
DA:217,0
DA:218,0
DA:219,0
DA:223,0
DA:224,0
DA:225,0
DA:226,0
DA:229,0
DA:230,0
DA:231,0
DA:256,0
DA:257,0
DA:258,0
DA:259,0
DA:260,0
DA:261,0
DA:262,0
DA:263,0
DA:264,0
DA:265,0
DA:269,0
DA:270,0
DA:271,0
DA:275,0
DA:276,0
DA:277,0
DA:321,0
DA:322,0
DA:323,0
DA:324,0
DA:325,0
DA:326,0
DA:327,0
DA:330,0
DA:331,0
DA:333,0
DA:334,0
DA:335,0
DA:337,0
DA:339,0
DA:342,0
DA:344,0
DA:345,0
DA:346,0
DA:347,0
DA:348,0
DA:349,0
DA:353,0
DA:354,0
DA:355,0
DA:358,0
DA:359,0
DA:360,0
DA:361,0
DA:365,0
DA:366,0
DA:367,0
DA:371,0
DA:372,0
DA:373,0
DA:396,0
DA:397,0
DA:398,0
DA:399,0
DA:400,0
DA:401,0
DA:402,0
DA:403,0
DA:407,0
DA:408,0
DA:409,0
DA:410,0
DA:411,0
DA:412,0
DA:413,0
DA:414,0
DA:415,0
DA:416,0
DA:420,0
DA:421,0
DA:422,0
DA:429,0
DA:430,0
DA:434,0
DA:435,0
DA:436,0
DA:437,0
DA:439,0
DA:441,0
DA:442,0
DA:443,0
DA:444,0
DA:445,0
DA:448,0
DA:455,0
DA:457,0
DA:458,0
DA:459,0
DA:462,0
DA:463,0
DA:466,0
DA:468,0
DA:469,0
DA:472,0
DA:473,0
DA:474,0
DA:478,0
DA:479,0
DA:480,0
DA:483,0
DA:484,0
DA:485,0
DA:491,0
DA:498,0
DA:501,0
DA:502,0
DA:503,0
DA:504,0
DA:505,0
DA:508,0
DA:509,0
DA:513,0
DA:514,0
DA:515,0
DA:518,0
DA:519,0
DA:521,0
DA:522,0
DA:523,0
DA:524,0
DA:525,0
DA:526,0
DA:527,0
DA:528,0
DA:529,0
DA:544,0
DA:545,0
DA:546,0
DA:547,0
DA:548,0
DA:549,0
DA:552,0
DA:553,0
DA:554,0
DA:555,0
DA:556,0
DA:557,0
DA:560,0
DA:561,0
DA:562,0
DA:563,0
DA:564,0
DA:567,0
DA:568,0
DA:569,0
DA:570,0
DA:571,0
DA:572,0
DA:573,0
DA:574,0
DA:577,0
DA:578,0
DA:579,0
DA:580,0
DA:581,0
DA:582,0
DA:583,0
DA:586,0
DA:587,0
DA:588,0
DA:589,0
DA:591,0
DA:592,0
DA:593,0
DA:596,0
DA:597,0
DA:600,0
DA:601,0
DA:602,0
DA:604,0
DA:605,0
DA:607,0
DA:608,0
DA:615,0
DA:616,0
DA:617,0
DA:618,0
DA:619,0
DA:620,0
DA:623,0
DA:624,0
DA:625,0
DA:626,0
DA:629,0
DA:630,0
DA:631,0
DA:632,0
DA:635,0
DA:636,0
DA:637,0
DA:638,0
DA:639,0
DA:640,0
DA:642,0
DA:649,0
DA:650,0
DA:651,0
DA:652,0
DA:653,0
DA:654,0
DA:657,0
DA:658,0
DA:659,0
DA:660,0
DA:661,0
DA:668,0
DA:669,0
DA:670,0
DA:671,0
DA:674,0
DA:675,0
DA:676,0
DA:677,0
DA:678,0
DA:679,0
DA:682,0
DA:683,0
DA:684,0
DA:686,0
DA:687,0
DA:688,0
DA:695,0
DA:696,0
DA:697,0
DA:698,0
DA:699,0
DA:702,0
DA:703,0
DA:704,0
DA:705,0
DA:707,0
DA:708,0
DA:709,0
DA:710,0
DA:711,0
DA:714,0
DA:715,0
DA:717,0
DA:718,0
DA:721,0
DA:724,0
DA:726,0
DA:727,0
DA:729,0
DA:732,0
DA:733,0
DA:734,0
DA:735,0
DA:736,0
DA:737,0
DA:738,0
DA:745,0
DA:746,0
DA:747,0
DA:748,0
DA:749,0
DA:752,0
DA:753,0
DA:754,0
DA:755,0
DA:758,0
DA:759,0
DA:760,0
DA:761,0
DA:762,0
DA:763,0
DA:766,0
DA:767,0
DA:768,0
DA:770,0
DA:771,0
DA:774,0
DA:775,0
DA:778,0
DA:779,0
DA:780,0
DA:782,0
DA:783,0
DA:785,0
DA:786,0
DA:789,0
DA:790,0
DA:791,0
DA:793,0
DA:794,0
DA:795,0
DA:797,0
DA:798,0
DA:801,0
DA:802,0
DA:803,0
DA:804,0
DA:806,0
DA:807,0
DA:808,0
DA:810,0
DA:811,0
DA:812,0
DA:815,0
DA:816,0
DA:817,0
DA:819,0
DA:820,0
DA:821,0
DA:822,0
DA:825,0
DA:826,0
DA:827,0
DA:829,0
DA:831,0
DA:832,0
BRF:0
BRH:0
LF:405
LH:0
end_of_record
SF:/home/noah/src/probar/crates/probar/src/browser.rs
FN:72,_RINvMs_NtCsbqoqex1KQlH_6probar7browserNtB5_13BrowserConfig15with_user_agentpEB7_
FN:65,_RINvMs_NtCsbqoqex1KQlH_6probar7browserNtB5_13BrowserConfig18with_chromium_pathpEB7_
FN:628,_RINvMs_NtNtCsbqoqex1KQlH_6probar7browser4mockNtB5_4Page9eval_wasmpEB9_
FN:573,_RNvMNtNtCsbqoqex1KQlH_6probar7browser4mockNtB2_7Browser6config
FN:555,_RNvMNtNtCsbqoqex1KQlH_6probar7browser4mockNtB2_7Browser6launch
FN:564,_RNvMNtNtCsbqoqex1KQlH_6probar7browser4mockNtB2_7Browser8new_page
FN:79,_RNvMs_NtCsbqoqex1KQlH_6probar7browserNtB4_13BrowserConfig15with_no_sandbox
FN:650,_RNvMs_NtNtCsbqoqex1KQlH_6probar7browser4mockNtB4_4Page10screenshot
FN:656,_RNvMs_NtNtCsbqoqex1KQlH_6probar7browser4mockNtB4_4Page11current_url
FN:662,_RNvMs_NtNtCsbqoqex1KQlH_6probar7browser4mockNtB4_4Page13is_wasm_ready
FN:618,_RNvMs_NtNtCsbqoqex1KQlH_6probar7browser4mockNtB4_4Page19wait_for_wasm_ready
FN:594,_RNvMs_NtNtCsbqoqex1KQlH_6probar7browser4mockNtB4_4Page3new
FN:608,_RNvMs_NtNtCsbqoqex1KQlH_6probar7browser4mockNtB4_4Page4goto
FN:641,_RNvMs_NtNtCsbqoqex1KQlH_6probar7browser4mockNtB4_4Page5touch
FN:58,_RNvMs_NtCsbqoqex1KQlH_6probar7browserNtB4_13BrowserConfig13with_headless
FN:50,_RNvMs_NtCsbqoqex1KQlH_6probar7browserNtB4_13BrowserConfig13with_viewport
FN:33,_RNvXNtCsbqoqex1KQlH_6probar7browserNtB2_13BrowserConfigNtNtCs6RpC691fUBl_4core7default7Default7default
FN:573,_RNvMNtNtCs4eUmXem5O3q_6probar7browser4mockNtB2_7Browser6config
FN:555,_RNvMNtNtCs4eUmXem5O3q_6probar7browser4mockNtB2_7Browser6launch
FN:564,_RNvMNtNtCs4eUmXem5O3q_6probar7browser4mockNtB2_7Browser8new_page
FN:650,_RNvMs_NtNtCs4eUmXem5O3q_6probar7browser4mockNtB4_4Page10screenshot
FN:656,_RNvMs_NtNtCs4eUmXem5O3q_6probar7browser4mockNtB4_4Page11current_url
FN:662,_RNvMs_NtNtCs4eUmXem5O3q_6probar7browser4mockNtB4_4Page13is_wasm_ready
FN:618,_RNvMs_NtNtCs4eUmXem5O3q_6probar7browser4mockNtB4_4Page19wait_for_wasm_ready
FN:594,_RNvMs_NtNtCs4eUmXem5O3q_6probar7browser4mockNtB4_4Page3new
FN:608,_RNvMs_NtNtCs4eUmXem5O3q_6probar7browser4mockNtB4_4Page4goto
FN:641,_RNvMs_NtNtCs4eUmXem5O3q_6probar7browser4mockNtB4_4Page5touch
FN:72,_RINvMs_NtCs4eUmXem5O3q_6probar7browserNtB5_13BrowserConfig15with_user_agentpEB7_
FN:65,_RINvMs_NtCs4eUmXem5O3q_6probar7browserNtB5_13BrowserConfig18with_chromium_pathpEB7_
FN:628,_RINvMs_NtNtCs4eUmXem5O3q_6probar7browser4mockNtB5_4Page9eval_wasmpEB9_
FN:58,_RNvMs_NtCs4eUmXem5O3q_6probar7browserNtB4_13BrowserConfig13with_headless
FN:50,_RNvMs_NtCs4eUmXem5O3q_6probar7browserNtB4_13BrowserConfig13with_viewport
FN:79,_RNvMs_NtCs4eUmXem5O3q_6probar7browserNtB4_13BrowserConfig15with_no_sandbox
FN:33,_RNvXNtCs4eUmXem5O3q_6probar7browserNtB2_13BrowserConfigNtNtCs6RpC691fUBl_4core7default7Default7default
FNDA:0,_RINvMs_NtCsbqoqex1KQlH_6probar7browserNtB5_13BrowserConfig15with_user_agentpEB7_
FNDA:0,_RINvMs_NtCsbqoqex1KQlH_6probar7browserNtB5_13BrowserConfig18with_chromium_pathpEB7_
FNDA:0,_RINvMs_NtNtCsbqoqex1KQlH_6probar7browser4mockNtB5_4Page9eval_wasmpEB9_
FNDA:0,_RNvMNtNtCsbqoqex1KQlH_6probar7browser4mockNtB2_7Browser6config
FNDA:0,_RNvMNtNtCsbqoqex1KQlH_6probar7browser4mockNtB2_7Browser6launch
FNDA:0,_RNvMNtNtCsbqoqex1KQlH_6probar7browser4mockNtB2_7Browser8new_page
FNDA:0,_RNvMs_NtCsbqoqex1KQlH_6probar7browserNtB4_13BrowserConfig15with_no_sandbox
FNDA:0,_RNvMs_NtNtCsbqoqex1KQlH_6probar7browser4mockNtB4_4Page10screenshot
FNDA:0,_RNvMs_NtNtCsbqoqex1KQlH_6probar7browser4mockNtB4_4Page11current_url
FNDA:0,_RNvMs_NtNtCsbqoqex1KQlH_6probar7browser4mockNtB4_4Page13is_wasm_ready
FNDA:0,_RNvMs_NtNtCsbqoqex1KQlH_6probar7browser4mockNtB4_4Page19wait_for_wasm_ready
FNDA:0,_RNvMs_NtNtCsbqoqex1KQlH_6probar7browser4mockNtB4_4Page3new
FNDA:0,_RNvMs_NtNtCsbqoqex1KQlH_6probar7browser4mockNtB4_4Page4goto
FNDA:0,_RNvMs_NtNtCsbqoqex1KQlH_6probar7browser4mockNtB4_4Page5touch
FNDA:0,_RNvMs_NtCsbqoqex1KQlH_6probar7browserNtB4_13BrowserConfig13with_headless
FNDA:0,_RNvMs_NtCsbqoqex1KQlH_6probar7browserNtB4_13BrowserConfig13with_viewport
FNDA:0,_RNvXNtCsbqoqex1KQlH_6probar7browserNtB2_13BrowserConfigNtNtCs6RpC691fUBl_4core7default7Default7default
FNDA:0,_RNvMNtNtCs4eUmXem5O3q_6probar7browser4mockNtB2_7Browser6config
FNDA:0,_RNvMNtNtCs4eUmXem5O3q_6probar7browser4mockNtB2_7Browser6launch
FNDA:0,_RNvMNtNtCs4eUmXem5O3q_6probar7browser4mockNtB2_7Browser8new_page
FNDA:0,_RNvMs_NtNtCs4eUmXem5O3q_6probar7browser4mockNtB4_4Page10screenshot
FNDA:0,_RNvMs_NtNtCs4eUmXem5O3q_6probar7browser4mockNtB4_4Page11current_url
FNDA:0,_RNvMs_NtNtCs4eUmXem5O3q_6probar7browser4mockNtB4_4Page13is_wasm_ready
FNDA:0,_RNvMs_NtNtCs4eUmXem5O3q_6probar7browser4mockNtB4_4Page19wait_for_wasm_ready
FNDA:0,_RNvMs_NtNtCs4eUmXem5O3q_6probar7browser4mockNtB4_4Page3new
FNDA:0,_RNvMs_NtNtCs4eUmXem5O3q_6probar7browser4mockNtB4_4Page4goto
FNDA:0,_RNvMs_NtNtCs4eUmXem5O3q_6probar7browser4mockNtB4_4Page5touch
FNDA:0,_RINvMs_NtCs4eUmXem5O3q_6probar7browserNtB5_13BrowserConfig15with_user_agentpEB7_
FNDA:0,_RINvMs_NtCs4eUmXem5O3q_6probar7browserNtB5_13BrowserConfig18with_chromium_pathpEB7_
FNDA:0,_RINvMs_NtNtCs4eUmXem5O3q_6probar7browser4mockNtB5_4Page9eval_wasmpEB9_
FNDA:0,_RNvMs_NtCs4eUmXem5O3q_6probar7browserNtB4_13BrowserConfig13with_headless
FNDA:0,_RNvMs_NtCs4eUmXem5O3q_6probar7browserNtB4_13BrowserConfig13with_viewport
FNDA:0,_RNvMs_NtCs4eUmXem5O3q_6probar7browserNtB4_13BrowserConfig15with_no_sandbox
FNDA:0,_RNvXNtCs4eUmXem5O3q_6probar7browserNtB2_13BrowserConfigNtNtCs6RpC691fUBl_4core7default7Default7default
FNF:17
FNH:0
DA:33,0
DA:34,0
DA:35,0
DA:36,0
DA:37,0
DA:38,0
DA:39,0
DA:40,0
DA:41,0
DA:42,0
DA:43,0
DA:44,0
DA:50,0
DA:51,0
DA:52,0
DA:53,0
DA:54,0
DA:58,0
DA:59,0
DA:60,0
DA:61,0
DA:65,0
DA:66,0
DA:67,0
DA:68,0
DA:72,0
DA:73,0
DA:74,0
DA:75,0
DA:79,0
DA:80,0
DA:81,0
DA:82,0
DA:555,0
DA:556,0
DA:557,0
DA:564,0
DA:565,0
DA:566,0
DA:567,0
DA:568,0
DA:569,0
DA:573,0
DA:574,0
DA:575,0
DA:594,0
DA:595,0
DA:596,0
DA:597,0
DA:598,0
DA:599,0
DA:600,0
DA:601,0
DA:608,0
DA:609,0
DA:610,0
DA:611,0
DA:618,0
DA:619,0
DA:620,0
DA:621,0
DA:628,0
DA:629,0
DA:630,0
DA:631,0
DA:632,0
DA:633,0
DA:634,0
DA:641,0
DA:642,0
DA:643,0
DA:650,0
DA:651,0
DA:652,0
DA:656,0
DA:657,0
DA:658,0
DA:662,0
DA:663,0
DA:664,0
BRF:0
BRH:0
LF:80
LH:0
end_of_record
SF:/home/noah/src/probar/crates/probar/src/context.rs
FN:909,_RNvNtNtNtCsbqoqex1KQlH_6probar7context5tests12cookie_testss_14test_same_site
FN:893,_RNvNtNtNtCsbqoqex1KQlH_6probar7context5tests12cookie_testss_14test_with_path
FN:900,_RNvNtNtNtCsbqoqex1KQlH_6probar7context5tests12cookie_testss_21test_secure_http_only
FN:884,_RNvNtNtNtCsbqoqex1KQlH_6probar7context5tests12cookie_testss_8test_new
FN:1008,_RNvNtNtNtCsbqoqex1KQlH_6probar7context5tests21browser_context_testss_10test_pages
FN:1024,_RNvNtNtNtCsbqoqex1KQlH_6probar7context5tests21browser_context_testss_12test_storage
FN:998,_RNvNtNtNtCsbqoqex1KQlH_6probar7context5tests21browser_context_testss_16test_error_state
FN:980,_RNvNtNtNtCsbqoqex1KQlH_6probar7context5tests21browser_context_testss_22test_state_transitions
FN:972,_RNvNtNtNtCsbqoqex1KQlH_6probar7context5tests21browser_context_testss_8test_new
FN:708,_RNCNvMs4_NtCsbqoqex1KQlH_6probar7contextNtB7_11ContextPool11context_ids0B9_
FN:652,_RNCNvMs4_NtCsbqoqex1KQlH_6probar7contextNtB7_11ContextPool6remove0B9_
FN:73,_RNvMNtCsbqoqex1KQlH_6probar7contextNtB2_12StorageState20with_session_storage
FN:338,_RNvMs1_NtCsbqoqex1KQlH_6probar7contextNtB5_13ContextConfig10with_video
FN:289,_RNvMs1_NtCsbqoqex1KQlH_6probar7contextNtB5_13ContextConfig11with_locale
FN:296,_RNvMs1_NtCsbqoqex1KQlH_6probar7contextNtB5_13ContextConfig13with_timezone
FN:310,_RNvMs1_NtCsbqoqex1KQlH_6probar7contextNtB5_13ContextConfig15with_permission
FN:282,_RNvMs1_NtCsbqoqex1KQlH_6probar7contextNtB5_13ContextConfig15with_user_agent
FN:267,_RNvMs1_NtCsbqoqex1KQlH_6probar7contextNtB5_13ContextConfig17with_device_scale
FN:331,_RNvMs1_NtCsbqoqex1KQlH_6probar7contextNtB5_13ContextConfig18with_storage_state
FN:352,_RNvMs1_NtCsbqoqex1KQlH_6probar7contextNtB5_13ContextConfig19ignore_https_errors
FN:345,_RNvMs1_NtCsbqoqex1KQlH_6probar7contextNtB5_13ContextConfig8with_har
FN:483,_RNvMs2_NtCsbqoqex1KQlH_6probar7contextNtB5_14BrowserContext13clear_storage
FN:450,_RNvMs2_NtCsbqoqex1KQlH_6probar7contextNtB5_14BrowserContext6age_ms
FN:705,_RNvMs4_NtCsbqoqex1KQlH_6probar7contextNtB5_11ContextPool11context_ids
FN:537,_RNvMs4_NtCsbqoqex1KQlH_6probar7contextNtB5_11ContextPool19with_default_config
FN:651,_RNvMs4_NtCsbqoqex1KQlH_6probar7contextNtB5_11ContextPool6remove
FN:740,_RNvMs6_NtCsbqoqex1KQlH_6probar7contextNtB5_14ContextManager14with_pool_size
FN:143,_RNvMs_NtCsbqoqex1KQlH_6probar7contextNtB4_6Cookie12with_expires
FN:518,_RNvXs3_NtCsbqoqex1KQlH_6probar7contextNtB5_11ContextPoolNtNtCs6RpC691fUBl_4core7default7Default7default
FN:723,_RNvXs5_NtCsbqoqex1KQlH_6probar7contextNtB5_14ContextManagerNtNtCs6RpC691fUBl_4core7default7Default7default
FN:1166,_RNvNtNtNtCsbqoqex1KQlH_6probar7context5tests21context_manager_testss_10test_stats
FN:1154,_RNvNtNtNtCsbqoqex1KQlH_6probar7context5tests21context_manager_testss_12test_cleanup
FN:1117,_RNvNtNtNtCsbqoqex1KQlH_6probar7context5tests21context_manager_testss_16test_get_context
FN:1132,_RNvNtNtNtCsbqoqex1KQlH_6probar7context5tests21context_manager_testss_20test_release_context
FN:1143,_RNvNtNtNtCsbqoqex1KQlH_6probar7context5tests21context_manager_testss_28test_create_isolated_context
FN:1110,_RNvNtNtNtCsbqoqex1KQlH_6probar7context5tests21context_manager_testss_8test_new
FN:683,_RNCNCNvMs4_NtCsbqoqex1KQlH_6probar7contextNtB9_11ContextPool12in_use_count00Bb_
FN:674,_RNCNCNvMs4_NtCsbqoqex1KQlH_6probar7contextNtB9_11ContextPool15available_count00Bb_
FN:466,_RNCNvMs2_NtCsbqoqex1KQlH_6probar7contextNtB7_14BrowserContext10close_page0B9_
FN:473,_RNCNvMs2_NtCsbqoqex1KQlH_6probar7contextNtB7_14BrowserContext10page_count0B9_
FN:479,_RNCNvMs2_NtCsbqoqex1KQlH_6probar7contextNtB7_14BrowserContext13storage_state0B9_
FN:683,_RNCNvMs4_NtCsbqoqex1KQlH_6probar7contextNtB7_11ContextPool12in_use_count0B9_
FN:674,_RNCNvMs4_NtCsbqoqex1KQlH_6probar7contextNtB7_11ContextPool15available_count0B9_
FN:633,_RNCNvMs4_NtCsbqoqex1KQlH_6probar7contextNtB7_11ContextPool5close0B9_
FN:666,_RNCNvMs4_NtCsbqoqex1KQlH_6probar7contextNtB7_11ContextPool5count0B9_
FN:544,_RNCNvMs4_NtCsbqoqex1KQlH_6probar7contextNtB7_11ContextPool6create0B9_
FN:568,_RNCNvMs4_NtCsbqoqex1KQlH_6probar7contextNtB7_11ContextPool6creates0_0B9_
FN:558,_RNCNvMs4_NtCsbqoqex1KQlH_6probar7contextNtB7_11ContextPool6creates_0B9_
FN:580,_RNCNvMs4_NtCsbqoqex1KQlH_6probar7contextNtB7_11ContextPool7acquire0B9_
FN:598,_RNCNvMs4_NtCsbqoqex1KQlH_6probar7contextNtB7_11ContextPool7acquires_0B9_
FN:614,_RNCNvMs4_NtCsbqoqex1KQlH_6probar7contextNtB7_11ContextPool7release0B9_
FN:749,_RNCNvMs6_NtCsbqoqex1KQlH_6probar7contextNtB7_14ContextManager11get_context0B9_
FN:769,_RNCNvMs6_NtCsbqoqex1KQlH_6probar7contextNtB7_14ContextManager15release_context0B9_
FN:790,_RNCNvMs6_NtCsbqoqex1KQlH_6probar7contextNtB7_14ContextManager23create_isolated_context0B9_
FN:816,_RNCNvMs6_NtCsbqoqex1KQlH_6probar7contextNtB7_14ContextManager5stats0B9_
FN:1098,_RNvNtNtNtCsbqoqex1KQlH_6probar7context5tests18context_pool_testss_10test_clear
FN:1079,_RNvNtNtNtCsbqoqex1KQlH_6probar7context5tests18context_pool_testss_10test_close
FN:1048,_RNvNtNtNtCsbqoqex1KQlH_6probar7context5tests18context_pool_testss_11test_create
FN:1088,_RNvNtNtNtCsbqoqex1KQlH_6probar7context5tests18context_pool_testss_14test_close_all
FN:1056,_RNvNtNtNtCsbqoqex1KQlH_6probar7context5tests18context_pool_testss_17test_max_contexts
FN:1066,_RNvNtNtNtCsbqoqex1KQlH_6probar7context5tests18context_pool_testss_20test_acquire_release
FN:1042,_RNvNtNtNtCsbqoqex1KQlH_6probar7context5tests18context_pool_testss_8test_new
FN:936,_RNvNtNtNtCsbqoqex1KQlH_6probar7context5tests20context_config_testss_11test_mobile
FN:962,_RNvNtNtNtCsbqoqex1KQlH_6probar7context5tests20context_config_testss_12test_offline
FN:952,_RNvNtNtNtCsbqoqex1KQlH_6probar7context5tests20context_config_testss_16test_with_header
FN:928,_RNvNtNtNtCsbqoqex1KQlH_6probar7context5tests20context_config_testss_18test_with_viewport
FN:943,_RNvNtNtNtCsbqoqex1KQlH_6probar7context5tests20context_config_testss_21test_with_geolocation
FN:920,_RNvNtNtNtCsbqoqex1KQlH_6probar7context5tests20context_config_testss_8test_new
FN:872,_RNvNtNtNtCsbqoqex1KQlH_6probar7context5tests19storage_state_testss_10test_clear
FN:858,_RNvNtNtNtCsbqoqex1KQlH_6probar7context5tests19storage_state_testss_16test_with_cookie
FN:865,_RNvNtNtNtCsbqoqex1KQlH_6probar7context5tests19storage_state_testss_23test_with_local_storage
FN:852,_RNvNtNtNtCsbqoqex1KQlH_6probar7context5tests19storage_state_testss_8test_new
FN:56,_RNvMNtCsbqoqex1KQlH_6probar7contextNtB2_12StorageState11with_cookie
FN:63,_RNvMNtCsbqoqex1KQlH_6probar7contextNtB2_12StorageState18with_local_storage
FN:50,_RNvMNtCsbqoqex1KQlH_6probar7contextNtB2_12StorageState3new
FN:90,_RNvMNtCsbqoqex1KQlH_6probar7contextNtB2_12StorageState5clear
FN:83,_RNvMNtCsbqoqex1KQlH_6probar7contextNtB2_12StorageState8is_empty
FN:317,_RNvMs1_NtCsbqoqex1KQlH_6probar7contextNtB5_13ContextConfig11with_header
FN:259,_RNvMs1_NtCsbqoqex1KQlH_6probar7contextNtB5_13ContextConfig13with_viewport
FN:303,_RNvMs1_NtCsbqoqex1KQlH_6probar7contextNtB5_13ContextConfig16with_geolocation
FN:250,_RNvMs1_NtCsbqoqex1KQlH_6probar7contextNtB5_13ContextConfig3new
FN:274,_RNvMs1_NtCsbqoqex1KQlH_6probar7contextNtB5_13ContextConfig6mobile
FN:324,_RNvMs1_NtCsbqoqex1KQlH_6probar7contextNtB5_13ContextConfig7offline
FN:490,_RNvMs2_NtCsbqoqex1KQlH_6probar7contextNtB5_14BrowserContext10add_cookie
FN:464,_RNvMs2_NtCsbqoqex1KQlH_6probar7contextNtB5_14BrowserContext10close_page
FN:472,_RNvMs2_NtCsbqoqex1KQlH_6probar7contextNtB5_14BrowserContext10page_count
FN:432,_RNvMs2_NtCsbqoqex1KQlH_6probar7contextNtB5_14BrowserContext12is_available
FN:497,_RNvMs2_NtCsbqoqex1KQlH_6probar7contextNtB5_14BrowserContext13clear_cookies
FN:478,_RNvMs2_NtCsbqoqex1KQlH_6probar7contextNtB5_14BrowserContext13storage_state
FN:391,_RNvMs2_NtCsbqoqex1KQlH_6probar7contextNtB5_14BrowserContext3new
FN:420,_RNvMs2_NtCsbqoqex1KQlH_6probar7contextNtB5_14BrowserContext5close
FN:405,_RNvMs2_NtCsbqoqex1KQlH_6probar7contextNtB5_14BrowserContext5ready
FN:410,_RNvMs2_NtCsbqoqex1KQlH_6probar7contextNtB5_14BrowserContext7acquire
FN:415,_RNvMs2_NtCsbqoqex1KQlH_6probar7contextNtB5_14BrowserContext7release
FN:455,_RNvMs2_NtCsbqoqex1KQlH_6probar7contextNtB5_14BrowserContext8new_page
FN:444,_RNvMs2_NtCsbqoqex1KQlH_6probar7contextNtB5_14BrowserContext9is_closed
FN:438,_RNvMs2_NtCsbqoqex1KQlH_6probar7contextNtB5_14BrowserContext9is_in_use
FN:425,_RNvMs2_NtCsbqoqex1KQlH_6probar7contextNtB5_14BrowserContext9set_error
FN:680,_RNvMs4_NtCsbqoqex1KQlH_6probar7contextNtB5_11ContextPool12in_use_count
FN:671,_RNvMs4_NtCsbqoqex1KQlH_6probar7contextNtB5_11ContextPool15available_count
FN:526,_RNvMs4_NtCsbqoqex1KQlH_6probar7contextNtB5_11ContextPool3new
FN:697,_RNvMs4_NtCsbqoqex1KQlH_6probar7contextNtB5_11ContextPool5clear
FN:632,_RNvMs4_NtCsbqoqex1KQlH_6probar7contextNtB5_11ContextPool5close
FN:665,_RNvMs4_NtCsbqoqex1KQlH_6probar7contextNtB5_11ContextPool5count
FN:543,_RNvMs4_NtCsbqoqex1KQlH_6probar7contextNtB5_11ContextPool6create
FN:579,_RNvMs4_NtCsbqoqex1KQlH_6probar7contextNtB5_11ContextPool7acquire
FN:613,_RNvMs4_NtCsbqoqex1KQlH_6probar7contextNtB5_11ContextPool7release
FN:688,_RNvMs4_NtCsbqoqex1KQlH_6probar7contextNtB5_11ContextPool9close_all
FN:748,_RNvMs6_NtCsbqoqex1KQlH_6probar7contextNtB5_14ContextManager11get_context
FN:768,_RNvMs6_NtCsbqoqex1KQlH_6probar7contextNtB5_14ContextManager15release_context
FN:783,_RNvMs6_NtCsbqoqex1KQlH_6probar7contextNtB5_14ContextManager23create_isolated_context
FN:731,_RNvMs6_NtCsbqoqex1KQlH_6probar7contextNtB5_14ContextManager3new
FN:808,_RNvMs6_NtCsbqoqex1KQlH_6probar7contextNtB5_14ContextManager5stats
FN:822,_RNvMs6_NtCsbqoqex1KQlH_6probar7contextNtB5_14ContextManager7cleanup
FN:164,_RNvMs_NtCsbqoqex1KQlH_6probar7contextNtB4_6Cookie14with_same_site
FN:121,_RNvMs_NtCsbqoqex1KQlH_6probar7contextNtB4_6Cookie3new
FN:157,_RNvMs_NtCsbqoqex1KQlH_6probar7contextNtB4_6Cookie6secure
FN:150,_RNvMs_NtCsbqoqex1KQlH_6probar7contextNtB4_6Cookie9http_only
FN:136,_RNvMs_NtCsbqoqex1KQlH_6probar7contextNtB4_6Cookie9with_path
FN:223,_RNvXs0_NtCsbqoqex1KQlH_6probar7contextNtB5_13ContextConfigNtNtCs6RpC691fUBl_4core7default7Default7default
FN:683,_RNCNCNvMs4_NtCs4eUmXem5O3q_6probar7contextNtB9_11ContextPool12in_use_count00Bb_
FN:674,_RNCNCNvMs4_NtCs4eUmXem5O3q_6probar7contextNtB9_11ContextPool15available_count00Bb_
FN:466,_RNCNvMs2_NtCs4eUmXem5O3q_6probar7contextNtB7_14BrowserContext10close_page0B9_
FN:473,_RNCNvMs2_NtCs4eUmXem5O3q_6probar7contextNtB7_14BrowserContext10page_count0B9_
FN:479,_RNCNvMs2_NtCs4eUmXem5O3q_6probar7contextNtB7_14BrowserContext13storage_state0B9_
FN:708,_RNCNvMs4_NtCs4eUmXem5O3q_6probar7contextNtB7_11ContextPool11context_ids0B9_
FN:683,_RNCNvMs4_NtCs4eUmXem5O3q_6probar7contextNtB7_11ContextPool12in_use_count0B9_
FN:674,_RNCNvMs4_NtCs4eUmXem5O3q_6probar7contextNtB7_11ContextPool15available_count0B9_
FN:633,_RNCNvMs4_NtCs4eUmXem5O3q_6probar7contextNtB7_11ContextPool5close0B9_
FN:666,_RNCNvMs4_NtCs4eUmXem5O3q_6probar7contextNtB7_11ContextPool5count0B9_
FN:544,_RNCNvMs4_NtCs4eUmXem5O3q_6probar7contextNtB7_11ContextPool6create0B9_
FN:568,_RNCNvMs4_NtCs4eUmXem5O3q_6probar7contextNtB7_11ContextPool6creates0_0B9_
FN:558,_RNCNvMs4_NtCs4eUmXem5O3q_6probar7contextNtB7_11ContextPool6creates_0B9_
FN:652,_RNCNvMs4_NtCs4eUmXem5O3q_6probar7contextNtB7_11ContextPool6remove0B9_
FN:580,_RNCNvMs4_NtCs4eUmXem5O3q_6probar7contextNtB7_11ContextPool7acquire0B9_
FN:598,_RNCNvMs4_NtCs4eUmXem5O3q_6probar7contextNtB7_11ContextPool7acquires_0B9_
FN:614,_RNCNvMs4_NtCs4eUmXem5O3q_6probar7contextNtB7_11ContextPool7release0B9_
FN:749,_RNCNvMs6_NtCs4eUmXem5O3q_6probar7contextNtB7_14ContextManager11get_context0B9_
FN:769,_RNCNvMs6_NtCs4eUmXem5O3q_6probar7contextNtB7_14ContextManager15release_context0B9_
FN:790,_RNCNvMs6_NtCs4eUmXem5O3q_6probar7contextNtB7_14ContextManager23create_isolated_context0B9_
FN:816,_RNCNvMs6_NtCs4eUmXem5O3q_6probar7contextNtB7_14ContextManager5stats0B9_
FN:56,_RNvMNtCs4eUmXem5O3q_6probar7contextNtB2_12StorageState11with_cookie
FN:63,_RNvMNtCs4eUmXem5O3q_6probar7contextNtB2_12StorageState18with_local_storage
FN:73,_RNvMNtCs4eUmXem5O3q_6probar7contextNtB2_12StorageState20with_session_storage
FN:50,_RNvMNtCs4eUmXem5O3q_6probar7contextNtB2_12StorageState3new
FN:90,_RNvMNtCs4eUmXem5O3q_6probar7contextNtB2_12StorageState5clear
FN:83,_RNvMNtCs4eUmXem5O3q_6probar7contextNtB2_12StorageState8is_empty
FN:338,_RNvMs1_NtCs4eUmXem5O3q_6probar7contextNtB5_13ContextConfig10with_video
FN:317,_RNvMs1_NtCs4eUmXem5O3q_6probar7contextNtB5_13ContextConfig11with_header
FN:289,_RNvMs1_NtCs4eUmXem5O3q_6probar7contextNtB5_13ContextConfig11with_locale
FN:296,_RNvMs1_NtCs4eUmXem5O3q_6probar7contextNtB5_13ContextConfig13with_timezone
FN:259,_RNvMs1_NtCs4eUmXem5O3q_6probar7contextNtB5_13ContextConfig13with_viewport
FN:310,_RNvMs1_NtCs4eUmXem5O3q_6probar7contextNtB5_13ContextConfig15with_permission
FN:282,_RNvMs1_NtCs4eUmXem5O3q_6probar7contextNtB5_13ContextConfig15with_user_agent
FN:303,_RNvMs1_NtCs4eUmXem5O3q_6probar7contextNtB5_13ContextConfig16with_geolocation
FN:267,_RNvMs1_NtCs4eUmXem5O3q_6probar7contextNtB5_13ContextConfig17with_device_scale
FN:331,_RNvMs1_NtCs4eUmXem5O3q_6probar7contextNtB5_13ContextConfig18with_storage_state
FN:352,_RNvMs1_NtCs4eUmXem5O3q_6probar7contextNtB5_13ContextConfig19ignore_https_errors
FN:250,_RNvMs1_NtCs4eUmXem5O3q_6probar7contextNtB5_13ContextConfig3new
FN:274,_RNvMs1_NtCs4eUmXem5O3q_6probar7contextNtB5_13ContextConfig6mobile
FN:324,_RNvMs1_NtCs4eUmXem5O3q_6probar7contextNtB5_13ContextConfig7offline
FN:345,_RNvMs1_NtCs4eUmXem5O3q_6probar7contextNtB5_13ContextConfig8with_har
FN:490,_RNvMs2_NtCs4eUmXem5O3q_6probar7contextNtB5_14BrowserContext10add_cookie
FN:464,_RNvMs2_NtCs4eUmXem5O3q_6probar7contextNtB5_14BrowserContext10close_page
FN:472,_RNvMs2_NtCs4eUmXem5O3q_6probar7contextNtB5_14BrowserContext10page_count
FN:432,_RNvMs2_NtCs4eUmXem5O3q_6probar7contextNtB5_14BrowserContext12is_available
FN:497,_RNvMs2_NtCs4eUmXem5O3q_6probar7contextNtB5_14BrowserContext13clear_cookies
FN:483,_RNvMs2_NtCs4eUmXem5O3q_6probar7contextNtB5_14BrowserContext13clear_storage
FN:478,_RNvMs2_NtCs4eUmXem5O3q_6probar7contextNtB5_14BrowserContext13storage_state
FN:391,_RNvMs2_NtCs4eUmXem5O3q_6probar7contextNtB5_14BrowserContext3new
FN:420,_RNvMs2_NtCs4eUmXem5O3q_6probar7contextNtB5_14BrowserContext5close
FN:405,_RNvMs2_NtCs4eUmXem5O3q_6probar7contextNtB5_14BrowserContext5ready
FN:450,_RNvMs2_NtCs4eUmXem5O3q_6probar7contextNtB5_14BrowserContext6age_ms
FN:410,_RNvMs2_NtCs4eUmXem5O3q_6probar7contextNtB5_14BrowserContext7acquire
FN:415,_RNvMs2_NtCs4eUmXem5O3q_6probar7contextNtB5_14BrowserContext7release
FN:455,_RNvMs2_NtCs4eUmXem5O3q_6probar7contextNtB5_14BrowserContext8new_page
FN:444,_RNvMs2_NtCs4eUmXem5O3q_6probar7contextNtB5_14BrowserContext9is_closed
FN:438,_RNvMs2_NtCs4eUmXem5O3q_6probar7contextNtB5_14BrowserContext9is_in_use
FN:425,_RNvMs2_NtCs4eUmXem5O3q_6probar7contextNtB5_14BrowserContext9set_error
FN:705,_RNvMs4_NtCs4eUmXem5O3q_6probar7contextNtB5_11ContextPool11context_ids
FN:680,_RNvMs4_NtCs4eUmXem5O3q_6probar7contextNtB5_11ContextPool12in_use_count
FN:671,_RNvMs4_NtCs4eUmXem5O3q_6probar7contextNtB5_11ContextPool15available_count
FN:537,_RNvMs4_NtCs4eUmXem5O3q_6probar7contextNtB5_11ContextPool19with_default_config
FN:526,_RNvMs4_NtCs4eUmXem5O3q_6probar7contextNtB5_11ContextPool3new
FN:697,_RNvMs4_NtCs4eUmXem5O3q_6probar7contextNtB5_11ContextPool5clear
FN:632,_RNvMs4_NtCs4eUmXem5O3q_6probar7contextNtB5_11ContextPool5close
FN:665,_RNvMs4_NtCs4eUmXem5O3q_6probar7contextNtB5_11ContextPool5count
FN:543,_RNvMs4_NtCs4eUmXem5O3q_6probar7contextNtB5_11ContextPool6create
FN:651,_RNvMs4_NtCs4eUmXem5O3q_6probar7contextNtB5_11ContextPool6remove
FN:579,_RNvMs4_NtCs4eUmXem5O3q_6probar7contextNtB5_11ContextPool7acquire
FN:613,_RNvMs4_NtCs4eUmXem5O3q_6probar7contextNtB5_11ContextPool7release
FN:688,_RNvMs4_NtCs4eUmXem5O3q_6probar7contextNtB5_11ContextPool9close_all
FN:748,_RNvMs6_NtCs4eUmXem5O3q_6probar7contextNtB5_14ContextManager11get_context
FN:740,_RNvMs6_NtCs4eUmXem5O3q_6probar7contextNtB5_14ContextManager14with_pool_size
FN:768,_RNvMs6_NtCs4eUmXem5O3q_6probar7contextNtB5_14ContextManager15release_context
FN:783,_RNvMs6_NtCs4eUmXem5O3q_6probar7contextNtB5_14ContextManager23create_isolated_context
FN:731,_RNvMs6_NtCs4eUmXem5O3q_6probar7contextNtB5_14ContextManager3new
FN:808,_RNvMs6_NtCs4eUmXem5O3q_6probar7contextNtB5_14ContextManager5stats
FN:822,_RNvMs6_NtCs4eUmXem5O3q_6probar7contextNtB5_14ContextManager7cleanup
FN:143,_RNvMs_NtCs4eUmXem5O3q_6probar7contextNtB4_6Cookie12with_expires
FN:164,_RNvMs_NtCs4eUmXem5O3q_6probar7contextNtB4_6Cookie14with_same_site
FN:121,_RNvMs_NtCs4eUmXem5O3q_6probar7contextNtB4_6Cookie3new
FN:157,_RNvMs_NtCs4eUmXem5O3q_6probar7contextNtB4_6Cookie6secure
FN:150,_RNvMs_NtCs4eUmXem5O3q_6probar7contextNtB4_6Cookie9http_only
FN:136,_RNvMs_NtCs4eUmXem5O3q_6probar7contextNtB4_6Cookie9with_path
FN:223,_RNvXs0_NtCs4eUmXem5O3q_6probar7contextNtB5_13ContextConfigNtNtCs6RpC691fUBl_4core7default7Default7default
FN:518,_RNvXs3_NtCs4eUmXem5O3q_6probar7contextNtB5_11ContextPoolNtNtCs6RpC691fUBl_4core7default7Default7default
FN:723,_RNvXs5_NtCs4eUmXem5O3q_6probar7contextNtB5_14ContextManagerNtNtCs6RpC691fUBl_4core7default7Default7default
FNDA:0,_RNvNtNtNtCsbqoqex1KQlH_6probar7context5tests12cookie_testss_14test_same_site
FNDA:0,_RNvNtNtNtCsbqoqex1KQlH_6probar7context5tests12cookie_testss_14test_with_path
FNDA:0,_RNvNtNtNtCsbqoqex1KQlH_6probar7context5tests12cookie_testss_21test_secure_http_only
FNDA:0,_RNvNtNtNtCsbqoqex1KQlH_6probar7context5tests12cookie_testss_8test_new
FNDA:0,_RNvNtNtNtCsbqoqex1KQlH_6probar7context5tests21browser_context_testss_10test_pages
FNDA:0,_RNvNtNtNtCsbqoqex1KQlH_6probar7context5tests21browser_context_testss_12test_storage
FNDA:0,_RNvNtNtNtCsbqoqex1KQlH_6probar7context5tests21browser_context_testss_16test_error_state
FNDA:0,_RNvNtNtNtCsbqoqex1KQlH_6probar7context5tests21browser_context_testss_22test_state_transitions
FNDA:0,_RNvNtNtNtCsbqoqex1KQlH_6probar7context5tests21browser_context_testss_8test_new
FNDA:0,_RNCNvMs4_NtCsbqoqex1KQlH_6probar7contextNtB7_11ContextPool11context_ids0B9_
FNDA:0,_RNCNvMs4_NtCsbqoqex1KQlH_6probar7contextNtB7_11ContextPool6remove0B9_
FNDA:0,_RNvMNtCsbqoqex1KQlH_6probar7contextNtB2_12StorageState20with_session_storage
FNDA:0,_RNvMs1_NtCsbqoqex1KQlH_6probar7contextNtB5_13ContextConfig10with_video
FNDA:0,_RNvMs1_NtCsbqoqex1KQlH_6probar7contextNtB5_13ContextConfig11with_locale
FNDA:0,_RNvMs1_NtCsbqoqex1KQlH_6probar7contextNtB5_13ContextConfig13with_timezone
FNDA:0,_RNvMs1_NtCsbqoqex1KQlH_6probar7contextNtB5_13ContextConfig15with_permission
FNDA:0,_RNvMs1_NtCsbqoqex1KQlH_6probar7contextNtB5_13ContextConfig15with_user_agent
FNDA:0,_RNvMs1_NtCsbqoqex1KQlH_6probar7contextNtB5_13ContextConfig17with_device_scale
FNDA:0,_RNvMs1_NtCsbqoqex1KQlH_6probar7contextNtB5_13ContextConfig18with_storage_state
FNDA:0,_RNvMs1_NtCsbqoqex1KQlH_6probar7contextNtB5_13ContextConfig19ignore_https_errors
FNDA:0,_RNvMs1_NtCsbqoqex1KQlH_6probar7contextNtB5_13ContextConfig8with_har
FNDA:0,_RNvMs2_NtCsbqoqex1KQlH_6probar7contextNtB5_14BrowserContext13clear_storage
FNDA:0,_RNvMs2_NtCsbqoqex1KQlH_6probar7contextNtB5_14BrowserContext6age_ms
FNDA:0,_RNvMs4_NtCsbqoqex1KQlH_6probar7contextNtB5_11ContextPool11context_ids
FNDA:0,_RNvMs4_NtCsbqoqex1KQlH_6probar7contextNtB5_11ContextPool19with_default_config
FNDA:0,_RNvMs4_NtCsbqoqex1KQlH_6probar7contextNtB5_11ContextPool6remove
FNDA:0,_RNvMs6_NtCsbqoqex1KQlH_6probar7contextNtB5_14ContextManager14with_pool_size
FNDA:0,_RNvMs_NtCsbqoqex1KQlH_6probar7contextNtB4_6Cookie12with_expires
FNDA:0,_RNvXs3_NtCsbqoqex1KQlH_6probar7contextNtB5_11ContextPoolNtNtCs6RpC691fUBl_4core7default7Default7default
FNDA:0,_RNvXs5_NtCsbqoqex1KQlH_6probar7contextNtB5_14ContextManagerNtNtCs6RpC691fUBl_4core7default7Default7default
FNDA:0,_RNvNtNtNtCsbqoqex1KQlH_6probar7context5tests21context_manager_testss_10test_stats
FNDA:0,_RNvNtNtNtCsbqoqex1KQlH_6probar7context5tests21context_manager_testss_12test_cleanup
FNDA:0,_RNvNtNtNtCsbqoqex1KQlH_6probar7context5tests21context_manager_testss_16test_get_context
FNDA:0,_RNvNtNtNtCsbqoqex1KQlH_6probar7context5tests21context_manager_testss_20test_release_context
FNDA:0,_RNvNtNtNtCsbqoqex1KQlH_6probar7context5tests21context_manager_testss_28test_create_isolated_context
FNDA:0,_RNvNtNtNtCsbqoqex1KQlH_6probar7context5tests21context_manager_testss_8test_new
FNDA:0,_RNCNCNvMs4_NtCsbqoqex1KQlH_6probar7contextNtB9_11ContextPool12in_use_count00Bb_
FNDA:0,_RNCNCNvMs4_NtCsbqoqex1KQlH_6probar7contextNtB9_11ContextPool15available_count00Bb_
FNDA:0,_RNCNvMs2_NtCsbqoqex1KQlH_6probar7contextNtB7_14BrowserContext10close_page0B9_
FNDA:0,_RNCNvMs2_NtCsbqoqex1KQlH_6probar7contextNtB7_14BrowserContext10page_count0B9_
FNDA:0,_RNCNvMs2_NtCsbqoqex1KQlH_6probar7contextNtB7_14BrowserContext13storage_state0B9_
FNDA:0,_RNCNvMs4_NtCsbqoqex1KQlH_6probar7contextNtB7_11ContextPool12in_use_count0B9_
FNDA:0,_RNCNvMs4_NtCsbqoqex1KQlH_6probar7contextNtB7_11ContextPool15available_count0B9_
FNDA:0,_RNCNvMs4_NtCsbqoqex1KQlH_6probar7contextNtB7_11ContextPool5close0B9_
FNDA:0,_RNCNvMs4_NtCsbqoqex1KQlH_6probar7contextNtB7_11ContextPool5count0B9_
FNDA:0,_RNCNvMs4_NtCsbqoqex1KQlH_6probar7contextNtB7_11ContextPool6create0B9_
FNDA:0,_RNCNvMs4_NtCsbqoqex1KQlH_6probar7contextNtB7_11ContextPool6creates0_0B9_
FNDA:0,_RNCNvMs4_NtCsbqoqex1KQlH_6probar7contextNtB7_11ContextPool6creates_0B9_
FNDA:0,_RNCNvMs4_NtCsbqoqex1KQlH_6probar7contextNtB7_11ContextPool7acquire0B9_
FNDA:0,_RNCNvMs4_NtCsbqoqex1KQlH_6probar7contextNtB7_11ContextPool7acquires_0B9_
FNDA:0,_RNCNvMs4_NtCsbqoqex1KQlH_6probar7contextNtB7_11ContextPool7release0B9_
FNDA:0,_RNCNvMs6_NtCsbqoqex1KQlH_6probar7contextNtB7_14ContextManager11get_context0B9_
FNDA:0,_RNCNvMs6_NtCsbqoqex1KQlH_6probar7contextNtB7_14ContextManager15release_context0B9_
FNDA:0,_RNCNvMs6_NtCsbqoqex1KQlH_6probar7contextNtB7_14ContextManager23create_isolated_context0B9_
FNDA:0,_RNCNvMs6_NtCsbqoqex1KQlH_6probar7contextNtB7_14ContextManager5stats0B9_
FNDA:0,_RNvNtNtNtCsbqoqex1KQlH_6probar7context5tests18context_pool_testss_10test_clear
FNDA:0,_RNvNtNtNtCsbqoqex1KQlH_6probar7context5tests18context_pool_testss_10test_close
FNDA:0,_RNvNtNtNtCsbqoqex1KQlH_6probar7context5tests18context_pool_testss_11test_create
FNDA:0,_RNvNtNtNtCsbqoqex1KQlH_6probar7context5tests18context_pool_testss_14test_close_all
FNDA:0,_RNvNtNtNtCsbqoqex1KQlH_6probar7context5tests18context_pool_testss_17test_max_contexts
FNDA:0,_RNvNtNtNtCsbqoqex1KQlH_6probar7context5tests18context_pool_testss_20test_acquire_release
FNDA:0,_RNvNtNtNtCsbqoqex1KQlH_6probar7context5tests18context_pool_testss_8test_new
FNDA:0,_RNvNtNtNtCsbqoqex1KQlH_6probar7context5tests20context_config_testss_11test_mobile
FNDA:0,_RNvNtNtNtCsbqoqex1KQlH_6probar7context5tests20context_config_testss_12test_offline
FNDA:0,_RNvNtNtNtCsbqoqex1KQlH_6probar7context5tests20context_config_testss_16test_with_header
FNDA:0,_RNvNtNtNtCsbqoqex1KQlH_6probar7context5tests20context_config_testss_18test_with_viewport
FNDA:0,_RNvNtNtNtCsbqoqex1KQlH_6probar7context5tests20context_config_testss_21test_with_geolocation
FNDA:0,_RNvNtNtNtCsbqoqex1KQlH_6probar7context5tests20context_config_testss_8test_new
FNDA:0,_RNvNtNtNtCsbqoqex1KQlH_6probar7context5tests19storage_state_testss_10test_clear
FNDA:0,_RNvNtNtNtCsbqoqex1KQlH_6probar7context5tests19storage_state_testss_16test_with_cookie
FNDA:0,_RNvNtNtNtCsbqoqex1KQlH_6probar7context5tests19storage_state_testss_23test_with_local_storage
FNDA:0,_RNvNtNtNtCsbqoqex1KQlH_6probar7context5tests19storage_state_testss_8test_new
FNDA:0,_RNvMNtCsbqoqex1KQlH_6probar7contextNtB2_12StorageState11with_cookie
FNDA:0,_RNvMNtCsbqoqex1KQlH_6probar7contextNtB2_12StorageState18with_local_storage
FNDA:0,_RNvMNtCsbqoqex1KQlH_6probar7contextNtB2_12StorageState3new
FNDA:0,_RNvMNtCsbqoqex1KQlH_6probar7contextNtB2_12StorageState5clear
FNDA:0,_RNvMNtCsbqoqex1KQlH_6probar7contextNtB2_12StorageState8is_empty
FNDA:0,_RNvMs1_NtCsbqoqex1KQlH_6probar7contextNtB5_13ContextConfig11with_header
FNDA:0,_RNvMs1_NtCsbqoqex1KQlH_6probar7contextNtB5_13ContextConfig13with_viewport
FNDA:0,_RNvMs1_NtCsbqoqex1KQlH_6probar7contextNtB5_13ContextConfig16with_geolocation
FNDA:0,_RNvMs1_NtCsbqoqex1KQlH_6probar7contextNtB5_13ContextConfig3new
FNDA:0,_RNvMs1_NtCsbqoqex1KQlH_6probar7contextNtB5_13ContextConfig6mobile
FNDA:0,_RNvMs1_NtCsbqoqex1KQlH_6probar7contextNtB5_13ContextConfig7offline
FNDA:0,_RNvMs2_NtCsbqoqex1KQlH_6probar7contextNtB5_14BrowserContext10add_cookie
FNDA:0,_RNvMs2_NtCsbqoqex1KQlH_6probar7contextNtB5_14BrowserContext10close_page
FNDA:0,_RNvMs2_NtCsbqoqex1KQlH_6probar7contextNtB5_14BrowserContext10page_count
FNDA:0,_RNvMs2_NtCsbqoqex1KQlH_6probar7contextNtB5_14BrowserContext12is_available
FNDA:0,_RNvMs2_NtCsbqoqex1KQlH_6probar7contextNtB5_14BrowserContext13clear_cookies
FNDA:0,_RNvMs2_NtCsbqoqex1KQlH_6probar7contextNtB5_14BrowserContext13storage_state
FNDA:0,_RNvMs2_NtCsbqoqex1KQlH_6probar7contextNtB5_14BrowserContext3new
FNDA:0,_RNvMs2_NtCsbqoqex1KQlH_6probar7contextNtB5_14BrowserContext5close
FNDA:0,_RNvMs2_NtCsbqoqex1KQlH_6probar7contextNtB5_14BrowserContext5ready
FNDA:0,_RNvMs2_NtCsbqoqex1KQlH_6probar7contextNtB5_14BrowserContext7acquire
FNDA:0,_RNvMs2_NtCsbqoqex1KQlH_6probar7contextNtB5_14BrowserContext7release
FNDA:0,_RNvMs2_NtCsbqoqex1KQlH_6probar7contextNtB5_14BrowserContext8new_page
FNDA:0,_RNvMs2_NtCsbqoqex1KQlH_6probar7contextNtB5_14BrowserContext9is_closed
FNDA:0,_RNvMs2_NtCsbqoqex1KQlH_6probar7contextNtB5_14BrowserContext9is_in_use
FNDA:0,_RNvMs2_NtCsbqoqex1KQlH_6probar7contextNtB5_14BrowserContext9set_error
FNDA:0,_RNvMs4_NtCsbqoqex1KQlH_6probar7contextNtB5_11ContextPool12in_use_count
FNDA:0,_RNvMs4_NtCsbqoqex1KQlH_6probar7contextNtB5_11ContextPool15available_count
FNDA:0,_RNvMs4_NtCsbqoqex1KQlH_6probar7contextNtB5_11ContextPool3new
FNDA:0,_RNvMs4_NtCsbqoqex1KQlH_6probar7contextNtB5_11ContextPool5clear
FNDA:0,_RNvMs4_NtCsbqoqex1KQlH_6probar7contextNtB5_11ContextPool5close
FNDA:0,_RNvMs4_NtCsbqoqex1KQlH_6probar7contextNtB5_11ContextPool5count
FNDA:0,_RNvMs4_NtCsbqoqex1KQlH_6probar7contextNtB5_11ContextPool6create
FNDA:0,_RNvMs4_NtCsbqoqex1KQlH_6probar7contextNtB5_11ContextPool7acquire
FNDA:0,_RNvMs4_NtCsbqoqex1KQlH_6probar7contextNtB5_11ContextPool7release
FNDA:0,_RNvMs4_NtCsbqoqex1KQlH_6probar7contextNtB5_11ContextPool9close_all
FNDA:0,_RNvMs6_NtCsbqoqex1KQlH_6probar7contextNtB5_14ContextManager11get_context
FNDA:0,_RNvMs6_NtCsbqoqex1KQlH_6probar7contextNtB5_14ContextManager15release_context
FNDA:0,_RNvMs6_NtCsbqoqex1KQlH_6probar7contextNtB5_14ContextManager23create_isolated_context
FNDA:0,_RNvMs6_NtCsbqoqex1KQlH_6probar7contextNtB5_14ContextManager3new
FNDA:0,_RNvMs6_NtCsbqoqex1KQlH_6probar7contextNtB5_14ContextManager5stats
FNDA:0,_RNvMs6_NtCsbqoqex1KQlH_6probar7contextNtB5_14ContextManager7cleanup
FNDA:0,_RNvMs_NtCsbqoqex1KQlH_6probar7contextNtB4_6Cookie14with_same_site
FNDA:0,_RNvMs_NtCsbqoqex1KQlH_6probar7contextNtB4_6Cookie3new
FNDA:0,_RNvMs_NtCsbqoqex1KQlH_6probar7contextNtB4_6Cookie6secure
FNDA:0,_RNvMs_NtCsbqoqex1KQlH_6probar7contextNtB4_6Cookie9http_only
FNDA:0,_RNvMs_NtCsbqoqex1KQlH_6probar7contextNtB4_6Cookie9with_path
FNDA:0,_RNvXs0_NtCsbqoqex1KQlH_6probar7contextNtB5_13ContextConfigNtNtCs6RpC691fUBl_4core7default7Default7default
FNDA:0,_RNCNCNvMs4_NtCs4eUmXem5O3q_6probar7contextNtB9_11ContextPool12in_use_count00Bb_
FNDA:0,_RNCNCNvMs4_NtCs4eUmXem5O3q_6probar7contextNtB9_11ContextPool15available_count00Bb_
FNDA:0,_RNCNvMs2_NtCs4eUmXem5O3q_6probar7contextNtB7_14BrowserContext10close_page0B9_
FNDA:0,_RNCNvMs2_NtCs4eUmXem5O3q_6probar7contextNtB7_14BrowserContext10page_count0B9_
FNDA:0,_RNCNvMs2_NtCs4eUmXem5O3q_6probar7contextNtB7_14BrowserContext13storage_state0B9_
FNDA:0,_RNCNvMs4_NtCs4eUmXem5O3q_6probar7contextNtB7_11ContextPool11context_ids0B9_
FNDA:0,_RNCNvMs4_NtCs4eUmXem5O3q_6probar7contextNtB7_11ContextPool12in_use_count0B9_
FNDA:0,_RNCNvMs4_NtCs4eUmXem5O3q_6probar7contextNtB7_11ContextPool15available_count0B9_
FNDA:0,_RNCNvMs4_NtCs4eUmXem5O3q_6probar7contextNtB7_11ContextPool5close0B9_
FNDA:0,_RNCNvMs4_NtCs4eUmXem5O3q_6probar7contextNtB7_11ContextPool5count0B9_
FNDA:0,_RNCNvMs4_NtCs4eUmXem5O3q_6probar7contextNtB7_11ContextPool6create0B9_
FNDA:0,_RNCNvMs4_NtCs4eUmXem5O3q_6probar7contextNtB7_11ContextPool6creates0_0B9_
FNDA:0,_RNCNvMs4_NtCs4eUmXem5O3q_6probar7contextNtB7_11ContextPool6creates_0B9_
FNDA:0,_RNCNvMs4_NtCs4eUmXem5O3q_6probar7contextNtB7_11ContextPool6remove0B9_
FNDA:0,_RNCNvMs4_NtCs4eUmXem5O3q_6probar7contextNtB7_11ContextPool7acquire0B9_
FNDA:0,_RNCNvMs4_NtCs4eUmXem5O3q_6probar7contextNtB7_11ContextPool7acquires_0B9_
FNDA:0,_RNCNvMs4_NtCs4eUmXem5O3q_6probar7contextNtB7_11ContextPool7release0B9_
FNDA:0,_RNCNvMs6_NtCs4eUmXem5O3q_6probar7contextNtB7_14ContextManager11get_context0B9_
FNDA:0,_RNCNvMs6_NtCs4eUmXem5O3q_6probar7contextNtB7_14ContextManager15release_context0B9_
FNDA:0,_RNCNvMs6_NtCs4eUmXem5O3q_6probar7contextNtB7_14ContextManager23create_isolated_context0B9_
FNDA:0,_RNCNvMs6_NtCs4eUmXem5O3q_6probar7contextNtB7_14ContextManager5stats0B9_
FNDA:0,_RNvMNtCs4eUmXem5O3q_6probar7contextNtB2_12StorageState11with_cookie
FNDA:0,_RNvMNtCs4eUmXem5O3q_6probar7contextNtB2_12StorageState18with_local_storage
FNDA:0,_RNvMNtCs4eUmXem5O3q_6probar7contextNtB2_12StorageState20with_session_storage
FNDA:0,_RNvMNtCs4eUmXem5O3q_6probar7contextNtB2_12StorageState3new
FNDA:0,_RNvMNtCs4eUmXem5O3q_6probar7contextNtB2_12StorageState5clear
FNDA:0,_RNvMNtCs4eUmXem5O3q_6probar7contextNtB2_12StorageState8is_empty
FNDA:0,_RNvMs1_NtCs4eUmXem5O3q_6probar7contextNtB5_13ContextConfig10with_video
FNDA:0,_RNvMs1_NtCs4eUmXem5O3q_6probar7contextNtB5_13ContextConfig11with_header
FNDA:0,_RNvMs1_NtCs4eUmXem5O3q_6probar7contextNtB5_13ContextConfig11with_locale
FNDA:0,_RNvMs1_NtCs4eUmXem5O3q_6probar7contextNtB5_13ContextConfig13with_timezone
FNDA:0,_RNvMs1_NtCs4eUmXem5O3q_6probar7contextNtB5_13ContextConfig13with_viewport
FNDA:0,_RNvMs1_NtCs4eUmXem5O3q_6probar7contextNtB5_13ContextConfig15with_permission
FNDA:0,_RNvMs1_NtCs4eUmXem5O3q_6probar7contextNtB5_13ContextConfig15with_user_agent
FNDA:0,_RNvMs1_NtCs4eUmXem5O3q_6probar7contextNtB5_13ContextConfig16with_geolocation
FNDA:0,_RNvMs1_NtCs4eUmXem5O3q_6probar7contextNtB5_13ContextConfig17with_device_scale
FNDA:0,_RNvMs1_NtCs4eUmXem5O3q_6probar7contextNtB5_13ContextConfig18with_storage_state
FNDA:0,_RNvMs1_NtCs4eUmXem5O3q_6probar7contextNtB5_13ContextConfig19ignore_https_errors
FNDA:0,_RNvMs1_NtCs4eUmXem5O3q_6probar7contextNtB5_13ContextConfig3new
FNDA:0,_RNvMs1_NtCs4eUmXem5O3q_6probar7contextNtB5_13ContextConfig6mobile
FNDA:0,_RNvMs1_NtCs4eUmXem5O3q_6probar7contextNtB5_13ContextConfig7offline
FNDA:0,_RNvMs1_NtCs4eUmXem5O3q_6probar7contextNtB5_13ContextConfig8with_har
FNDA:0,_RNvMs2_NtCs4eUmXem5O3q_6probar7contextNtB5_14BrowserContext10add_cookie
FNDA:0,_RNvMs2_NtCs4eUmXem5O3q_6probar7contextNtB5_14BrowserContext10close_page
FNDA:0,_RNvMs2_NtCs4eUmXem5O3q_6probar7contextNtB5_14BrowserContext10page_count
FNDA:0,_RNvMs2_NtCs4eUmXem5O3q_6probar7contextNtB5_14BrowserContext12is_available
FNDA:0,_RNvMs2_NtCs4eUmXem5O3q_6probar7contextNtB5_14BrowserContext13clear_cookies
FNDA:0,_RNvMs2_NtCs4eUmXem5O3q_6probar7contextNtB5_14BrowserContext13clear_storage
FNDA:0,_RNvMs2_NtCs4eUmXem5O3q_6probar7contextNtB5_14BrowserContext13storage_state
FNDA:0,_RNvMs2_NtCs4eUmXem5O3q_6probar7contextNtB5_14BrowserContext3new
FNDA:0,_RNvMs2_NtCs4eUmXem5O3q_6probar7contextNtB5_14BrowserContext5close
FNDA:0,_RNvMs2_NtCs4eUmXem5O3q_6probar7contextNtB5_14BrowserContext5ready
FNDA:0,_RNvMs2_NtCs4eUmXem5O3q_6probar7contextNtB5_14BrowserContext6age_ms
FNDA:0,_RNvMs2_NtCs4eUmXem5O3q_6probar7contextNtB5_14BrowserContext7acquire
FNDA:0,_RNvMs2_NtCs4eUmXem5O3q_6probar7contextNtB5_14BrowserContext7release
FNDA:0,_RNvMs2_NtCs4eUmXem5O3q_6probar7contextNtB5_14BrowserContext8new_page
FNDA:0,_RNvMs2_NtCs4eUmXem5O3q_6probar7contextNtB5_14BrowserContext9is_closed
FNDA:0,_RNvMs2_NtCs4eUmXem5O3q_6probar7contextNtB5_14BrowserContext9is_in_use
FNDA:0,_RNvMs2_NtCs4eUmXem5O3q_6probar7contextNtB5_14BrowserContext9set_error
FNDA:0,_RNvMs4_NtCs4eUmXem5O3q_6probar7contextNtB5_11ContextPool11context_ids
FNDA:0,_RNvMs4_NtCs4eUmXem5O3q_6probar7contextNtB5_11ContextPool12in_use_count
FNDA:0,_RNvMs4_NtCs4eUmXem5O3q_6probar7contextNtB5_11ContextPool15available_count
FNDA:0,_RNvMs4_NtCs4eUmXem5O3q_6probar7contextNtB5_11ContextPool19with_default_config
FNDA:0,_RNvMs4_NtCs4eUmXem5O3q_6probar7contextNtB5_11ContextPool3new
FNDA:0,_RNvMs4_NtCs4eUmXem5O3q_6probar7contextNtB5_11ContextPool5clear
FNDA:0,_RNvMs4_NtCs4eUmXem5O3q_6probar7contextNtB5_11ContextPool5close
FNDA:0,_RNvMs4_NtCs4eUmXem5O3q_6probar7contextNtB5_11ContextPool5count
FNDA:0,_RNvMs4_NtCs4eUmXem5O3q_6probar7contextNtB5_11ContextPool6create
FNDA:0,_RNvMs4_NtCs4eUmXem5O3q_6probar7contextNtB5_11ContextPool6remove
FNDA:0,_RNvMs4_NtCs4eUmXem5O3q_6probar7contextNtB5_11ContextPool7acquire
FNDA:0,_RNvMs4_NtCs4eUmXem5O3q_6probar7contextNtB5_11ContextPool7release
FNDA:0,_RNvMs4_NtCs4eUmXem5O3q_6probar7contextNtB5_11ContextPool9close_all
FNDA:0,_RNvMs6_NtCs4eUmXem5O3q_6probar7contextNtB5_14ContextManager11get_context
FNDA:0,_RNvMs6_NtCs4eUmXem5O3q_6probar7contextNtB5_14ContextManager14with_pool_size
FNDA:0,_RNvMs6_NtCs4eUmXem5O3q_6probar7contextNtB5_14ContextManager15release_context
FNDA:0,_RNvMs6_NtCs4eUmXem5O3q_6probar7contextNtB5_14ContextManager23create_isolated_context
FNDA:0,_RNvMs6_NtCs4eUmXem5O3q_6probar7contextNtB5_14ContextManager3new
FNDA:0,_RNvMs6_NtCs4eUmXem5O3q_6probar7contextNtB5_14ContextManager5stats
FNDA:0,_RNvMs6_NtCs4eUmXem5O3q_6probar7contextNtB5_14ContextManager7cleanup
FNDA:0,_RNvMs_NtCs4eUmXem5O3q_6probar7contextNtB4_6Cookie12with_expires
FNDA:0,_RNvMs_NtCs4eUmXem5O3q_6probar7contextNtB4_6Cookie14with_same_site
FNDA:0,_RNvMs_NtCs4eUmXem5O3q_6probar7contextNtB4_6Cookie3new
FNDA:0,_RNvMs_NtCs4eUmXem5O3q_6probar7contextNtB4_6Cookie6secure
FNDA:0,_RNvMs_NtCs4eUmXem5O3q_6probar7contextNtB4_6Cookie9http_only
FNDA:0,_RNvMs_NtCs4eUmXem5O3q_6probar7contextNtB4_6Cookie9with_path
FNDA:0,_RNvXs0_NtCs4eUmXem5O3q_6probar7contextNtB5_13ContextConfigNtNtCs6RpC691fUBl_4core7default7Default7default
FNDA:0,_RNvXs3_NtCs4eUmXem5O3q_6probar7contextNtB5_11ContextPoolNtNtCs6RpC691fUBl_4core7default7Default7default
FNDA:0,_RNvXs5_NtCs4eUmXem5O3q_6probar7contextNtB5_14ContextManagerNtNtCs6RpC691fUBl_4core7default7Default7default
FNF:120
FNH:0
DA:50,0
DA:51,0
DA:52,0
DA:56,0
DA:57,0
DA:58,0
DA:59,0
DA:63,0
DA:64,0
DA:65,0
DA:66,0
DA:67,0
DA:68,0
DA:69,0
DA:73,0
DA:74,0
DA:75,0
DA:76,0
DA:77,0
DA:78,0
DA:79,0
DA:83,0
DA:84,0
DA:85,0
DA:86,0
DA:87,0
DA:90,0
DA:91,0
DA:92,0
DA:93,0
DA:94,0
DA:121,0
DA:122,0
DA:123,0
DA:124,0
DA:125,0
DA:126,0
DA:127,0
DA:128,0
DA:129,0
DA:130,0
DA:131,0
DA:132,0
DA:136,0
DA:137,0
DA:138,0
DA:139,0
DA:143,0
DA:144,0
DA:145,0
DA:146,0
DA:150,0
DA:151,0
DA:152,0
DA:153,0
DA:157,0
DA:158,0
DA:159,0
DA:160,0
DA:164,0
DA:165,0
DA:166,0
DA:167,0
DA:223,0
DA:224,0
DA:225,0
DA:226,0
DA:227,0
DA:228,0
DA:229,0
DA:230,0
DA:231,0
DA:232,0
DA:233,0
DA:234,0
DA:235,0
DA:236,0
DA:237,0
DA:238,0
DA:239,0
DA:240,0
DA:241,0
DA:242,0
DA:243,0
DA:244,0
DA:250,0
DA:251,0
DA:252,0
DA:253,0
DA:254,0
DA:255,0
DA:259,0
DA:260,0
DA:261,0
DA:262,0
DA:263,0
DA:267,0
DA:268,0
DA:269,0
DA:270,0
DA:274,0
DA:275,0
DA:276,0
DA:277,0
DA:278,0
DA:282,0
DA:283,0
DA:284,0
DA:285,0
DA:289,0
DA:290,0
DA:291,0
DA:292,0
DA:296,0
DA:297,0
DA:298,0
DA:299,0
DA:303,0
DA:304,0
DA:305,0
DA:306,0
DA:310,0
DA:311,0
DA:312,0
DA:313,0
DA:317,0
DA:318,0
DA:319,0
DA:320,0
DA:324,0
DA:325,0
DA:326,0
DA:327,0
DA:331,0
DA:332,0
DA:333,0
DA:334,0
DA:338,0
DA:339,0
DA:340,0
DA:341,0
DA:345,0
DA:346,0
DA:347,0
DA:348,0
DA:352,0
DA:353,0
DA:354,0
DA:355,0
DA:391,0
DA:392,0
DA:393,0
DA:394,0
DA:395,0
DA:396,0
DA:397,0
DA:398,0
DA:399,0
DA:400,0
DA:401,0
DA:402,0
DA:405,0
DA:406,0
DA:407,0
DA:410,0
DA:411,0
DA:412,0
DA:415,0
DA:416,0
DA:417,0
DA:420,0
DA:421,0
DA:422,0
DA:425,0
DA:426,0
DA:427,0
DA:428,0
DA:432,0
DA:433,0
DA:434,0
DA:438,0
DA:439,0
DA:440,0
DA:444,0
DA:445,0
DA:446,0
DA:450,0
DA:451,0
DA:452,0
DA:455,0
DA:456,0
DA:457,0
DA:458,0
DA:459,0
DA:460,0
DA:461,0
DA:464,0
DA:465,0
DA:466,0
DA:467,0
DA:468,0
DA:472,0
DA:473,0
DA:474,0
DA:478,0
DA:479,0
DA:480,0
DA:483,0
DA:484,0
DA:485,0
DA:486,0
DA:487,0
DA:490,0
DA:491,0
DA:492,0
DA:493,0
DA:494,0
DA:497,0
DA:498,0
DA:499,0
DA:500,0
DA:501,0
DA:518,0
DA:519,0
DA:520,0
DA:526,0
DA:527,0
DA:528,0
DA:529,0
DA:530,0
DA:531,0
DA:532,0
DA:533,0
DA:537,0
DA:538,0
DA:539,0
DA:540,0
DA:543,0
DA:544,0
DA:545,0
DA:546,0
DA:547,0
DA:548,0
DA:549,0
DA:551,0
DA:552,0
DA:553,0
DA:554,0
DA:555,0
DA:557,0
DA:558,0
DA:559,0
DA:560,0
DA:561,0
DA:562,0
DA:563,0
DA:564,0
DA:565,0
DA:568,0
DA:569,0
DA:571,0
DA:572,0
DA:574,0
DA:575,0
DA:576,0
DA:579,0
DA:580,0
DA:581,0
DA:582,0
DA:583,0
DA:584,0
DA:585,0
DA:587,0
DA:588,0
DA:589,0
DA:590,0
DA:591,0
DA:595,0
DA:596,0
DA:598,0
DA:599,0
DA:600,0
DA:601,0
DA:602,0
DA:603,0
DA:605,0
DA:606,0
DA:607,0
DA:609,0
DA:610,0
DA:613,0
DA:614,0
DA:615,0
DA:616,0
DA:617,0
DA:618,0
DA:619,0
DA:621,0
DA:622,0
DA:623,0
DA:625,0
DA:626,0
DA:627,0
DA:629,0
DA:632,0
DA:633,0
DA:634,0
DA:635,0
DA:636,0
DA:637,0
DA:638,0
DA:640,0
DA:641,0
DA:642,0
DA:644,0
DA:645,0
DA:646,0
DA:648,0
DA:651,0
DA:652,0
DA:653,0
DA:654,0
DA:655,0
DA:656,0
DA:657,0
DA:659,0
DA:660,0
DA:661,0
DA:665,0
DA:666,0
DA:667,0
DA:671,0
DA:672,0
DA:673,0
DA:674,0
DA:675,0
DA:676,0
DA:680,0
DA:681,0
DA:682,0
DA:683,0
DA:684,0
DA:685,0
DA:688,0
DA:689,0
DA:690,0
DA:691,0
DA:692,0
DA:693,0
DA:694,0
DA:697,0
DA:698,0
DA:699,0
DA:700,0
DA:701,0
DA:705,0
DA:706,0
DA:707,0
DA:708,0
DA:709,0
DA:710,0
DA:723,0
DA:724,0
DA:725,0
DA:731,0
DA:732,0
DA:733,0
DA:734,0
DA:735,0
DA:736,0
DA:740,0
DA:741,0
DA:742,0
DA:743,0
DA:744,0
DA:745,0
DA:748,0
DA:749,0
DA:750,0
DA:751,0
DA:752,0
DA:753,0
DA:754,0
DA:757,0
DA:758,0
DA:759,0
DA:762,0
DA:763,0
DA:764,0
DA:765,0
DA:768,0
DA:769,0
DA:770,0
DA:771,0
DA:772,0
DA:773,0
DA:774,0
DA:776,0
DA:777,0
DA:778,0
DA:779,0
DA:780,0
DA:783,0
DA:784,0
DA:785,0
DA:786,0
DA:787,0
DA:788,0
DA:790,0
DA:791,0
DA:792,0
DA:793,0
DA:794,0
DA:795,0
DA:798,0
DA:799,0
DA:800,0
DA:802,0
DA:803,0
DA:804,0
DA:808,0
DA:810,0
DA:811,0
DA:812,0
DA:813,0
DA:814,0
DA:815,0
DA:816,0
DA:817,0
DA:819,0
DA:822,0
DA:823,0
DA:824,0
DA:825,0
DA:826,0
DA:827,0
DA:828,0
DA:852,0
DA:853,0
DA:854,0
DA:855,0
DA:858,0
DA:859,0
DA:860,0
DA:861,0
DA:862,0
DA:865,0
DA:866,0
DA:867,0
DA:868,0
DA:869,0
DA:872,0
DA:873,0
DA:874,0
DA:875,0
DA:876,0
DA:877,0
DA:884,0
DA:885,0
DA:886,0
DA:887,0
DA:888,0
DA:889,0
DA:890,0
DA:893,0
DA:894,0
DA:895,0
DA:896,0
DA:897,0
DA:900,0
DA:901,0
DA:902,0
DA:903,0
DA:904,0
DA:905,0
DA:906,0
DA:909,0
DA:910,0
DA:911,0
DA:912,0
DA:913,0
DA:920,0
DA:921,0
DA:922,0
DA:923,0
DA:924,0
DA:925,0
DA:928,0
DA:929,0
DA:930,0
DA:931,0
DA:932,0
DA:933,0
DA:936,0
DA:937,0
DA:938,0
DA:939,0
DA:940,0
DA:943,0
DA:944,0
DA:945,0
DA:946,0
DA:947,0
DA:948,0
DA:949,0
DA:952,0
DA:953,0
DA:954,0
DA:955,0
DA:956,0
DA:957,0
DA:959,0
DA:962,0
DA:963,0
DA:964,0
DA:965,0
DA:972,0
DA:973,0
DA:974,0
DA:975,0
DA:976,0
DA:977,0
DA:980,0
DA:981,0
DA:982,0
DA:984,0
DA:985,0
DA:987,0
DA:988,0
DA:990,0
DA:991,0
DA:993,0
DA:994,0
DA:995,0
DA:998,0
DA:999,0
DA:1000,0
DA:1002,0
DA:1003,0
DA:1004,0
DA:1005,0
DA:1008,0
DA:1009,0
DA:1010,0
DA:1012,0
DA:1013,0
DA:1014,0
DA:1016,0
DA:1017,0
DA:1019,0
DA:1020,0
DA:1021,0
DA:1024,0
DA:1025,0
DA:1026,0
DA:1028,0
DA:1029,0
DA:1030,0
DA:1032,0
DA:1033,0
DA:1034,0
DA:1035,0
DA:1042,0
DA:1043,0
DA:1044,0
DA:1045,0
DA:1048,0
DA:1049,0
DA:1050,0
DA:1051,0
DA:1052,0
DA:1053,0
DA:1056,0
DA:1057,0
DA:1058,0
DA:1059,0
DA:1061,0
DA:1062,0
DA:1063,0
DA:1066,0
DA:1067,0
DA:1068,0
DA:1070,0
DA:1071,0
DA:1073,0
DA:1074,0
DA:1075,0
DA:1076,0
DA:1079,0
DA:1080,0
DA:1081,0
DA:1083,0
DA:1084,0
DA:1085,0
DA:1088,0
DA:1089,0
DA:1090,0
DA:1091,0
DA:1093,0
DA:1094,0
DA:1095,0
DA:1098,0
DA:1099,0
DA:1100,0
DA:1101,0
DA:1102,0
DA:1103,0
DA:1110,0
DA:1111,0
DA:1112,0
DA:1113,0
DA:1114,0
DA:1117,0
DA:1118,0
DA:1119,0
DA:1120,0
DA:1123,0
DA:1124,0
DA:1127,0
DA:1128,0
DA:1129,0
DA:1132,0
DA:1133,0
DA:1134,0
DA:1136,0
DA:1137,0
DA:1138,0
DA:1139,0
DA:1140,0
DA:1143,0
DA:1144,0
DA:1145,0
DA:1146,0
DA:1147,0
DA:1149,0
DA:1150,0
DA:1151,0
DA:1154,0
DA:1155,0
DA:1156,0
DA:1157,0
DA:1159,0
DA:1160,0
DA:1161,0
DA:1162,0
DA:1163,0
DA:1166,0
DA:1167,0
DA:1168,0
DA:1169,0
DA:1171,0
DA:1172,0
DA:1173,0
DA:1174,0
DA:1175,0
BRF:0
BRH:0
LF:686
LH:0
end_of_record
SF:/home/noah/src/probar/crates/probar/src/coverage/block.rs
FN:20,_RNvMNtNtCsbqoqex1KQlH_6probar8coverage5blockNtB2_7BlockId3newB6_
FN:27,_RNvMNtNtCsbqoqex1KQlH_6probar8coverage5blockNtB2_7BlockId6as_u32B6_
FN:60,_RNvMs2_NtNtCsbqoqex1KQlH_6probar8coverage5blockNtB5_10FunctionId3newB9_
FN:67,_RNvMs2_NtNtCsbqoqex1KQlH_6probar8coverage5blockNtB5_10FunctionId6as_u32B9_
FN:108,_RNvMs6_NtNtCsbqoqex1KQlH_6probar8coverage5blockNtB5_6EdgeId3newB9_
FN:131,_RNvMs6_NtNtCsbqoqex1KQlH_6probar8coverage5blockNtB5_6EdgeId6as_u64B9_
FN:117,_RNvMs6_NtNtCsbqoqex1KQlH_6probar8coverage5blockNtB5_6EdgeId6sourceB9_
FN:124,_RNvMs6_NtNtCsbqoqex1KQlH_6probar8coverage5blockNtB5_6EdgeId6targetB9_
FN:39,_RNvXs0_NtNtCsbqoqex1KQlH_6probar8coverage5blockNtB5_7BlockIdNtNtCs6RpC691fUBl_4core3cmp10PartialOrd11partial_cmp
FN:45,_RNvXs1_NtNtCsbqoqex1KQlH_6probar8coverage5blockNtB5_7BlockIdNtNtCs6RpC691fUBl_4core3cmp3Ord3cmp
FN:79,_RNvXs4_NtNtCsbqoqex1KQlH_6probar8coverage5blockNtB5_10FunctionIdNtNtCs6RpC691fUBl_4core3cmp10PartialOrd11partial_cmp
FN:85,_RNvXs5_NtNtCsbqoqex1KQlH_6probar8coverage5blockNtB5_10FunctionIdNtNtCs6RpC691fUBl_4core3cmp3Ord3cmp
FN:143,_RNvXs8_NtNtCsbqoqex1KQlH_6probar8coverage5blockNtB5_6EdgeIdNtNtCs6RpC691fUBl_4core3cmp10PartialOrd11partial_cmp
FN:149,_RNvXs9_NtNtCsbqoqex1KQlH_6probar8coverage5blockNtB5_6EdgeIdNtNtCs6RpC691fUBl_4core3cmp3Ord3cmp
FN:73,_RINvXs3_NtNtCsbqoqex1KQlH_6probar8coverage5blockNtB6_10FunctionIdNtNtCs6RpC691fUBl_4core4hash4Hash4hashNtNtNtCseKw8H5dE9QK_3std4hash6random13DefaultHasherEBa_
FN:137,_RINvXs7_NtNtCsbqoqex1KQlH_6probar8coverage5blockNtB6_6EdgeIdNtNtCs6RpC691fUBl_4core4hash4Hash4hashNtNtNtCseKw8H5dE9QK_3std4hash6random13DefaultHasherEBa_
FN:33,_RINvXs_NtNtCsbqoqex1KQlH_6probar8coverage5blockNtB5_7BlockIdNtNtCs6RpC691fUBl_4core4hash4Hash4hashNtNtNtCseKw8H5dE9QK_3std4hash6random13DefaultHasherEB9_
FN:73,_RINvXs3_NtNtCs4eUmXem5O3q_6probar8coverage5blockNtB6_10FunctionIdNtNtCs6RpC691fUBl_4core4hash4Hash4hashpEBa_
FN:137,_RINvXs7_NtNtCs4eUmXem5O3q_6probar8coverage5blockNtB6_6EdgeIdNtNtCs6RpC691fUBl_4core4hash4Hash4hashpEBa_
FN:60,_RNvMs2_NtNtCs4eUmXem5O3q_6probar8coverage5blockNtB5_10FunctionId3newB9_
FN:67,_RNvMs2_NtNtCs4eUmXem5O3q_6probar8coverage5blockNtB5_10FunctionId6as_u32B9_
FN:108,_RNvMs6_NtNtCs4eUmXem5O3q_6probar8coverage5blockNtB5_6EdgeId3newB9_
FN:131,_RNvMs6_NtNtCs4eUmXem5O3q_6probar8coverage5blockNtB5_6EdgeId6as_u64B9_
FN:117,_RNvMs6_NtNtCs4eUmXem5O3q_6probar8coverage5blockNtB5_6EdgeId6sourceB9_
FN:124,_RNvMs6_NtNtCs4eUmXem5O3q_6probar8coverage5blockNtB5_6EdgeId6targetB9_
FN:33,_RINvXs_NtNtCs4eUmXem5O3q_6probar8coverage5blockNtB5_7BlockIdNtNtCs6RpC691fUBl_4core4hash4Hash4hashNtNtNtCseKw8H5dE9QK_3std4hash6random13DefaultHasherEB9_
FN:20,_RNvMNtNtCs4eUmXem5O3q_6probar8coverage5blockNtB2_7BlockId3newB6_
FN:27,_RNvMNtNtCs4eUmXem5O3q_6probar8coverage5blockNtB2_7BlockId6as_u32B6_
FN:39,_RNvXs0_NtNtCs4eUmXem5O3q_6probar8coverage5blockNtB5_7BlockIdNtNtCs6RpC691fUBl_4core3cmp10PartialOrd11partial_cmp
FN:45,_RNvXs1_NtNtCs4eUmXem5O3q_6probar8coverage5blockNtB5_7BlockIdNtNtCs6RpC691fUBl_4core3cmp3Ord3cmp
FN:79,_RNvXs4_NtNtCs4eUmXem5O3q_6probar8coverage5blockNtB5_10FunctionIdNtNtCs6RpC691fUBl_4core3cmp10PartialOrd11partial_cmp
FN:85,_RNvXs5_NtNtCs4eUmXem5O3q_6probar8coverage5blockNtB5_10FunctionIdNtNtCs6RpC691fUBl_4core3cmp3Ord3cmp
FN:143,_RNvXs8_NtNtCs4eUmXem5O3q_6probar8coverage5blockNtB5_6EdgeIdNtNtCs6RpC691fUBl_4core3cmp10PartialOrd11partial_cmp
FN:149,_RNvXs9_NtNtCs4eUmXem5O3q_6probar8coverage5blockNtB5_6EdgeIdNtNtCs6RpC691fUBl_4core3cmp3Ord3cmp
FNDA:0,_RNvMNtNtCsbqoqex1KQlH_6probar8coverage5blockNtB2_7BlockId3newB6_
FNDA:0,_RNvMNtNtCsbqoqex1KQlH_6probar8coverage5blockNtB2_7BlockId6as_u32B6_
FNDA:0,_RNvMs2_NtNtCsbqoqex1KQlH_6probar8coverage5blockNtB5_10FunctionId3newB9_
FNDA:0,_RNvMs2_NtNtCsbqoqex1KQlH_6probar8coverage5blockNtB5_10FunctionId6as_u32B9_
FNDA:0,_RNvMs6_NtNtCsbqoqex1KQlH_6probar8coverage5blockNtB5_6EdgeId3newB9_
FNDA:0,_RNvMs6_NtNtCsbqoqex1KQlH_6probar8coverage5blockNtB5_6EdgeId6as_u64B9_
FNDA:0,_RNvMs6_NtNtCsbqoqex1KQlH_6probar8coverage5blockNtB5_6EdgeId6sourceB9_
FNDA:0,_RNvMs6_NtNtCsbqoqex1KQlH_6probar8coverage5blockNtB5_6EdgeId6targetB9_
FNDA:0,_RNvXs0_NtNtCsbqoqex1KQlH_6probar8coverage5blockNtB5_7BlockIdNtNtCs6RpC691fUBl_4core3cmp10PartialOrd11partial_cmp
FNDA:0,_RNvXs1_NtNtCsbqoqex1KQlH_6probar8coverage5blockNtB5_7BlockIdNtNtCs6RpC691fUBl_4core3cmp3Ord3cmp
FNDA:0,_RNvXs4_NtNtCsbqoqex1KQlH_6probar8coverage5blockNtB5_10FunctionIdNtNtCs6RpC691fUBl_4core3cmp10PartialOrd11partial_cmp
FNDA:0,_RNvXs5_NtNtCsbqoqex1KQlH_6probar8coverage5blockNtB5_10FunctionIdNtNtCs6RpC691fUBl_4core3cmp3Ord3cmp
FNDA:0,_RNvXs8_NtNtCsbqoqex1KQlH_6probar8coverage5blockNtB5_6EdgeIdNtNtCs6RpC691fUBl_4core3cmp10PartialOrd11partial_cmp
FNDA:0,_RNvXs9_NtNtCsbqoqex1KQlH_6probar8coverage5blockNtB5_6EdgeIdNtNtCs6RpC691fUBl_4core3cmp3Ord3cmp
FNDA:0,_RINvXs3_NtNtCsbqoqex1KQlH_6probar8coverage5blockNtB6_10FunctionIdNtNtCs6RpC691fUBl_4core4hash4Hash4hashNtNtNtCseKw8H5dE9QK_3std4hash6random13DefaultHasherEBa_
FNDA:0,_RINvXs7_NtNtCsbqoqex1KQlH_6probar8coverage5blockNtB6_6EdgeIdNtNtCs6RpC691fUBl_4core4hash4Hash4hashNtNtNtCseKw8H5dE9QK_3std4hash6random13DefaultHasherEBa_
FNDA:0,_RINvXs_NtNtCsbqoqex1KQlH_6probar8coverage5blockNtB5_7BlockIdNtNtCs6RpC691fUBl_4core4hash4Hash4hashNtNtNtCseKw8H5dE9QK_3std4hash6random13DefaultHasherEB9_
FNDA:0,_RINvXs3_NtNtCs4eUmXem5O3q_6probar8coverage5blockNtB6_10FunctionIdNtNtCs6RpC691fUBl_4core4hash4Hash4hashpEBa_
FNDA:0,_RINvXs7_NtNtCs4eUmXem5O3q_6probar8coverage5blockNtB6_6EdgeIdNtNtCs6RpC691fUBl_4core4hash4Hash4hashpEBa_
FNDA:0,_RNvMs2_NtNtCs4eUmXem5O3q_6probar8coverage5blockNtB5_10FunctionId3newB9_
FNDA:0,_RNvMs2_NtNtCs4eUmXem5O3q_6probar8coverage5blockNtB5_10FunctionId6as_u32B9_
FNDA:0,_RNvMs6_NtNtCs4eUmXem5O3q_6probar8coverage5blockNtB5_6EdgeId3newB9_
FNDA:0,_RNvMs6_NtNtCs4eUmXem5O3q_6probar8coverage5blockNtB5_6EdgeId6as_u64B9_
FNDA:0,_RNvMs6_NtNtCs4eUmXem5O3q_6probar8coverage5blockNtB5_6EdgeId6sourceB9_
FNDA:0,_RNvMs6_NtNtCs4eUmXem5O3q_6probar8coverage5blockNtB5_6EdgeId6targetB9_
FNDA:0,_RINvXs_NtNtCs4eUmXem5O3q_6probar8coverage5blockNtB5_7BlockIdNtNtCs6RpC691fUBl_4core4hash4Hash4hashNtNtNtCseKw8H5dE9QK_3std4hash6random13DefaultHasherEB9_
FNDA:0,_RNvMNtNtCs4eUmXem5O3q_6probar8coverage5blockNtB2_7BlockId3newB6_
FNDA:0,_RNvMNtNtCs4eUmXem5O3q_6probar8coverage5blockNtB2_7BlockId6as_u32B6_
FNDA:0,_RNvXs0_NtNtCs4eUmXem5O3q_6probar8coverage5blockNtB5_7BlockIdNtNtCs6RpC691fUBl_4core3cmp10PartialOrd11partial_cmp
FNDA:0,_RNvXs1_NtNtCs4eUmXem5O3q_6probar8coverage5blockNtB5_7BlockIdNtNtCs6RpC691fUBl_4core3cmp3Ord3cmp
FNDA:0,_RNvXs4_NtNtCs4eUmXem5O3q_6probar8coverage5blockNtB5_10FunctionIdNtNtCs6RpC691fUBl_4core3cmp10PartialOrd11partial_cmp
FNDA:0,_RNvXs5_NtNtCs4eUmXem5O3q_6probar8coverage5blockNtB5_10FunctionIdNtNtCs6RpC691fUBl_4core3cmp3Ord3cmp
FNDA:0,_RNvXs8_NtNtCs4eUmXem5O3q_6probar8coverage5blockNtB5_6EdgeIdNtNtCs6RpC691fUBl_4core3cmp10PartialOrd11partial_cmp
FNDA:0,_RNvXs9_NtNtCs4eUmXem5O3q_6probar8coverage5blockNtB5_6EdgeIdNtNtCs6RpC691fUBl_4core3cmp3Ord3cmp
FNF:17
FNH:0
DA:20,0
DA:21,0
DA:22,0
DA:27,0
DA:28,0
DA:29,0
DA:33,0
DA:34,0
DA:35,0
DA:39,0
DA:40,0
DA:41,0
DA:45,0
DA:46,0
DA:47,0
DA:60,0
DA:61,0
DA:62,0
DA:67,0
DA:68,0
DA:69,0
DA:73,0
DA:74,0
DA:75,0
DA:79,0
DA:80,0
DA:81,0
DA:85,0
DA:86,0
DA:87,0
DA:108,0
DA:111,0
DA:112,0
DA:117,0
DA:118,0
DA:119,0
DA:124,0
DA:125,0
DA:126,0
DA:131,0
DA:132,0
DA:133,0
DA:137,0
DA:138,0
DA:139,0
DA:143,0
DA:144,0
DA:145,0
DA:149,0
DA:150,0
DA:151,0
BRF:0
BRH:0
LF:51
LH:0
end_of_record
SF:/home/noah/src/probar/crates/probar/src/coverage/collector.rs
FN:41,_RNvMNtNtCsbqoqex1KQlH_6probar8coverage9collectorNtB2_14CoverageConfig7builder
FN:99,_RNvMs0_NtNtCsbqoqex1KQlH_6probar8coverage9collectorNtB5_21CoverageConfigBuilder10max_blocks
FN:71,_RNvMs0_NtNtCsbqoqex1KQlH_6probar8coverage9collectorNtB5_21CoverageConfigBuilder11granularity
FN:85,_RNvMs0_NtNtCsbqoqex1KQlH_6probar8coverage9collectorNtB5_21CoverageConfigBuilder14jidoka_enabled
FN:92,_RNvMs0_NtNtCsbqoqex1KQlH_6probar8coverage9collectorNtB5_21CoverageConfigBuilder19checkpoint_interval
FN:106,_RNvMs0_NtNtCsbqoqex1KQlH_6probar8coverage9collectorNtB5_21CoverageConfigBuilder5build
FN:78,_RNvMs0_NtNtCsbqoqex1KQlH_6probar8coverage9collectorNtB5_21CoverageConfigBuilder8parallel
FN:170,_RNvMs1_NtNtCsbqoqex1KQlH_6probar8coverage9collectorNtB5_17CoverageCollector10begin_test
FN:186,_RNvMs1_NtNtCsbqoqex1KQlH_6probar8coverage9collectorNtB5_17CoverageCollector10record_hit
FN:163,_RNvMs1_NtNtCsbqoqex1KQlH_6probar8coverage9collectorNtB5_17CoverageCollector11end_session
FN:232,_RNvMs1_NtNtCsbqoqex1KQlH_6probar8coverage9collectorNtB5_17CoverageCollector12current_test
FN:154,_RNvMs1_NtNtCsbqoqex1KQlH_6probar8coverage9collectorNtB5_17CoverageCollector13begin_session
FN:207,_RNvMs1_NtNtCsbqoqex1KQlH_6probar8coverage9collectorNtB5_17CoverageCollector14flush_counters
FN:226,_RNvMs1_NtNtCsbqoqex1KQlH_6probar8coverage9collectorNtB5_17CoverageCollector14is_test_active
FN:191,_RNvMs1_NtNtCsbqoqex1KQlH_6probar8coverage9collectorNtB5_17CoverageCollector16record_violation
FN:220,_RNvMs1_NtNtCsbqoqex1KQlH_6probar8coverage9collectorNtB5_17CoverageCollector17is_session_active
FN:141,_RNvMs1_NtNtCsbqoqex1KQlH_6probar8coverage9collectorNtB5_17CoverageCollector3new
FN:238,_RNvMs1_NtNtCsbqoqex1KQlH_6probar8coverage9collectorNtB5_17CoverageCollector6config
FN:179,_RNvMs1_NtNtCsbqoqex1KQlH_6probar8coverage9collectorNtB5_17CoverageCollector8end_test
FN:47,_RNvXs_NtNtCsbqoqex1KQlH_6probar8coverage9collectorNtB4_14CoverageConfigNtNtCs6RpC691fUBl_4core7default7Default7default
FNDA:0,_RNvMNtNtCsbqoqex1KQlH_6probar8coverage9collectorNtB2_14CoverageConfig7builder
FNDA:0,_RNvMs0_NtNtCsbqoqex1KQlH_6probar8coverage9collectorNtB5_21CoverageConfigBuilder10max_blocks
FNDA:0,_RNvMs0_NtNtCsbqoqex1KQlH_6probar8coverage9collectorNtB5_21CoverageConfigBuilder11granularity
FNDA:0,_RNvMs0_NtNtCsbqoqex1KQlH_6probar8coverage9collectorNtB5_21CoverageConfigBuilder14jidoka_enabled
FNDA:0,_RNvMs0_NtNtCsbqoqex1KQlH_6probar8coverage9collectorNtB5_21CoverageConfigBuilder19checkpoint_interval
FNDA:0,_RNvMs0_NtNtCsbqoqex1KQlH_6probar8coverage9collectorNtB5_21CoverageConfigBuilder5build
FNDA:0,_RNvMs0_NtNtCsbqoqex1KQlH_6probar8coverage9collectorNtB5_21CoverageConfigBuilder8parallel
FNDA:0,_RNvMs1_NtNtCsbqoqex1KQlH_6probar8coverage9collectorNtB5_17CoverageCollector10begin_test
FNDA:0,_RNvMs1_NtNtCsbqoqex1KQlH_6probar8coverage9collectorNtB5_17CoverageCollector10record_hit
FNDA:0,_RNvMs1_NtNtCsbqoqex1KQlH_6probar8coverage9collectorNtB5_17CoverageCollector11end_session
FNDA:0,_RNvMs1_NtNtCsbqoqex1KQlH_6probar8coverage9collectorNtB5_17CoverageCollector12current_test
FNDA:0,_RNvMs1_NtNtCsbqoqex1KQlH_6probar8coverage9collectorNtB5_17CoverageCollector13begin_session
FNDA:0,_RNvMs1_NtNtCsbqoqex1KQlH_6probar8coverage9collectorNtB5_17CoverageCollector14flush_counters
FNDA:0,_RNvMs1_NtNtCsbqoqex1KQlH_6probar8coverage9collectorNtB5_17CoverageCollector14is_test_active
FNDA:0,_RNvMs1_NtNtCsbqoqex1KQlH_6probar8coverage9collectorNtB5_17CoverageCollector16record_violation
FNDA:0,_RNvMs1_NtNtCsbqoqex1KQlH_6probar8coverage9collectorNtB5_17CoverageCollector17is_session_active
FNDA:0,_RNvMs1_NtNtCsbqoqex1KQlH_6probar8coverage9collectorNtB5_17CoverageCollector3new
FNDA:0,_RNvMs1_NtNtCsbqoqex1KQlH_6probar8coverage9collectorNtB5_17CoverageCollector6config
FNDA:0,_RNvMs1_NtNtCsbqoqex1KQlH_6probar8coverage9collectorNtB5_17CoverageCollector8end_test
FNDA:0,_RNvXs_NtNtCsbqoqex1KQlH_6probar8coverage9collectorNtB4_14CoverageConfigNtNtCs6RpC691fUBl_4core7default7Default7default
FNF:20
FNH:0
DA:41,0
DA:42,0
DA:43,0
DA:47,0
DA:48,0
DA:49,0
DA:50,0
DA:51,0
DA:52,0
DA:53,0
DA:54,0
DA:55,0
DA:71,0
DA:72,0
DA:73,0
DA:74,0
DA:78,0
DA:79,0
DA:80,0
DA:81,0
DA:85,0
DA:86,0
DA:87,0
DA:88,0
DA:92,0
DA:93,0
DA:94,0
DA:95,0
DA:99,0
DA:100,0
DA:101,0
DA:102,0
DA:106,0
DA:108,0
DA:109,0
DA:110,0
DA:111,0
DA:112,0
DA:113,0
DA:115,0
DA:118,0
DA:141,0
DA:142,0
DA:143,0
DA:144,0
DA:145,0
DA:146,0
DA:147,0
DA:148,0
DA:149,0
DA:150,0
DA:151,0
DA:154,0
DA:155,0
DA:156,0
DA:157,0
DA:158,0
DA:159,0
DA:163,0
DA:164,0
DA:165,0
DA:166,0
DA:167,0
DA:170,0
DA:171,0
DA:172,0
DA:173,0
DA:174,0
DA:175,0
DA:176,0
DA:179,0
DA:180,0
DA:181,0
DA:182,0
DA:183,0
DA:186,0
DA:187,0
DA:188,0
DA:191,0
DA:192,0
DA:193,0
DA:194,0
DA:195,0
DA:196,0
DA:199,0
DA:200,0
DA:201,0
DA:202,0
DA:203,0
DA:204,0
DA:207,0
DA:208,0
DA:209,0
DA:210,0
DA:211,0
DA:212,0
DA:213,0
DA:215,0
DA:216,0
DA:220,0
DA:221,0
DA:222,0
DA:226,0
DA:227,0
DA:228,0
DA:232,0
DA:233,0
DA:234,0
DA:238,0
DA:239,0
DA:240,0
BRF:0
BRH:0
LF:111
LH:0
end_of_record
SF:/home/noah/src/probar/crates/probar/src/coverage/executor.rs
FN:60,_RINvMNtNtCsbqoqex1KQlH_6probar8coverage8executorNtB3_16CoverageExecutor7executeNCNvNtNtB5_5tests14executor_testss_19test_executor_empty0EB7_
FN:60,_RINvMNtNtCsbqoqex1KQlH_6probar8coverage8executorNtB3_16CoverageExecutor7executeNCNvNtNtB5_5tests14executor_testss_21test_executor_execute0EB7_
FN:60,_RINvMNtNtCsbqoqex1KQlH_6probar8coverage8executorNtB3_16CoverageExecutor7executeNCNvNtNtB5_5tests14executor_testss_34test_executor_execute_with_failure0EB7_
FN:65,_RNCINvMNtNtCsbqoqex1KQlH_6probar8coverage8executorNtB5_16CoverageExecutor7executeNCNvNtNtB7_5tests14executor_testss_19test_executor_empty0E0B9_
FN:65,_RNCINvMNtNtCsbqoqex1KQlH_6probar8coverage8executorNtB5_16CoverageExecutor7executeNCNvNtNtB7_5tests14executor_testss_21test_executor_execute0E0B9_
FN:65,_RNCINvMNtNtCsbqoqex1KQlH_6probar8coverage8executorNtB5_16CoverageExecutor7executeNCNvNtNtB7_5tests14executor_testss_34test_executor_execute_with_failure0E0B9_
FN:93,_RNCNvMNtNtCsbqoqex1KQlH_6probar8coverage8executorNtB4_16CoverageExecutor17total_block_count0B8_
FN:44,_RNvMNtNtCsbqoqex1KQlH_6probar8coverage8executorNtB2_16CoverageExecutor12with_workers
FN:98,_RNvMNtNtCsbqoqex1KQlH_6probar8coverage8executorNtB2_16CoverageExecutor12worker_count
FN:86,_RNvMNtNtCsbqoqex1KQlH_6probar8coverage8executorNtB2_16CoverageExecutor16superblock_count
FN:92,_RNvMNtNtCsbqoqex1KQlH_6probar8coverage8executorNtB2_16CoverageExecutor17total_block_count
FN:51,_RNvMNtNtCsbqoqex1KQlH_6probar8coverage8executorNtB2_16CoverageExecutor18with_work_stealing
FN:34,_RNvMNtNtCsbqoqex1KQlH_6probar8coverage8executorNtB2_16CoverageExecutor3new
FN:104,_RNvNtNtCsbqoqex1KQlH_6probar8coverage8executor8num_cpus
FN:60,_RINvMNtNtCs4eUmXem5O3q_6probar8coverage8executorNtB3_16CoverageExecutor7executepEB7_
FN:65,_RNCINvMNtNtCs4eUmXem5O3q_6probar8coverage8executorNtB5_16CoverageExecutor7executepE0B9_
FN:93,_RNCNvMNtNtCs4eUmXem5O3q_6probar8coverage8executorNtB4_16CoverageExecutor17total_block_count0B8_
FN:44,_RNvMNtNtCs4eUmXem5O3q_6probar8coverage8executorNtB2_16CoverageExecutor12with_workers
FN:98,_RNvMNtNtCs4eUmXem5O3q_6probar8coverage8executorNtB2_16CoverageExecutor12worker_count
FN:86,_RNvMNtNtCs4eUmXem5O3q_6probar8coverage8executorNtB2_16CoverageExecutor16superblock_count
FN:92,_RNvMNtNtCs4eUmXem5O3q_6probar8coverage8executorNtB2_16CoverageExecutor17total_block_count
FN:51,_RNvMNtNtCs4eUmXem5O3q_6probar8coverage8executorNtB2_16CoverageExecutor18with_work_stealing
FN:34,_RNvMNtNtCs4eUmXem5O3q_6probar8coverage8executorNtB2_16CoverageExecutor3new
FN:104,_RNvNtNtCs4eUmXem5O3q_6probar8coverage8executor8num_cpus
FNDA:0,_RINvMNtNtCsbqoqex1KQlH_6probar8coverage8executorNtB3_16CoverageExecutor7executeNCNvNtNtB5_5tests14executor_testss_19test_executor_empty0EB7_
FNDA:0,_RINvMNtNtCsbqoqex1KQlH_6probar8coverage8executorNtB3_16CoverageExecutor7executeNCNvNtNtB5_5tests14executor_testss_21test_executor_execute0EB7_
FNDA:0,_RINvMNtNtCsbqoqex1KQlH_6probar8coverage8executorNtB3_16CoverageExecutor7executeNCNvNtNtB5_5tests14executor_testss_34test_executor_execute_with_failure0EB7_
FNDA:0,_RNCINvMNtNtCsbqoqex1KQlH_6probar8coverage8executorNtB5_16CoverageExecutor7executeNCNvNtNtB7_5tests14executor_testss_19test_executor_empty0E0B9_
FNDA:0,_RNCINvMNtNtCsbqoqex1KQlH_6probar8coverage8executorNtB5_16CoverageExecutor7executeNCNvNtNtB7_5tests14executor_testss_21test_executor_execute0E0B9_
FNDA:0,_RNCINvMNtNtCsbqoqex1KQlH_6probar8coverage8executorNtB5_16CoverageExecutor7executeNCNvNtNtB7_5tests14executor_testss_34test_executor_execute_with_failure0E0B9_
FNDA:0,_RNCNvMNtNtCsbqoqex1KQlH_6probar8coverage8executorNtB4_16CoverageExecutor17total_block_count0B8_
FNDA:0,_RNvMNtNtCsbqoqex1KQlH_6probar8coverage8executorNtB2_16CoverageExecutor12with_workers
FNDA:0,_RNvMNtNtCsbqoqex1KQlH_6probar8coverage8executorNtB2_16CoverageExecutor12worker_count
FNDA:0,_RNvMNtNtCsbqoqex1KQlH_6probar8coverage8executorNtB2_16CoverageExecutor16superblock_count
FNDA:0,_RNvMNtNtCsbqoqex1KQlH_6probar8coverage8executorNtB2_16CoverageExecutor17total_block_count
FNDA:0,_RNvMNtNtCsbqoqex1KQlH_6probar8coverage8executorNtB2_16CoverageExecutor18with_work_stealing
FNDA:0,_RNvMNtNtCsbqoqex1KQlH_6probar8coverage8executorNtB2_16CoverageExecutor3new
FNDA:0,_RNvNtNtCsbqoqex1KQlH_6probar8coverage8executor8num_cpus
FNDA:0,_RINvMNtNtCs4eUmXem5O3q_6probar8coverage8executorNtB3_16CoverageExecutor7executepEB7_
FNDA:0,_RNCINvMNtNtCs4eUmXem5O3q_6probar8coverage8executorNtB5_16CoverageExecutor7executepE0B9_
FNDA:0,_RNCNvMNtNtCs4eUmXem5O3q_6probar8coverage8executorNtB4_16CoverageExecutor17total_block_count0B8_
FNDA:0,_RNvMNtNtCs4eUmXem5O3q_6probar8coverage8executorNtB2_16CoverageExecutor12with_workers
FNDA:0,_RNvMNtNtCs4eUmXem5O3q_6probar8coverage8executorNtB2_16CoverageExecutor12worker_count
FNDA:0,_RNvMNtNtCs4eUmXem5O3q_6probar8coverage8executorNtB2_16CoverageExecutor16superblock_count
FNDA:0,_RNvMNtNtCs4eUmXem5O3q_6probar8coverage8executorNtB2_16CoverageExecutor17total_block_count
FNDA:0,_RNvMNtNtCs4eUmXem5O3q_6probar8coverage8executorNtB2_16CoverageExecutor18with_work_stealing
FNDA:0,_RNvMNtNtCs4eUmXem5O3q_6probar8coverage8executorNtB2_16CoverageExecutor3new
FNDA:0,_RNvNtNtCs4eUmXem5O3q_6probar8coverage8executor8num_cpus
FNF:10
FNH:0
DA:34,0
DA:35,0
DA:36,0
DA:37,0
DA:38,0
DA:39,0
DA:40,0
DA:44,0
DA:45,0
DA:46,0
DA:47,0
DA:51,0
DA:52,0
DA:53,0
DA:54,0
DA:60,0
DA:61,0
DA:62,0
DA:65,0
DA:67,0
DA:71,0
DA:72,0
DA:73,0
DA:75,0
DA:76,0
DA:77,0
DA:78,0
DA:81,0
DA:82,0
DA:86,0
DA:87,0
DA:88,0
DA:92,0
DA:93,0
DA:94,0
DA:98,0
DA:99,0
DA:100,0
DA:104,0
DA:106,0
DA:107,0
BRF:0
BRH:0
LF:43
LH:0
end_of_record
SF:/home/noah/src/probar/crates/probar/src/coverage/formatters/cobertura.rs
FN:237,_RNvMNtNtNtCsbqoqex1KQlH_6probar8coverage10formatters9coberturaNtB2_18CoberturaFormatter13extract_lines
FN:160,_RNvMNtNtNtCsbqoqex1KQlH_6probar8coverage10formatters9coberturaNtB2_18CoberturaFormatter13group_by_file
FN:186,_RNvMNtNtNtCsbqoqex1KQlH_6probar8coverage10formatters9coberturaNtB2_18CoberturaFormatter16group_by_package
FN:204,_RNvMNtNtNtCsbqoqex1KQlH_6probar8coverage10formatters9coberturaNtB2_18CoberturaFormatter18extract_class_name
FN:230,_RNvMNtNtNtCsbqoqex1KQlH_6probar8coverage10formatters9coberturaNtB2_18CoberturaFormatter23calculate_file_coverage
FN:213,_RNvMNtNtNtCsbqoqex1KQlH_6probar8coverage10formatters9coberturaNtB2_18CoberturaFormatter26calculate_package_coverage
FN:50,_RNvMNtNtNtCsbqoqex1KQlH_6probar8coverage10formatters9coberturaNtB2_18CoberturaFormatter3new
FN:153,_RNvMNtNtNtCsbqoqex1KQlH_6probar8coverage10formatters9coberturaNtB2_18CoberturaFormatter4save
FN:66,_RNvMNtNtNtCsbqoqex1KQlH_6probar8coverage10formatters9coberturaNtB2_18CoberturaFormatter8generate
FN:59,_RINvMNtNtNtCsbqoqex1KQlH_6probar8coverage10formatters9coberturaNtB3_18CoberturaFormatter12with_versionReEB9_
FN:172,_RNCNCNvMNtNtNtCsbqoqex1KQlH_6probar8coverage10formatters9coberturaNtB6_18CoberturaFormatter13group_by_files0_00Bc_
FN:165,_RNCNvMNtNtNtCsbqoqex1KQlH_6probar8coverage10formatters9coberturaNtB4_18CoberturaFormatter13group_by_file0Ba_
FN:169,_RNCNvMNtNtNtCsbqoqex1KQlH_6probar8coverage10formatters9coberturaNtB4_18CoberturaFormatter13group_by_files0_0Ba_
FN:166,_RNCNvMNtNtNtCsbqoqex1KQlH_6probar8coverage10formatters9coberturaNtB4_18CoberturaFormatter13group_by_files_0Ba_
FN:192,_RNCNvMNtNtNtCsbqoqex1KQlH_6probar8coverage10formatters9coberturaNtB4_18CoberturaFormatter16group_by_package0Ba_
FN:192,_RNCNvMNtNtNtCsbqoqex1KQlH_6probar8coverage10formatters9coberturaNtB4_18CoberturaFormatter16group_by_packages_0Ba_
FN:207,_RNCNvMNtNtNtCsbqoqex1KQlH_6probar8coverage10formatters9coberturaNtB4_18CoberturaFormatter18extract_class_name0Ba_
FN:207,_RNCNvMNtNtNtCsbqoqex1KQlH_6probar8coverage10formatters9coberturaNtB4_18CoberturaFormatter18extract_class_names_0Ba_
FN:232,_RNCNvMNtNtNtCsbqoqex1KQlH_6probar8coverage10formatters9coberturaNtB4_18CoberturaFormatter23calculate_file_coverage0Ba_
FN:256,_RNvNtNtNtNtCsbqoqex1KQlH_6probar8coverage10formatters9cobertura5tests18create_test_report
FN:349,_RNvNtNtNtNtCsbqoqex1KQlH_6probar8coverage10formatters9cobertura5testss_19test_generate_lines
FN:337,_RNvNtNtNtNtCsbqoqex1KQlH_6probar8coverage10formatters9cobertura5testss_21test_generate_classes
FN:305,_RNvNtNtNtNtCsbqoqex1KQlH_6probar8coverage10formatters9cobertura5testss_21test_generate_doctype
FN:396,_RNvNtNtNtNtCsbqoqex1KQlH_6probar8coverage10formatters9cobertura5testss_21test_package_grouping
FN:326,_RNvNtNtNtNtCsbqoqex1KQlH_6probar8coverage10formatters9cobertura5testss_22test_generate_packages
FN:361,_RNvNtNtNtNtCsbqoqex1KQlH_6probar8coverage10formatters9cobertura5testss_22test_save_creates_file
FN:376,_RNvNtNtNtNtCsbqoqex1KQlH_6probar8coverage10formatters9cobertura5testss_23test_extract_class_name
FN:386,_RNvNtNtNtNtCsbqoqex1KQlH_6probar8coverage10formatters9cobertura5testss_26test_line_rate_calculation
FN:406,_RNvNtNtNtNtCsbqoqex1KQlH_6probar8coverage10formatters9cobertura5testss_28test_calculate_file_coverage
FN:282,_RNvNtNtNtNtCsbqoqex1KQlH_6probar8coverage10formatters9cobertura5testss_28test_cobertura_formatter_new
FN:296,_RNvNtNtNtNtCsbqoqex1KQlH_6probar8coverage10formatters9cobertura5testss_29test_generate_xml_declaration
FN:314,_RNvNtNtNtNtCsbqoqex1KQlH_6probar8coverage10formatters9cobertura5testss_30test_generate_coverage_element
FN:289,_RNvNtNtNtNtCsbqoqex1KQlH_6probar8coverage10formatters9cobertura5testss_37test_cobertura_formatter_with_version
FN:172,_RNCNCNvMNtNtNtCs4eUmXem5O3q_6probar8coverage10formatters9coberturaNtB6_18CoberturaFormatter13group_by_files0_00Bc_
FN:165,_RNCNvMNtNtNtCs4eUmXem5O3q_6probar8coverage10formatters9coberturaNtB4_18CoberturaFormatter13group_by_file0Ba_
FN:169,_RNCNvMNtNtNtCs4eUmXem5O3q_6probar8coverage10formatters9coberturaNtB4_18CoberturaFormatter13group_by_files0_0Ba_
FN:166,_RNCNvMNtNtNtCs4eUmXem5O3q_6probar8coverage10formatters9coberturaNtB4_18CoberturaFormatter13group_by_files_0Ba_
FN:192,_RNCNvMNtNtNtCs4eUmXem5O3q_6probar8coverage10formatters9coberturaNtB4_18CoberturaFormatter16group_by_package0Ba_
FN:192,_RNCNvMNtNtNtCs4eUmXem5O3q_6probar8coverage10formatters9coberturaNtB4_18CoberturaFormatter16group_by_packages_0Ba_
FN:207,_RNCNvMNtNtNtCs4eUmXem5O3q_6probar8coverage10formatters9coberturaNtB4_18CoberturaFormatter18extract_class_name0Ba_
FN:207,_RNCNvMNtNtNtCs4eUmXem5O3q_6probar8coverage10formatters9coberturaNtB4_18CoberturaFormatter18extract_class_names_0Ba_
FN:232,_RNCNvMNtNtNtCs4eUmXem5O3q_6probar8coverage10formatters9coberturaNtB4_18CoberturaFormatter23calculate_file_coverage0Ba_
FN:59,_RINvMNtNtNtCs4eUmXem5O3q_6probar8coverage10formatters9coberturaNtB3_18CoberturaFormatter12with_versionpEB9_
FNDA:0,_RNvMNtNtNtCsbqoqex1KQlH_6probar8coverage10formatters9coberturaNtB2_18CoberturaFormatter13extract_lines
FNDA:0,_RNvMNtNtNtCsbqoqex1KQlH_6probar8coverage10formatters9coberturaNtB2_18CoberturaFormatter13group_by_file
FNDA:0,_RNvMNtNtNtCsbqoqex1KQlH_6probar8coverage10formatters9coberturaNtB2_18CoberturaFormatter16group_by_package
FNDA:0,_RNvMNtNtNtCsbqoqex1KQlH_6probar8coverage10formatters9coberturaNtB2_18CoberturaFormatter18extract_class_name
FNDA:0,_RNvMNtNtNtCsbqoqex1KQlH_6probar8coverage10formatters9coberturaNtB2_18CoberturaFormatter23calculate_file_coverage
FNDA:0,_RNvMNtNtNtCsbqoqex1KQlH_6probar8coverage10formatters9coberturaNtB2_18CoberturaFormatter26calculate_package_coverage
FNDA:0,_RNvMNtNtNtCsbqoqex1KQlH_6probar8coverage10formatters9coberturaNtB2_18CoberturaFormatter3new
FNDA:0,_RNvMNtNtNtCsbqoqex1KQlH_6probar8coverage10formatters9coberturaNtB2_18CoberturaFormatter4save
FNDA:0,_RNvMNtNtNtCsbqoqex1KQlH_6probar8coverage10formatters9coberturaNtB2_18CoberturaFormatter8generate
FNDA:0,_RINvMNtNtNtCsbqoqex1KQlH_6probar8coverage10formatters9coberturaNtB3_18CoberturaFormatter12with_versionReEB9_
FNDA:0,_RNCNCNvMNtNtNtCsbqoqex1KQlH_6probar8coverage10formatters9coberturaNtB6_18CoberturaFormatter13group_by_files0_00Bc_
FNDA:0,_RNCNvMNtNtNtCsbqoqex1KQlH_6probar8coverage10formatters9coberturaNtB4_18CoberturaFormatter13group_by_file0Ba_
FNDA:0,_RNCNvMNtNtNtCsbqoqex1KQlH_6probar8coverage10formatters9coberturaNtB4_18CoberturaFormatter13group_by_files0_0Ba_
FNDA:0,_RNCNvMNtNtNtCsbqoqex1KQlH_6probar8coverage10formatters9coberturaNtB4_18CoberturaFormatter13group_by_files_0Ba_
FNDA:0,_RNCNvMNtNtNtCsbqoqex1KQlH_6probar8coverage10formatters9coberturaNtB4_18CoberturaFormatter16group_by_package0Ba_
FNDA:0,_RNCNvMNtNtNtCsbqoqex1KQlH_6probar8coverage10formatters9coberturaNtB4_18CoberturaFormatter16group_by_packages_0Ba_
FNDA:0,_RNCNvMNtNtNtCsbqoqex1KQlH_6probar8coverage10formatters9coberturaNtB4_18CoberturaFormatter18extract_class_name0Ba_
FNDA:0,_RNCNvMNtNtNtCsbqoqex1KQlH_6probar8coverage10formatters9coberturaNtB4_18CoberturaFormatter18extract_class_names_0Ba_
FNDA:0,_RNCNvMNtNtNtCsbqoqex1KQlH_6probar8coverage10formatters9coberturaNtB4_18CoberturaFormatter23calculate_file_coverage0Ba_
FNDA:0,_RNvNtNtNtNtCsbqoqex1KQlH_6probar8coverage10formatters9cobertura5tests18create_test_report
FNDA:0,_RNvNtNtNtNtCsbqoqex1KQlH_6probar8coverage10formatters9cobertura5testss_19test_generate_lines
FNDA:0,_RNvNtNtNtNtCsbqoqex1KQlH_6probar8coverage10formatters9cobertura5testss_21test_generate_classes
FNDA:0,_RNvNtNtNtNtCsbqoqex1KQlH_6probar8coverage10formatters9cobertura5testss_21test_generate_doctype
FNDA:0,_RNvNtNtNtNtCsbqoqex1KQlH_6probar8coverage10formatters9cobertura5testss_21test_package_grouping
FNDA:0,_RNvNtNtNtNtCsbqoqex1KQlH_6probar8coverage10formatters9cobertura5testss_22test_generate_packages
FNDA:0,_RNvNtNtNtNtCsbqoqex1KQlH_6probar8coverage10formatters9cobertura5testss_22test_save_creates_file
FNDA:0,_RNvNtNtNtNtCsbqoqex1KQlH_6probar8coverage10formatters9cobertura5testss_23test_extract_class_name
FNDA:0,_RNvNtNtNtNtCsbqoqex1KQlH_6probar8coverage10formatters9cobertura5testss_26test_line_rate_calculation
FNDA:0,_RNvNtNtNtNtCsbqoqex1KQlH_6probar8coverage10formatters9cobertura5testss_28test_calculate_file_coverage
FNDA:0,_RNvNtNtNtNtCsbqoqex1KQlH_6probar8coverage10formatters9cobertura5testss_28test_cobertura_formatter_new
FNDA:0,_RNvNtNtNtNtCsbqoqex1KQlH_6probar8coverage10formatters9cobertura5testss_29test_generate_xml_declaration
FNDA:0,_RNvNtNtNtNtCsbqoqex1KQlH_6probar8coverage10formatters9cobertura5testss_30test_generate_coverage_element
FNDA:0,_RNvNtNtNtNtCsbqoqex1KQlH_6probar8coverage10formatters9cobertura5testss_37test_cobertura_formatter_with_version
FNDA:0,_RNCNCNvMNtNtNtCs4eUmXem5O3q_6probar8coverage10formatters9coberturaNtB6_18CoberturaFormatter13group_by_files0_00Bc_
FNDA:0,_RNCNvMNtNtNtCs4eUmXem5O3q_6probar8coverage10formatters9coberturaNtB4_18CoberturaFormatter13group_by_file0Ba_
FNDA:0,_RNCNvMNtNtNtCs4eUmXem5O3q_6probar8coverage10formatters9coberturaNtB4_18CoberturaFormatter13group_by_files0_0Ba_
FNDA:0,_RNCNvMNtNtNtCs4eUmXem5O3q_6probar8coverage10formatters9coberturaNtB4_18CoberturaFormatter13group_by_files_0Ba_
FNDA:0,_RNCNvMNtNtNtCs4eUmXem5O3q_6probar8coverage10formatters9coberturaNtB4_18CoberturaFormatter16group_by_package0Ba_
FNDA:0,_RNCNvMNtNtNtCs4eUmXem5O3q_6probar8coverage10formatters9coberturaNtB4_18CoberturaFormatter16group_by_packages_0Ba_
FNDA:0,_RNCNvMNtNtNtCs4eUmXem5O3q_6probar8coverage10formatters9coberturaNtB4_18CoberturaFormatter18extract_class_name0Ba_
FNDA:0,_RNCNvMNtNtNtCs4eUmXem5O3q_6probar8coverage10formatters9coberturaNtB4_18CoberturaFormatter18extract_class_names_0Ba_
FNDA:0,_RNCNvMNtNtNtCs4eUmXem5O3q_6probar8coverage10formatters9coberturaNtB4_18CoberturaFormatter23calculate_file_coverage0Ba_
FNDA:0,_RINvMNtNtNtCs4eUmXem5O3q_6probar8coverage10formatters9coberturaNtB3_18CoberturaFormatter12with_versionpEB9_
FNF:33
FNH:0
DA:50,0
DA:51,0
DA:52,0
DA:53,0
DA:54,0
DA:55,0
DA:59,0
DA:60,0
DA:61,0
DA:62,0
DA:66,0
DA:67,0
DA:68,0
DA:69,0
DA:71,0
DA:73,0
DA:74,0
DA:75,0
DA:76,0
DA:78,0
DA:79,0
DA:80,0
DA:81,0
DA:87,0
DA:89,0
DA:91,0
DA:92,0
DA:93,0
DA:94,0
DA:96,0
DA:99,0
DA:100,0
DA:101,0
DA:104,0
DA:105,0
DA:107,0
DA:108,0
DA:109,0
DA:110,0
DA:111,0
DA:113,0
DA:116,0
DA:117,0
DA:118,0
DA:121,0
DA:122,0
DA:124,0
DA:125,0
DA:126,0
DA:127,0
DA:128,0
DA:129,0
DA:130,0
DA:131,0
DA:132,0
DA:134,0
DA:135,0
DA:138,0
DA:139,0
DA:142,0
DA:143,0
DA:145,0
DA:146,0
DA:153,0
DA:154,0
DA:155,0
DA:156,0
DA:157,0
DA:160,0
DA:161,0
DA:163,0
DA:164,0
DA:165,0
DA:166,0
DA:169,0
DA:170,0
DA:171,0
DA:172,0
DA:173,0
DA:174,0
DA:176,0
DA:177,0
DA:178,0
DA:179,0
DA:182,0
DA:183,0
DA:186,0
DA:187,0
DA:189,0
DA:190,0
DA:191,0
DA:192,0
DA:194,0
DA:195,0
DA:196,0
DA:197,0
DA:200,0
DA:201,0
DA:204,0
DA:205,0
DA:206,0
DA:207,0
DA:208,0
DA:209,0
DA:210,0
DA:213,0
DA:214,0
DA:215,0
DA:217,0
DA:218,0
DA:219,0
DA:220,0
DA:221,0
DA:222,0
DA:226,0
DA:227,0
DA:230,0
DA:231,0
DA:232,0
DA:233,0
DA:234,0
DA:237,0
DA:238,0
DA:240,0
DA:241,0
DA:242,0
DA:243,0
DA:246,0
DA:247,0
DA:256,0
DA:257,0
DA:258,0
DA:260,0
DA:261,0
DA:262,0
DA:263,0
DA:264,0
DA:266,0
DA:267,0
DA:268,0
DA:269,0
DA:270,0
DA:272,0
DA:273,0
DA:274,0
DA:275,0
DA:276,0
DA:278,0
DA:279,0
DA:282,0
DA:283,0
DA:284,0
DA:285,0
DA:286,0
DA:289,0
DA:290,0
DA:291,0
DA:292,0
DA:293,0
DA:296,0
DA:297,0
DA:298,0
DA:299,0
DA:301,0
DA:302,0
DA:305,0
DA:306,0
DA:307,0
DA:308,0
DA:310,0
DA:311,0
DA:314,0
DA:315,0
DA:316,0
DA:317,0
DA:319,0
DA:320,0
DA:321,0
DA:322,0
DA:323,0
DA:326,0
DA:327,0
DA:328,0
DA:329,0
DA:331,0
DA:332,0
DA:333,0
DA:334,0
DA:337,0
DA:338,0
DA:339,0
DA:340,0
DA:342,0
DA:343,0
DA:344,0
DA:345,0
DA:346,0
DA:349,0
DA:350,0
DA:351,0
DA:352,0
DA:354,0
DA:355,0
DA:356,0
DA:357,0
DA:358,0
DA:361,0
DA:362,0
DA:363,0
DA:365,0
DA:366,0
DA:368,0
DA:370,0
DA:371,0
DA:372,0
DA:373,0
DA:376,0
DA:377,0
DA:378,0
DA:379,0
DA:382,0
DA:383,0
DA:386,0
DA:387,0
DA:388,0
DA:389,0
DA:392,0
DA:393,0
DA:396,0
DA:397,0
DA:398,0
DA:399,0
DA:400,0
DA:402,0
DA:403,0
DA:406,0
DA:408,0
DA:409,0
DA:410,0
DA:411,0
DA:414,0
DA:415,0
DA:416,0
DA:417,0
BRF:0
BRH:0
LF:251
LH:0
end_of_record
SF:/home/noah/src/probar/crates/probar/src/coverage/formatters/html.rs
FN:481,_RNvNtNtNtNtNtCsbqoqex1KQlH_6probar8coverage10formatters4html5tests11theme_testss_18test_theme_default
FN:487,_RNvNtNtNtNtNtCsbqoqex1KQlH_6probar8coverage10formatters4html5tests11theme_testss_19test_theme_variants
FN:179,_RNvMs0_NtNtNtCsbqoqex1KQlH_6probar8coverage10formatters4htmlNtB5_13HtmlFormatter11theme_class
FN:118,_RNvMs0_NtNtNtCsbqoqex1KQlH_6probar8coverage10formatters4htmlNtB5_13HtmlFormatter11with_config
FN:188,_RNvMs0_NtNtNtCsbqoqex1KQlH_6probar8coverage10formatters4htmlNtB5_13HtmlFormatter12generate_css
FN:283,_RNvMs0_NtNtNtCsbqoqex1KQlH_6probar8coverage10formatters4htmlNtB5_13HtmlFormatter13group_by_file
FN:254,_RNvMs0_NtNtNtCsbqoqex1KQlH_6probar8coverage10formatters4htmlNtB5_13HtmlFormatter22generate_files_section
FN:219,_RNvMs0_NtNtNtCsbqoqex1KQlH_6probar8coverage10formatters4htmlNtB5_13HtmlFormatter24generate_summary_section
FN:109,_RNvMs0_NtNtNtCsbqoqex1KQlH_6probar8coverage10formatters4htmlNtB5_13HtmlFormatter3new
FN:168,_RNvMs0_NtNtNtCsbqoqex1KQlH_6probar8coverage10formatters4htmlNtB5_13HtmlFormatter4save
FN:124,_RNvMs0_NtNtNtCsbqoqex1KQlH_6probar8coverage10formatters4htmlNtB5_13HtmlFormatter8generate
FN:86,_RNvMs_NtNtNtCsbqoqex1KQlH_6probar8coverage10formatters4htmlNtB4_16HtmlReportConfig10with_theme
FN:93,_RNvMs_NtNtNtCsbqoqex1KQlH_6probar8coverage10formatters4htmlNtB4_16HtmlReportConfig17with_line_numbers
FN:79,_RNvMs_NtNtNtCsbqoqex1KQlH_6probar8coverage10formatters4htmlNtB4_16HtmlReportConfig20with_branch_coverage
FN:72,_RNvMs_NtNtNtCsbqoqex1KQlH_6probar8coverage10formatters4htmlNtB4_16HtmlReportConfig24with_highlight_uncovered
FN:59,_RNvMs_NtNtNtCsbqoqex1KQlH_6probar8coverage10formatters4htmlNtB4_16HtmlReportConfig3new
FN:45,_RNvXNtNtNtCsbqoqex1KQlH_6probar8coverage10formatters4htmlNtB2_16HtmlReportConfigNtNtCs6RpC691fUBl_4core7default7Default7default
FN:65,_RINvMs_NtNtNtCsbqoqex1KQlH_6probar8coverage10formatters4htmlNtB5_16HtmlReportConfig10with_titleReEBb_
FN:295,_RNCNCNvMs0_NtNtNtCsbqoqex1KQlH_6probar8coverage10formatters4htmlNtB9_13HtmlFormatter13group_by_files0_00Bf_
FN:288,_RNCNvMs0_NtNtNtCsbqoqex1KQlH_6probar8coverage10formatters4htmlNtB7_13HtmlFormatter13group_by_file0Bd_
FN:292,_RNCNvMs0_NtNtNtCsbqoqex1KQlH_6probar8coverage10formatters4htmlNtB7_13HtmlFormatter13group_by_files0_0Bd_
FN:289,_RNCNvMs0_NtNtNtCsbqoqex1KQlH_6probar8coverage10formatters4htmlNtB7_13HtmlFormatter13group_by_files_0Bd_
FN:259,_RNCNvMs0_NtNtNtCsbqoqex1KQlH_6probar8coverage10formatters4htmlNtB7_13HtmlFormatter22generate_files_section0Bd_
FN:338,_RNvNtNtNtNtNtCsbqoqex1KQlH_6probar8coverage10formatters4html5tests12config_testss_19test_default_config
FN:354,_RNvNtNtNtNtNtCsbqoqex1KQlH_6probar8coverage10formatters4html5tests12config_testss_22test_config_with_theme
FN:348,_RNvNtNtNtNtNtCsbqoqex1KQlH_6probar8coverage10formatters4html5tests12config_testss_22test_config_with_title
FN:360,_RNvNtNtNtNtNtCsbqoqex1KQlH_6probar8coverage10formatters4html5tests12config_testss_28test_config_chained_builders
FN:440,_RNvNtNtNtNtNtCsbqoqex1KQlH_6probar8coverage10formatters4html5tests15formatter_testss_16test_theme_class
FN:380,_RNvNtNtNtNtNtCsbqoqex1KQlH_6probar8coverage10formatters4html5tests15formatter_testss_23test_html_formatter_new
FN:430,_RNvNtNtNtNtNtCsbqoqex1KQlH_6probar8coverage10formatters4html5tests15formatter_testss_28test_generate_contains_files
FN:409,_RNvNtNtNtNtNtCsbqoqex1KQlH_6probar8coverage10formatters4html5tests15formatter_testss_28test_generate_contains_title
FN:419,_RNvNtNtNtNtNtCsbqoqex1KQlH_6probar8coverage10formatters4html5tests15formatter_testss_30test_generate_contains_summary
FN:387,_RNvNtNtNtNtNtCsbqoqex1KQlH_6probar8coverage10formatters4html5tests15formatter_testss_31test_html_formatter_with_config
FN:463,_RNvNtNtNtNtNtCsbqoqex1KQlH_6probar8coverage10formatters4html5tests15formatter_testss_36test_save_creates_directory_and_file
FN:395,_RNvNtNtNtNtNtCsbqoqex1KQlH_6probar8coverage10formatters4html5tests15formatter_testss_37test_generate_contains_html_structure
FN:315,_RNvNtNtNtNtCsbqoqex1KQlH_6probar8coverage10formatters4html5tests18create_test_report
FN:65,_RINvMs_NtNtNtCs4eUmXem5O3q_6probar8coverage10formatters4htmlNtB5_16HtmlReportConfig10with_titlepEBb_
FN:295,_RNCNCNvMs0_NtNtNtCs4eUmXem5O3q_6probar8coverage10formatters4htmlNtB9_13HtmlFormatter13group_by_files0_00Bf_
FN:288,_RNCNvMs0_NtNtNtCs4eUmXem5O3q_6probar8coverage10formatters4htmlNtB7_13HtmlFormatter13group_by_file0Bd_
FN:292,_RNCNvMs0_NtNtNtCs4eUmXem5O3q_6probar8coverage10formatters4htmlNtB7_13HtmlFormatter13group_by_files0_0Bd_
FN:289,_RNCNvMs0_NtNtNtCs4eUmXem5O3q_6probar8coverage10formatters4htmlNtB7_13HtmlFormatter13group_by_files_0Bd_
FN:259,_RNCNvMs0_NtNtNtCs4eUmXem5O3q_6probar8coverage10formatters4htmlNtB7_13HtmlFormatter22generate_files_section0Bd_
FNDA:0,_RNvNtNtNtNtNtCsbqoqex1KQlH_6probar8coverage10formatters4html5tests11theme_testss_18test_theme_default
FNDA:0,_RNvNtNtNtNtNtCsbqoqex1KQlH_6probar8coverage10formatters4html5tests11theme_testss_19test_theme_variants
FNDA:0,_RNvMs0_NtNtNtCsbqoqex1KQlH_6probar8coverage10formatters4htmlNtB5_13HtmlFormatter11theme_class
FNDA:0,_RNvMs0_NtNtNtCsbqoqex1KQlH_6probar8coverage10formatters4htmlNtB5_13HtmlFormatter11with_config
FNDA:0,_RNvMs0_NtNtNtCsbqoqex1KQlH_6probar8coverage10formatters4htmlNtB5_13HtmlFormatter12generate_css
FNDA:0,_RNvMs0_NtNtNtCsbqoqex1KQlH_6probar8coverage10formatters4htmlNtB5_13HtmlFormatter13group_by_file
FNDA:0,_RNvMs0_NtNtNtCsbqoqex1KQlH_6probar8coverage10formatters4htmlNtB5_13HtmlFormatter22generate_files_section
FNDA:0,_RNvMs0_NtNtNtCsbqoqex1KQlH_6probar8coverage10formatters4htmlNtB5_13HtmlFormatter24generate_summary_section
FNDA:0,_RNvMs0_NtNtNtCsbqoqex1KQlH_6probar8coverage10formatters4htmlNtB5_13HtmlFormatter3new
FNDA:0,_RNvMs0_NtNtNtCsbqoqex1KQlH_6probar8coverage10formatters4htmlNtB5_13HtmlFormatter4save
FNDA:0,_RNvMs0_NtNtNtCsbqoqex1KQlH_6probar8coverage10formatters4htmlNtB5_13HtmlFormatter8generate
FNDA:0,_RNvMs_NtNtNtCsbqoqex1KQlH_6probar8coverage10formatters4htmlNtB4_16HtmlReportConfig10with_theme
FNDA:0,_RNvMs_NtNtNtCsbqoqex1KQlH_6probar8coverage10formatters4htmlNtB4_16HtmlReportConfig17with_line_numbers
FNDA:0,_RNvMs_NtNtNtCsbqoqex1KQlH_6probar8coverage10formatters4htmlNtB4_16HtmlReportConfig20with_branch_coverage
FNDA:0,_RNvMs_NtNtNtCsbqoqex1KQlH_6probar8coverage10formatters4htmlNtB4_16HtmlReportConfig24with_highlight_uncovered
FNDA:0,_RNvMs_NtNtNtCsbqoqex1KQlH_6probar8coverage10formatters4htmlNtB4_16HtmlReportConfig3new
FNDA:0,_RNvXNtNtNtCsbqoqex1KQlH_6probar8coverage10formatters4htmlNtB2_16HtmlReportConfigNtNtCs6RpC691fUBl_4core7default7Default7default
FNDA:0,_RINvMs_NtNtNtCsbqoqex1KQlH_6probar8coverage10formatters4htmlNtB5_16HtmlReportConfig10with_titleReEBb_
FNDA:0,_RNCNCNvMs0_NtNtNtCsbqoqex1KQlH_6probar8coverage10formatters4htmlNtB9_13HtmlFormatter13group_by_files0_00Bf_
FNDA:0,_RNCNvMs0_NtNtNtCsbqoqex1KQlH_6probar8coverage10formatters4htmlNtB7_13HtmlFormatter13group_by_file0Bd_
FNDA:0,_RNCNvMs0_NtNtNtCsbqoqex1KQlH_6probar8coverage10formatters4htmlNtB7_13HtmlFormatter13group_by_files0_0Bd_
FNDA:0,_RNCNvMs0_NtNtNtCsbqoqex1KQlH_6probar8coverage10formatters4htmlNtB7_13HtmlFormatter13group_by_files_0Bd_
FNDA:0,_RNCNvMs0_NtNtNtCsbqoqex1KQlH_6probar8coverage10formatters4htmlNtB7_13HtmlFormatter22generate_files_section0Bd_
FNDA:0,_RNvNtNtNtNtNtCsbqoqex1KQlH_6probar8coverage10formatters4html5tests12config_testss_19test_default_config
FNDA:0,_RNvNtNtNtNtNtCsbqoqex1KQlH_6probar8coverage10formatters4html5tests12config_testss_22test_config_with_theme
FNDA:0,_RNvNtNtNtNtNtCsbqoqex1KQlH_6probar8coverage10formatters4html5tests12config_testss_22test_config_with_title
FNDA:0,_RNvNtNtNtNtNtCsbqoqex1KQlH_6probar8coverage10formatters4html5tests12config_testss_28test_config_chained_builders
FNDA:0,_RNvNtNtNtNtNtCsbqoqex1KQlH_6probar8coverage10formatters4html5tests15formatter_testss_16test_theme_class
FNDA:0,_RNvNtNtNtNtNtCsbqoqex1KQlH_6probar8coverage10formatters4html5tests15formatter_testss_23test_html_formatter_new
FNDA:0,_RNvNtNtNtNtNtCsbqoqex1KQlH_6probar8coverage10formatters4html5tests15formatter_testss_28test_generate_contains_files
FNDA:0,_RNvNtNtNtNtNtCsbqoqex1KQlH_6probar8coverage10formatters4html5tests15formatter_testss_28test_generate_contains_title
FNDA:0,_RNvNtNtNtNtNtCsbqoqex1KQlH_6probar8coverage10formatters4html5tests15formatter_testss_30test_generate_contains_summary
FNDA:0,_RNvNtNtNtNtNtCsbqoqex1KQlH_6probar8coverage10formatters4html5tests15formatter_testss_31test_html_formatter_with_config
FNDA:0,_RNvNtNtNtNtNtCsbqoqex1KQlH_6probar8coverage10formatters4html5tests15formatter_testss_36test_save_creates_directory_and_file
FNDA:0,_RNvNtNtNtNtNtCsbqoqex1KQlH_6probar8coverage10formatters4html5tests15formatter_testss_37test_generate_contains_html_structure
FNDA:0,_RNvNtNtNtNtCsbqoqex1KQlH_6probar8coverage10formatters4html5tests18create_test_report
FNDA:0,_RINvMs_NtNtNtCs4eUmXem5O3q_6probar8coverage10formatters4htmlNtB5_16HtmlReportConfig10with_titlepEBb_
FNDA:0,_RNCNCNvMs0_NtNtNtCs4eUmXem5O3q_6probar8coverage10formatters4htmlNtB9_13HtmlFormatter13group_by_files0_00Bf_
FNDA:0,_RNCNvMs0_NtNtNtCs4eUmXem5O3q_6probar8coverage10formatters4htmlNtB7_13HtmlFormatter13group_by_file0Bd_
FNDA:0,_RNCNvMs0_NtNtNtCs4eUmXem5O3q_6probar8coverage10formatters4htmlNtB7_13HtmlFormatter13group_by_files0_0Bd_
FNDA:0,_RNCNvMs0_NtNtNtCs4eUmXem5O3q_6probar8coverage10formatters4htmlNtB7_13HtmlFormatter13group_by_files_0Bd_
FNDA:0,_RNCNvMs0_NtNtNtCs4eUmXem5O3q_6probar8coverage10formatters4htmlNtB7_13HtmlFormatter22generate_files_section0Bd_
FNF:36
FNH:0
DA:45,0
DA:46,0
DA:47,0
DA:48,0
DA:49,0
DA:50,0
DA:51,0
DA:52,0
DA:53,0
DA:59,0
DA:60,0
DA:61,0
DA:65,0
DA:66,0
DA:67,0
DA:68,0
DA:72,0
DA:73,0
DA:74,0
DA:75,0
DA:79,0
DA:80,0
DA:81,0
DA:82,0
DA:86,0
DA:87,0
DA:88,0
DA:89,0
DA:93,0
DA:94,0
DA:95,0
DA:96,0
DA:109,0
DA:110,0
DA:111,0
DA:112,0
DA:113,0
DA:114,0
DA:118,0
DA:119,0
DA:120,0
DA:124,0
DA:125,0
DA:126,0
DA:128,0
DA:129,0
DA:130,0
DA:132,0
DA:133,0
DA:134,0
DA:135,0
DA:136,0
DA:137,0
DA:138,0
DA:139,0
DA:140,0
DA:141,0
DA:142,0
DA:143,0
DA:144,0
DA:145,0
DA:146,0
DA:147,0
DA:148,0
DA:149,0
DA:150,0
DA:151,0
DA:152,0
DA:153,0
DA:154,0
DA:157,0
DA:161,0
DA:168,0
DA:169,0
DA:171,0
DA:172,0
DA:173,0
DA:175,0
DA:176,0
DA:179,0
DA:180,0
DA:181,0
DA:182,0
DA:183,0
DA:185,0
DA:188,0
DA:189,0
DA:190,0
DA:191,0
DA:192,0
DA:193,0
DA:194,0
DA:195,0
DA:196,0
DA:197,0
DA:198,0
DA:199,0
DA:200,0
DA:201,0
DA:202,0
DA:203,0
DA:204,0
DA:205,0
DA:206,0
DA:207,0
DA:208,0
DA:209,0
DA:210,0
DA:211,0
DA:212,0
DA:213,0
DA:214,0
DA:215,0
DA:216,0
DA:219,0
DA:220,0
DA:221,0
DA:222,0
DA:223,0
DA:225,0
DA:228,0
DA:229,0
DA:230,0
DA:231,0
DA:232,0
DA:233,0
DA:234,0
DA:235,0
DA:236,0
DA:237,0
DA:238,0
DA:239,0
DA:240,0
DA:241,0
DA:242,0
DA:243,0
DA:244,0
DA:245,0
DA:251,0
DA:254,0
DA:256,0
DA:258,0
DA:259,0
DA:260,0
DA:261,0
DA:262,0
DA:264,0
DA:267,0
DA:269,0
DA:270,0
DA:271,0
DA:272,0
DA:273,0
DA:274,0
DA:278,0
DA:279,0
DA:280,0
DA:283,0
DA:284,0
DA:286,0
DA:287,0
DA:288,0
DA:289,0
DA:292,0
DA:293,0
DA:294,0
DA:295,0
DA:296,0
DA:297,0
DA:299,0
DA:300,0
DA:301,0
DA:302,0
DA:305,0
DA:306,0
DA:315,0
DA:316,0
DA:317,0
DA:319,0
DA:320,0
DA:321,0
DA:322,0
DA:323,0
DA:325,0
DA:326,0
DA:327,0
DA:328,0
DA:329,0
DA:331,0
DA:332,0
DA:338,0
DA:339,0
DA:340,0
DA:341,0
DA:342,0
DA:343,0
DA:344,0
DA:345,0
DA:348,0
DA:349,0
DA:350,0
DA:351,0
DA:354,0
DA:355,0
DA:356,0
DA:357,0
DA:360,0
DA:361,0
DA:362,0
DA:363,0
DA:364,0
DA:365,0
DA:366,0
DA:368,0
DA:369,0
DA:370,0
DA:371,0
DA:372,0
DA:373,0
DA:380,0
DA:381,0
DA:382,0
DA:383,0
DA:384,0
DA:387,0
DA:388,0
DA:389,0
DA:390,0
DA:391,0
DA:392,0
DA:395,0
DA:396,0
DA:397,0
DA:398,0
DA:400,0
DA:401,0
DA:402,0
DA:403,0
DA:404,0
DA:405,0
DA:406,0
DA:409,0
DA:410,0
DA:411,0
DA:412,0
DA:413,0
DA:415,0
DA:416,0
DA:419,0
DA:420,0
DA:421,0
DA:422,0
DA:424,0
DA:425,0
DA:426,0
DA:427,0
DA:430,0
DA:431,0
DA:432,0
DA:433,0
DA:435,0
DA:436,0
DA:437,0
DA:440,0
DA:441,0
DA:443,0
DA:444,0
DA:445,0
DA:447,0
DA:449,0
DA:450,0
DA:451,0
DA:453,0
DA:455,0
DA:456,0
DA:457,0
DA:459,0
DA:460,0
DA:463,0
DA:464,0
DA:465,0
DA:467,0
DA:468,0
DA:470,0
DA:472,0
DA:473,0
DA:474,0
DA:481,0
DA:482,0
DA:483,0
DA:484,0
DA:487,0
DA:488,0
DA:489,0
DA:490,0
DA:491,0
BRF:0
BRH:0
LF:299
LH:0
end_of_record
SF:/home/noah/src/probar/crates/probar/src/coverage/formatters/lcov.rs
FN:181,_RNvNtNtNtNtCsbqoqex1KQlH_6probar8coverage10formatters4lcov5tests18create_test_report
FN:311,_RNvNtNtNtNtCsbqoqex1KQlH_6probar8coverage10formatters4lcov5testss_18test_group_by_file
FN:296,_RNvNtNtNtNtCsbqoqex1KQlH_6probar8coverage10formatters4lcov5testss_22test_save_creates_file
FN:210,_RNvNtNtNtNtCsbqoqex1KQlH_6probar8coverage10formatters4lcov5testss_23test_lcov_formatter_new
FN:224,_RNvNtNtNtNtCsbqoqex1KQlH_6probar8coverage10formatters4lcov5testss_26test_generate_empty_report
FN:233,_RNvNtNtNtNtCsbqoqex1KQlH_6probar8coverage10formatters4lcov5testss_28test_generate_with_test_name
FN:284,_RNvNtNtNtNtCsbqoqex1KQlH_6probar8coverage10formatters4lcov5testss_29test_generate_line_hit_counts
FN:252,_RNvNtNtNtNtCsbqoqex1KQlH_6probar8coverage10formatters4lcov5testss_32test_generate_contains_functions
FN:264,_RNvNtNtNtNtCsbqoqex1KQlH_6probar8coverage10formatters4lcov5testss_32test_generate_contains_line_data
FN:217,_RNvNtNtNtNtCsbqoqex1KQlH_6probar8coverage10formatters4lcov5testss_34test_lcov_formatter_with_test_name
FN:242,_RNvNtNtNtNtCsbqoqex1KQlH_6probar8coverage10formatters4lcov5testss_35test_generate_contains_source_files
FN:275,_RNvNtNtNtNtCsbqoqex1KQlH_6probar8coverage10formatters4lcov5testss_36test_generate_contains_end_of_record
FN:322,_RNvNtNtNtNtCsbqoqex1KQlH_6probar8coverage10formatters4lcov5testss_39test_custom_test_name_overrides_session
FN:44,_RINvMNtNtNtCsbqoqex1KQlH_6probar8coverage10formatters4lcovNtB3_13LcovFormatter14with_test_nameReEB9_
FN:134,_RNCNCNvMNtNtNtCsbqoqex1KQlH_6probar8coverage10formatters4lcovNtB6_13LcovFormatter13group_by_files0_00Bc_
FN:124,_RNCNvMNtNtNtCsbqoqex1KQlH_6probar8coverage10formatters4lcovNtB4_13LcovFormatter13group_by_file0Ba_
FN:131,_RNCNvMNtNtNtCsbqoqex1KQlH_6probar8coverage10formatters4lcovNtB4_13LcovFormatter13group_by_files0_0Ba_
FN:125,_RNCNvMNtNtNtCsbqoqex1KQlH_6probar8coverage10formatters4lcovNtB4_13LcovFormatter13group_by_files_0Ba_
FN:162,_RNvMNtNtNtCsbqoqex1KQlH_6probar8coverage10formatters4lcovNtB2_13LcovFormatter13extract_lines
FN:119,_RNvMNtNtNtCsbqoqex1KQlH_6probar8coverage10formatters4lcovNtB2_13LcovFormatter13group_by_file
FN:148,_RNvMNtNtNtCsbqoqex1KQlH_6probar8coverage10formatters4lcovNtB2_13LcovFormatter17extract_functions
FN:35,_RNvMNtNtNtCsbqoqex1KQlH_6probar8coverage10formatters4lcovNtB2_13LcovFormatter3new
FN:112,_RNvMNtNtNtCsbqoqex1KQlH_6probar8coverage10formatters4lcovNtB2_13LcovFormatter4save
FN:51,_RNvMNtNtNtCsbqoqex1KQlH_6probar8coverage10formatters4lcovNtB2_13LcovFormatter8generate
FN:44,_RINvMNtNtNtCs4eUmXem5O3q_6probar8coverage10formatters4lcovNtB3_13LcovFormatter14with_test_namepEB9_
FN:134,_RNCNCNvMNtNtNtCs4eUmXem5O3q_6probar8coverage10formatters4lcovNtB6_13LcovFormatter13group_by_files0_00Bc_
FN:124,_RNCNvMNtNtNtCs4eUmXem5O3q_6probar8coverage10formatters4lcovNtB4_13LcovFormatter13group_by_file0Ba_
FN:131,_RNCNvMNtNtNtCs4eUmXem5O3q_6probar8coverage10formatters4lcovNtB4_13LcovFormatter13group_by_files0_0Ba_
FN:125,_RNCNvMNtNtNtCs4eUmXem5O3q_6probar8coverage10formatters4lcovNtB4_13LcovFormatter13group_by_files_0Ba_
FNDA:0,_RNvNtNtNtNtCsbqoqex1KQlH_6probar8coverage10formatters4lcov5tests18create_test_report
FNDA:0,_RNvNtNtNtNtCsbqoqex1KQlH_6probar8coverage10formatters4lcov5testss_18test_group_by_file
FNDA:0,_RNvNtNtNtNtCsbqoqex1KQlH_6probar8coverage10formatters4lcov5testss_22test_save_creates_file
FNDA:0,_RNvNtNtNtNtCsbqoqex1KQlH_6probar8coverage10formatters4lcov5testss_23test_lcov_formatter_new
FNDA:0,_RNvNtNtNtNtCsbqoqex1KQlH_6probar8coverage10formatters4lcov5testss_26test_generate_empty_report
FNDA:0,_RNvNtNtNtNtCsbqoqex1KQlH_6probar8coverage10formatters4lcov5testss_28test_generate_with_test_name
FNDA:0,_RNvNtNtNtNtCsbqoqex1KQlH_6probar8coverage10formatters4lcov5testss_29test_generate_line_hit_counts
FNDA:0,_RNvNtNtNtNtCsbqoqex1KQlH_6probar8coverage10formatters4lcov5testss_32test_generate_contains_functions
FNDA:0,_RNvNtNtNtNtCsbqoqex1KQlH_6probar8coverage10formatters4lcov5testss_32test_generate_contains_line_data
FNDA:0,_RNvNtNtNtNtCsbqoqex1KQlH_6probar8coverage10formatters4lcov5testss_34test_lcov_formatter_with_test_name
FNDA:0,_RNvNtNtNtNtCsbqoqex1KQlH_6probar8coverage10formatters4lcov5testss_35test_generate_contains_source_files
FNDA:0,_RNvNtNtNtNtCsbqoqex1KQlH_6probar8coverage10formatters4lcov5testss_36test_generate_contains_end_of_record
FNDA:0,_RNvNtNtNtNtCsbqoqex1KQlH_6probar8coverage10formatters4lcov5testss_39test_custom_test_name_overrides_session
FNDA:0,_RINvMNtNtNtCsbqoqex1KQlH_6probar8coverage10formatters4lcovNtB3_13LcovFormatter14with_test_nameReEB9_
FNDA:0,_RNCNCNvMNtNtNtCsbqoqex1KQlH_6probar8coverage10formatters4lcovNtB6_13LcovFormatter13group_by_files0_00Bc_
FNDA:0,_RNCNvMNtNtNtCsbqoqex1KQlH_6probar8coverage10formatters4lcovNtB4_13LcovFormatter13group_by_file0Ba_
FNDA:0,_RNCNvMNtNtNtCsbqoqex1KQlH_6probar8coverage10formatters4lcovNtB4_13LcovFormatter13group_by_files0_0Ba_
FNDA:0,_RNCNvMNtNtNtCsbqoqex1KQlH_6probar8coverage10formatters4lcovNtB4_13LcovFormatter13group_by_files_0Ba_
FNDA:0,_RNvMNtNtNtCsbqoqex1KQlH_6probar8coverage10formatters4lcovNtB2_13LcovFormatter13extract_lines
FNDA:0,_RNvMNtNtNtCsbqoqex1KQlH_6probar8coverage10formatters4lcovNtB2_13LcovFormatter13group_by_file
FNDA:0,_RNvMNtNtNtCsbqoqex1KQlH_6probar8coverage10formatters4lcovNtB2_13LcovFormatter17extract_functions
FNDA:0,_RNvMNtNtNtCsbqoqex1KQlH_6probar8coverage10formatters4lcovNtB2_13LcovFormatter3new
FNDA:0,_RNvMNtNtNtCsbqoqex1KQlH_6probar8coverage10formatters4lcovNtB2_13LcovFormatter4save
FNDA:0,_RNvMNtNtNtCsbqoqex1KQlH_6probar8coverage10formatters4lcovNtB2_13LcovFormatter8generate
FNDA:0,_RINvMNtNtNtCs4eUmXem5O3q_6probar8coverage10formatters4lcovNtB3_13LcovFormatter14with_test_namepEB9_
FNDA:0,_RNCNCNvMNtNtNtCs4eUmXem5O3q_6probar8coverage10formatters4lcovNtB6_13LcovFormatter13group_by_files0_00Bc_
FNDA:0,_RNCNvMNtNtNtCs4eUmXem5O3q_6probar8coverage10formatters4lcovNtB4_13LcovFormatter13group_by_file0Ba_
FNDA:0,_RNCNvMNtNtNtCs4eUmXem5O3q_6probar8coverage10formatters4lcovNtB4_13LcovFormatter13group_by_files0_0Ba_
FNDA:0,_RNCNvMNtNtNtCs4eUmXem5O3q_6probar8coverage10formatters4lcovNtB4_13LcovFormatter13group_by_files_0Ba_
FNF:24
FNH:0
DA:35,0
DA:36,0
DA:37,0
DA:38,0
DA:39,0
DA:40,0
DA:44,0
DA:45,0
DA:46,0
DA:47,0
DA:51,0
DA:54,0
DA:57,0
DA:58,0
DA:59,0
DA:60,0
DA:61,0
DA:64,0
DA:66,0
DA:68,0
DA:71,0
DA:72,0
DA:74,0
DA:75,0
DA:76,0
DA:77,0
DA:78,0
DA:79,0
DA:83,0
DA:84,0
DA:87,0
DA:88,0
DA:90,0
DA:91,0
DA:92,0
DA:93,0
DA:94,0
DA:98,0
DA:99,0
DA:101,0
DA:104,0
DA:105,0
DA:112,0
DA:113,0
DA:114,0
DA:115,0
DA:116,0
DA:119,0
DA:120,0
DA:122,0
DA:123,0
DA:124,0
DA:125,0
DA:127,0
DA:128,0
DA:131,0
DA:132,0
DA:133,0
DA:134,0
DA:135,0
DA:136,0
DA:138,0
DA:139,0
DA:140,0
DA:141,0
DA:144,0
DA:145,0
DA:148,0
DA:149,0
DA:151,0
DA:152,0
DA:153,0
DA:154,0
DA:155,0
DA:158,0
DA:159,0
DA:162,0
DA:163,0
DA:165,0
DA:166,0
DA:167,0
DA:168,0
DA:171,0
DA:172,0
DA:181,0
DA:182,0
DA:183,0
DA:186,0
DA:187,0
DA:188,0
DA:189,0
DA:190,0
DA:193,0
DA:194,0
DA:195,0
DA:196,0
DA:197,0
DA:200,0
DA:201,0
DA:202,0
DA:203,0
DA:204,0
DA:206,0
DA:207,0
DA:210,0
DA:211,0
DA:212,0
DA:213,0
DA:214,0
DA:217,0
DA:218,0
DA:219,0
DA:220,0
DA:221,0
DA:224,0
DA:225,0
DA:226,0
DA:227,0
DA:229,0
DA:230,0
DA:233,0
DA:234,0
DA:235,0
DA:236,0
DA:238,0
DA:239,0
DA:242,0
DA:243,0
DA:244,0
DA:245,0
DA:247,0
DA:248,0
DA:249,0
DA:252,0
DA:253,0
DA:254,0
DA:255,0
DA:257,0
DA:258,0
DA:259,0
DA:260,0
DA:261,0
DA:264,0
DA:265,0
DA:266,0
DA:267,0
DA:269,0
DA:270,0
DA:271,0
DA:272,0
DA:275,0
DA:276,0
DA:277,0
DA:278,0
DA:280,0
DA:281,0
DA:284,0
DA:285,0
DA:286,0
DA:287,0
DA:290,0
DA:292,0
DA:293,0
DA:296,0
DA:297,0
DA:298,0
DA:300,0
DA:301,0
DA:303,0
DA:305,0
DA:306,0
DA:307,0
DA:308,0
DA:311,0
DA:312,0
DA:313,0
DA:314,0
DA:316,0
DA:317,0
DA:318,0
DA:319,0
DA:322,0
DA:323,0
DA:324,0
DA:325,0
DA:327,0
DA:328,0
DA:329,0
BRF:0
BRH:0
LF:190
LH:0
end_of_record
SF:/home/noah/src/probar/crates/probar/src/coverage/hypotheses.rs
FN:172,_RNCNvMs1_NtNtCsbqoqex1KQlH_6probar8coverage10hypothesesNtB7_18CoverageHypothesis20evaluate_determinism0Bb_
FN:191,_RNCNvMs1_NtNtCsbqoqex1KQlH_6probar8coverage10hypothesesNtB7_18CoverageHypothesis21evaluate_completeness0Bb_
FN:215,_RNCNvMs1_NtNtCsbqoqex1KQlH_6probar8coverage10hypothesesNtB7_18CoverageHypothesis22evaluate_no_regression0Bb_
FN:248,_RNCNvMs1_NtNtCsbqoqex1KQlH_6probar8coverage10hypothesesNtB7_18CoverageHypothesis29evaluate_mutation_correlation0Bb_
FN:30,_RNvMNtNtCsbqoqex1KQlH_6probar8coverage10hypothesesNtB2_19NullificationConfig3new
FN:21,_RNvMNtNtCsbqoqex1KQlH_6probar8coverage10hypothesesNtB2_19NullificationConfig9princeton
FN:59,_RNvMs0_NtNtCsbqoqex1KQlH_6probar8coverage10hypothesesNtB5_19NullificationResult14is_significant
FN:65,_RNvMs0_NtNtCsbqoqex1KQlH_6probar8coverage10hypothesesNtB5_19NullificationResult6report
FN:108,_RNvMs1_NtNtCsbqoqex1KQlH_6probar8coverage10hypothesesNtB5_18CoverageHypothesis11determinism
FN:114,_RNvMs1_NtNtCsbqoqex1KQlH_6probar8coverage10hypothesesNtB5_18CoverageHypothesis12completeness
FN:120,_RNvMs1_NtNtCsbqoqex1KQlH_6probar8coverage10hypothesesNtB5_18CoverageHypothesis13no_regression
FN:170,_RNvMs1_NtNtCsbqoqex1KQlH_6probar8coverage10hypothesesNtB5_18CoverageHypothesis20evaluate_determinism
FN:126,_RNvMs1_NtNtCsbqoqex1KQlH_6probar8coverage10hypothesesNtB5_18CoverageHypothesis20mutation_correlation
FN:189,_RNvMs1_NtNtCsbqoqex1KQlH_6probar8coverage10hypothesesNtB5_18CoverageHypothesis21evaluate_completeness
FN:213,_RNvMs1_NtNtCsbqoqex1KQlH_6probar8coverage10hypothesesNtB5_18CoverageHypothesis22evaluate_no_regression
FN:240,_RNvMs1_NtNtCsbqoqex1KQlH_6probar8coverage10hypothesesNtB5_18CoverageHypothesis29evaluate_mutation_correlation
FN:132,_RNvMs1_NtNtCsbqoqex1KQlH_6probar8coverage10hypothesesNtB5_18CoverageHypothesis4name
FN:146,_RNvMs1_NtNtCsbqoqex1KQlH_6probar8coverage10hypothesesNtB5_18CoverageHypothesis8evaluate
FN:36,_RNvXs_NtNtCsbqoqex1KQlH_6probar8coverage10hypothesesNtB4_19NullificationConfigNtNtCs6RpC691fUBl_4core7default7Default7default
FN:172,_RNCNvMs1_NtNtCs4eUmXem5O3q_6probar8coverage10hypothesesNtB7_18CoverageHypothesis20evaluate_determinism0Bb_
FN:191,_RNCNvMs1_NtNtCs4eUmXem5O3q_6probar8coverage10hypothesesNtB7_18CoverageHypothesis21evaluate_completeness0Bb_
FN:215,_RNCNvMs1_NtNtCs4eUmXem5O3q_6probar8coverage10hypothesesNtB7_18CoverageHypothesis22evaluate_no_regression0Bb_
FN:248,_RNCNvMs1_NtNtCs4eUmXem5O3q_6probar8coverage10hypothesesNtB7_18CoverageHypothesis29evaluate_mutation_correlation0Bb_
FNDA:0,_RNCNvMs1_NtNtCsbqoqex1KQlH_6probar8coverage10hypothesesNtB7_18CoverageHypothesis20evaluate_determinism0Bb_
FNDA:0,_RNCNvMs1_NtNtCsbqoqex1KQlH_6probar8coverage10hypothesesNtB7_18CoverageHypothesis21evaluate_completeness0Bb_
FNDA:0,_RNCNvMs1_NtNtCsbqoqex1KQlH_6probar8coverage10hypothesesNtB7_18CoverageHypothesis22evaluate_no_regression0Bb_
FNDA:0,_RNCNvMs1_NtNtCsbqoqex1KQlH_6probar8coverage10hypothesesNtB7_18CoverageHypothesis29evaluate_mutation_correlation0Bb_
FNDA:0,_RNvMNtNtCsbqoqex1KQlH_6probar8coverage10hypothesesNtB2_19NullificationConfig3new
FNDA:0,_RNvMNtNtCsbqoqex1KQlH_6probar8coverage10hypothesesNtB2_19NullificationConfig9princeton
FNDA:0,_RNvMs0_NtNtCsbqoqex1KQlH_6probar8coverage10hypothesesNtB5_19NullificationResult14is_significant
FNDA:0,_RNvMs0_NtNtCsbqoqex1KQlH_6probar8coverage10hypothesesNtB5_19NullificationResult6report
FNDA:0,_RNvMs1_NtNtCsbqoqex1KQlH_6probar8coverage10hypothesesNtB5_18CoverageHypothesis11determinism
FNDA:0,_RNvMs1_NtNtCsbqoqex1KQlH_6probar8coverage10hypothesesNtB5_18CoverageHypothesis12completeness
FNDA:0,_RNvMs1_NtNtCsbqoqex1KQlH_6probar8coverage10hypothesesNtB5_18CoverageHypothesis13no_regression
FNDA:0,_RNvMs1_NtNtCsbqoqex1KQlH_6probar8coverage10hypothesesNtB5_18CoverageHypothesis20evaluate_determinism
FNDA:0,_RNvMs1_NtNtCsbqoqex1KQlH_6probar8coverage10hypothesesNtB5_18CoverageHypothesis20mutation_correlation
FNDA:0,_RNvMs1_NtNtCsbqoqex1KQlH_6probar8coverage10hypothesesNtB5_18CoverageHypothesis21evaluate_completeness
FNDA:0,_RNvMs1_NtNtCsbqoqex1KQlH_6probar8coverage10hypothesesNtB5_18CoverageHypothesis22evaluate_no_regression
FNDA:0,_RNvMs1_NtNtCsbqoqex1KQlH_6probar8coverage10hypothesesNtB5_18CoverageHypothesis29evaluate_mutation_correlation
FNDA:0,_RNvMs1_NtNtCsbqoqex1KQlH_6probar8coverage10hypothesesNtB5_18CoverageHypothesis4name
FNDA:0,_RNvMs1_NtNtCsbqoqex1KQlH_6probar8coverage10hypothesesNtB5_18CoverageHypothesis8evaluate
FNDA:0,_RNvXs_NtNtCsbqoqex1KQlH_6probar8coverage10hypothesesNtB4_19NullificationConfigNtNtCs6RpC691fUBl_4core7default7Default7default
FNDA:0,_RNCNvMs1_NtNtCs4eUmXem5O3q_6probar8coverage10hypothesesNtB7_18CoverageHypothesis20evaluate_determinism0Bb_
FNDA:0,_RNCNvMs1_NtNtCs4eUmXem5O3q_6probar8coverage10hypothesesNtB7_18CoverageHypothesis21evaluate_completeness0Bb_
FNDA:0,_RNCNvMs1_NtNtCs4eUmXem5O3q_6probar8coverage10hypothesesNtB7_18CoverageHypothesis22evaluate_no_regression0Bb_
FNDA:0,_RNCNvMs1_NtNtCs4eUmXem5O3q_6probar8coverage10hypothesesNtB7_18CoverageHypothesis29evaluate_mutation_correlation0Bb_
FNF:19
FNH:0
DA:21,0
DA:22,0
DA:23,0
DA:24,0
DA:25,0
DA:26,0
DA:30,0
DA:31,0
DA:32,0
DA:36,0
DA:37,0
DA:38,0
DA:59,0
DA:60,0
DA:61,0
DA:65,0
DA:66,0
DA:67,0
DA:69,0
DA:71,0
DA:72,0
DA:80,0
DA:108,0
DA:109,0
DA:110,0
DA:114,0
DA:115,0
DA:116,0
DA:120,0
DA:121,0
DA:122,0
DA:126,0
DA:127,0
DA:128,0
DA:132,0
DA:133,0
DA:134,0
DA:135,0
DA:136,0
DA:137,0
DA:139,0
DA:146,0
DA:147,0
DA:148,0
DA:149,0
DA:150,0
DA:151,0
DA:152,0
DA:153,0
DA:154,0
DA:155,0
DA:157,0
DA:158,0
DA:159,0
DA:160,0
DA:162,0
DA:163,0
DA:164,0
DA:167,0
DA:170,0
DA:171,0
DA:172,0
DA:173,0
DA:176,0
DA:177,0
DA:179,0
DA:180,0
DA:181,0
DA:182,0
DA:183,0
DA:184,0
DA:185,0
DA:186,0
DA:189,0
DA:190,0
DA:191,0
DA:192,0
DA:193,0
DA:196,0
DA:199,0
DA:200,0
DA:202,0
DA:203,0
DA:204,0
DA:205,0
DA:206,0
DA:207,0
DA:208,0
DA:209,0
DA:210,0
DA:213,0
DA:214,0
DA:215,0
DA:216,0
DA:217,0
DA:220,0
DA:221,0
DA:223,0
DA:224,0
DA:226,0
DA:229,0
DA:230,0
DA:231,0
DA:232,0
DA:233,0
DA:234,0
DA:235,0
DA:236,0
DA:237,0
DA:240,0
DA:241,0
DA:242,0
DA:243,0
DA:244,0
DA:247,0
DA:248,0
DA:249,0
DA:250,0
DA:253,0
DA:254,0
DA:255,0
DA:257,0
DA:258,0
DA:259,0
DA:260,0
DA:261,0
DA:262,0
DA:263,0
DA:264,0
DA:265,0
BRF:0
BRH:0
LF:134
LH:0
end_of_record
SF:/home/noah/src/probar/crates/probar/src/coverage/jidoka.rs
FN:177,_RNCNvMs_NtNtCsbqoqex1KQlH_6probar8coverage6jidokaNtB6_13TaintedBlocks14violations_for0Ba_
FN:86,_RNvMNtNtCsbqoqex1KQlH_6probar8coverage6jidokaNtB2_17CoverageViolation11description
FN:74,_RNvMNtNtCsbqoqex1KQlH_6probar8coverage6jidokaNtB2_17CoverageViolation14affected_block
FN:58,_RNvMNtNtCsbqoqex1KQlH_6probar8coverage6jidokaNtB2_17CoverageViolation6action
FN:150,_RNvMs_NtNtCsbqoqex1KQlH_6probar8coverage6jidokaNtB4_13TaintedBlocks10is_tainted
FN:156,_RNvMs_NtNtCsbqoqex1KQlH_6probar8coverage6jidokaNtB4_13TaintedBlocks13tainted_count
FN:184,_RNvMs_NtNtCsbqoqex1KQlH_6probar8coverage6jidokaNtB4_13TaintedBlocks14all_violations
FN:168,_RNvMs_NtNtCsbqoqex1KQlH_6probar8coverage6jidokaNtB4_13TaintedBlocks14tainted_blocks
FN:174,_RNvMs_NtNtCsbqoqex1KQlH_6probar8coverage6jidokaNtB4_13TaintedBlocks14violations_for
FN:162,_RNvMs_NtNtCsbqoqex1KQlH_6probar8coverage6jidokaNtB4_13TaintedBlocks15violation_count
FN:140,_RNvMs_NtNtCsbqoqex1KQlH_6probar8coverage6jidokaNtB4_13TaintedBlocks16record_violation
FN:128,_RNvMs_NtNtCsbqoqex1KQlH_6probar8coverage6jidokaNtB4_13TaintedBlocks3new
FN:189,_RNvMs_NtNtCsbqoqex1KQlH_6probar8coverage6jidokaNtB4_13TaintedBlocks5clear
FN:133,_RNvMs_NtNtCsbqoqex1KQlH_6probar8coverage6jidokaNtB4_13TaintedBlocks5taint
FN:86,_RNvMNtNtCs4eUmXem5O3q_6probar8coverage6jidokaNtB2_17CoverageViolation11description
FN:74,_RNvMNtNtCs4eUmXem5O3q_6probar8coverage6jidokaNtB2_17CoverageViolation14affected_block
FN:58,_RNvMNtNtCs4eUmXem5O3q_6probar8coverage6jidokaNtB2_17CoverageViolation6action
FN:150,_RNvMs_NtNtCs4eUmXem5O3q_6probar8coverage6jidokaNtB4_13TaintedBlocks10is_tainted
FN:156,_RNvMs_NtNtCs4eUmXem5O3q_6probar8coverage6jidokaNtB4_13TaintedBlocks13tainted_count
FN:184,_RNvMs_NtNtCs4eUmXem5O3q_6probar8coverage6jidokaNtB4_13TaintedBlocks14all_violations
FN:168,_RNvMs_NtNtCs4eUmXem5O3q_6probar8coverage6jidokaNtB4_13TaintedBlocks14tainted_blocks
FN:174,_RNvMs_NtNtCs4eUmXem5O3q_6probar8coverage6jidokaNtB4_13TaintedBlocks14violations_for
FN:162,_RNvMs_NtNtCs4eUmXem5O3q_6probar8coverage6jidokaNtB4_13TaintedBlocks15violation_count
FN:140,_RNvMs_NtNtCs4eUmXem5O3q_6probar8coverage6jidokaNtB4_13TaintedBlocks16record_violation
FN:128,_RNvMs_NtNtCs4eUmXem5O3q_6probar8coverage6jidokaNtB4_13TaintedBlocks3new
FN:189,_RNvMs_NtNtCs4eUmXem5O3q_6probar8coverage6jidokaNtB4_13TaintedBlocks5clear
FN:133,_RNvMs_NtNtCs4eUmXem5O3q_6probar8coverage6jidokaNtB4_13TaintedBlocks5taint
FN:177,_RNCNvMs_NtNtCs4eUmXem5O3q_6probar8coverage6jidokaNtB6_13TaintedBlocks14violations_for0Ba_
FNDA:0,_RNCNvMs_NtNtCsbqoqex1KQlH_6probar8coverage6jidokaNtB6_13TaintedBlocks14violations_for0Ba_
FNDA:0,_RNvMNtNtCsbqoqex1KQlH_6probar8coverage6jidokaNtB2_17CoverageViolation11description
FNDA:0,_RNvMNtNtCsbqoqex1KQlH_6probar8coverage6jidokaNtB2_17CoverageViolation14affected_block
FNDA:0,_RNvMNtNtCsbqoqex1KQlH_6probar8coverage6jidokaNtB2_17CoverageViolation6action
FNDA:0,_RNvMs_NtNtCsbqoqex1KQlH_6probar8coverage6jidokaNtB4_13TaintedBlocks10is_tainted
FNDA:0,_RNvMs_NtNtCsbqoqex1KQlH_6probar8coverage6jidokaNtB4_13TaintedBlocks13tainted_count
FNDA:0,_RNvMs_NtNtCsbqoqex1KQlH_6probar8coverage6jidokaNtB4_13TaintedBlocks14all_violations
FNDA:0,_RNvMs_NtNtCsbqoqex1KQlH_6probar8coverage6jidokaNtB4_13TaintedBlocks14tainted_blocks
FNDA:0,_RNvMs_NtNtCsbqoqex1KQlH_6probar8coverage6jidokaNtB4_13TaintedBlocks14violations_for
FNDA:0,_RNvMs_NtNtCsbqoqex1KQlH_6probar8coverage6jidokaNtB4_13TaintedBlocks15violation_count
FNDA:0,_RNvMs_NtNtCsbqoqex1KQlH_6probar8coverage6jidokaNtB4_13TaintedBlocks16record_violation
FNDA:0,_RNvMs_NtNtCsbqoqex1KQlH_6probar8coverage6jidokaNtB4_13TaintedBlocks3new
FNDA:0,_RNvMs_NtNtCsbqoqex1KQlH_6probar8coverage6jidokaNtB4_13TaintedBlocks5clear
FNDA:0,_RNvMs_NtNtCsbqoqex1KQlH_6probar8coverage6jidokaNtB4_13TaintedBlocks5taint
FNDA:0,_RNvMNtNtCs4eUmXem5O3q_6probar8coverage6jidokaNtB2_17CoverageViolation11description
FNDA:0,_RNvMNtNtCs4eUmXem5O3q_6probar8coverage6jidokaNtB2_17CoverageViolation14affected_block
FNDA:0,_RNvMNtNtCs4eUmXem5O3q_6probar8coverage6jidokaNtB2_17CoverageViolation6action
FNDA:0,_RNvMs_NtNtCs4eUmXem5O3q_6probar8coverage6jidokaNtB4_13TaintedBlocks10is_tainted
FNDA:0,_RNvMs_NtNtCs4eUmXem5O3q_6probar8coverage6jidokaNtB4_13TaintedBlocks13tainted_count
FNDA:0,_RNvMs_NtNtCs4eUmXem5O3q_6probar8coverage6jidokaNtB4_13TaintedBlocks14all_violations
FNDA:0,_RNvMs_NtNtCs4eUmXem5O3q_6probar8coverage6jidokaNtB4_13TaintedBlocks14tainted_blocks
FNDA:0,_RNvMs_NtNtCs4eUmXem5O3q_6probar8coverage6jidokaNtB4_13TaintedBlocks14violations_for
FNDA:0,_RNvMs_NtNtCs4eUmXem5O3q_6probar8coverage6jidokaNtB4_13TaintedBlocks15violation_count
FNDA:0,_RNvMs_NtNtCs4eUmXem5O3q_6probar8coverage6jidokaNtB4_13TaintedBlocks16record_violation
FNDA:0,_RNvMs_NtNtCs4eUmXem5O3q_6probar8coverage6jidokaNtB4_13TaintedBlocks3new
FNDA:0,_RNvMs_NtNtCs4eUmXem5O3q_6probar8coverage6jidokaNtB4_13TaintedBlocks5clear
FNDA:0,_RNvMs_NtNtCs4eUmXem5O3q_6probar8coverage6jidokaNtB4_13TaintedBlocks5taint
FNDA:0,_RNCNvMs_NtNtCs4eUmXem5O3q_6probar8coverage6jidokaNtB6_13TaintedBlocks14violations_for0Ba_
FNF:14
FNH:0
DA:58,0
DA:59,0
DA:62,0
DA:67,0
DA:70,0
DA:74,0
DA:75,0
DA:76,0
DA:77,0
DA:79,0
DA:80,0
DA:82,0
DA:86,0
DA:87,0
DA:88,0
DA:89,0
DA:91,0
DA:92,0
DA:94,0
DA:95,0
DA:96,0
DA:97,0
DA:98,0
DA:101,0
DA:102,0
DA:103,0
DA:108,0
DA:128,0
DA:129,0
DA:130,0
DA:133,0
DA:134,0
DA:135,0
DA:136,0
DA:137,0
DA:140,0
DA:141,0
DA:142,0
DA:143,0
DA:144,0
DA:145,0
DA:146,0
DA:150,0
DA:151,0
DA:152,0
DA:156,0
DA:157,0
DA:158,0
DA:162,0
DA:163,0
DA:164,0
DA:168,0
DA:169,0
DA:170,0
DA:174,0
DA:175,0
DA:176,0
DA:177,0
DA:178,0
DA:179,0
DA:180,0
DA:184,0
DA:185,0
DA:186,0
DA:189,0
DA:190,0
DA:191,0
DA:192,0
DA:193,0
BRF:0
BRH:0
LF:70
LH:0
end_of_record
SF:/home/noah/src/probar/crates/probar/src/coverage/memory.rs
FN:99,_RNvMNtNtCsbqoqex1KQlH_6probar8coverage6memoryNtB2_18CoverageMemoryView10is_coveredB6_
FN:78,_RNvMNtNtCsbqoqex1KQlH_6probar8coverage6memoryNtB2_18CoverageMemoryView11block_countB6_
FN:92,_RNvMNtNtCsbqoqex1KQlH_6probar8coverage6memoryNtB2_18CoverageMemoryView11memory_sizeB6_
FN:85,_RNvMNtNtCsbqoqex1KQlH_6probar8coverage6memoryNtB2_18CoverageMemoryView12counter_baseB6_
FN:46,_RNvMNtNtCsbqoqex1KQlH_6probar8coverage6memoryNtB2_18CoverageMemoryView12read_counterB6_
FN:105,_RNvMNtNtCsbqoqex1KQlH_6probar8coverage6memoryNtB2_18CoverageMemoryView13covered_count
FN:111,_RNvMNtNtCsbqoqex1KQlH_6probar8coverage6memoryNtB2_18CoverageMemoryView16coverage_percent
FN:66,_RNvMNtNtCsbqoqex1KQlH_6probar8coverage6memoryNtB2_18CoverageMemoryView17read_all_counters
FN:33,_RNvMNtNtCsbqoqex1KQlH_6probar8coverage6memoryNtB2_18CoverageMemoryView3new
FN:106,_RNCNvMNtNtCsbqoqex1KQlH_6probar8coverage6memoryNtB4_18CoverageMemoryView13covered_count0B8_
FN:71,_RNCNvMNtNtCsbqoqex1KQlH_6probar8coverage6memoryNtB4_18CoverageMemoryView17read_all_counters0B8_
FN:99,_RNvMNtNtCs4eUmXem5O3q_6probar8coverage6memoryNtB2_18CoverageMemoryView10is_coveredB6_
FN:78,_RNvMNtNtCs4eUmXem5O3q_6probar8coverage6memoryNtB2_18CoverageMemoryView11block_countB6_
FN:92,_RNvMNtNtCs4eUmXem5O3q_6probar8coverage6memoryNtB2_18CoverageMemoryView11memory_sizeB6_
FN:85,_RNvMNtNtCs4eUmXem5O3q_6probar8coverage6memoryNtB2_18CoverageMemoryView12counter_baseB6_
FN:46,_RNvMNtNtCs4eUmXem5O3q_6probar8coverage6memoryNtB2_18CoverageMemoryView12read_counterB6_
FN:105,_RNvMNtNtCs4eUmXem5O3q_6probar8coverage6memoryNtB2_18CoverageMemoryView13covered_count
FN:111,_RNvMNtNtCs4eUmXem5O3q_6probar8coverage6memoryNtB2_18CoverageMemoryView16coverage_percent
FN:66,_RNvMNtNtCs4eUmXem5O3q_6probar8coverage6memoryNtB2_18CoverageMemoryView17read_all_counters
FN:33,_RNvMNtNtCs4eUmXem5O3q_6probar8coverage6memoryNtB2_18CoverageMemoryView3new
FN:106,_RNCNvMNtNtCs4eUmXem5O3q_6probar8coverage6memoryNtB4_18CoverageMemoryView13covered_count0B8_
FN:71,_RNCNvMNtNtCs4eUmXem5O3q_6probar8coverage6memoryNtB4_18CoverageMemoryView17read_all_counters0B8_
FNDA:0,_RNvMNtNtCsbqoqex1KQlH_6probar8coverage6memoryNtB2_18CoverageMemoryView10is_coveredB6_
FNDA:0,_RNvMNtNtCsbqoqex1KQlH_6probar8coverage6memoryNtB2_18CoverageMemoryView11block_countB6_
FNDA:0,_RNvMNtNtCsbqoqex1KQlH_6probar8coverage6memoryNtB2_18CoverageMemoryView11memory_sizeB6_
FNDA:0,_RNvMNtNtCsbqoqex1KQlH_6probar8coverage6memoryNtB2_18CoverageMemoryView12counter_baseB6_
FNDA:0,_RNvMNtNtCsbqoqex1KQlH_6probar8coverage6memoryNtB2_18CoverageMemoryView12read_counterB6_
FNDA:0,_RNvMNtNtCsbqoqex1KQlH_6probar8coverage6memoryNtB2_18CoverageMemoryView13covered_count
FNDA:0,_RNvMNtNtCsbqoqex1KQlH_6probar8coverage6memoryNtB2_18CoverageMemoryView16coverage_percent
FNDA:0,_RNvMNtNtCsbqoqex1KQlH_6probar8coverage6memoryNtB2_18CoverageMemoryView17read_all_counters
FNDA:0,_RNvMNtNtCsbqoqex1KQlH_6probar8coverage6memoryNtB2_18CoverageMemoryView3new
FNDA:0,_RNCNvMNtNtCsbqoqex1KQlH_6probar8coverage6memoryNtB4_18CoverageMemoryView13covered_count0B8_
FNDA:0,_RNCNvMNtNtCsbqoqex1KQlH_6probar8coverage6memoryNtB4_18CoverageMemoryView17read_all_counters0B8_
FNDA:0,_RNvMNtNtCs4eUmXem5O3q_6probar8coverage6memoryNtB2_18CoverageMemoryView10is_coveredB6_
FNDA:0,_RNvMNtNtCs4eUmXem5O3q_6probar8coverage6memoryNtB2_18CoverageMemoryView11block_countB6_
FNDA:0,_RNvMNtNtCs4eUmXem5O3q_6probar8coverage6memoryNtB2_18CoverageMemoryView11memory_sizeB6_
FNDA:0,_RNvMNtNtCs4eUmXem5O3q_6probar8coverage6memoryNtB2_18CoverageMemoryView12counter_baseB6_
FNDA:0,_RNvMNtNtCs4eUmXem5O3q_6probar8coverage6memoryNtB2_18CoverageMemoryView12read_counterB6_
FNDA:0,_RNvMNtNtCs4eUmXem5O3q_6probar8coverage6memoryNtB2_18CoverageMemoryView13covered_count
FNDA:0,_RNvMNtNtCs4eUmXem5O3q_6probar8coverage6memoryNtB2_18CoverageMemoryView16coverage_percent
FNDA:0,_RNvMNtNtCs4eUmXem5O3q_6probar8coverage6memoryNtB2_18CoverageMemoryView17read_all_counters
FNDA:0,_RNvMNtNtCs4eUmXem5O3q_6probar8coverage6memoryNtB2_18CoverageMemoryView3new
FNDA:0,_RNCNvMNtNtCs4eUmXem5O3q_6probar8coverage6memoryNtB4_18CoverageMemoryView13covered_count0B8_
FNDA:0,_RNCNvMNtNtCs4eUmXem5O3q_6probar8coverage6memoryNtB4_18CoverageMemoryView17read_all_counters0B8_
FNF:11
FNH:0
DA:33,0
DA:34,0
DA:35,0
DA:36,0
DA:37,0
DA:38,0
DA:39,0
DA:46,0
DA:47,0
DA:48,0
DA:49,0
DA:50,0
DA:52,0
DA:53,0
DA:54,0
DA:55,0
DA:57,0
DA:58,0
DA:59,0
DA:66,0
DA:67,0
DA:68,0
DA:69,0
DA:70,0
DA:71,0
DA:72,0
DA:73,0
DA:78,0
DA:79,0
DA:80,0
DA:85,0
DA:86,0
DA:87,0
DA:92,0
DA:93,0
DA:94,0
DA:99,0
DA:100,0
DA:101,0
DA:105,0
DA:106,0
DA:107,0
DA:111,0
DA:112,0
DA:113,0
DA:114,0
DA:115,0
DA:116,0
BRF:0
BRH:0
LF:50
LH:0
end_of_record
SF:/home/noah/src/probar/crates/probar/src/coverage/report.rs
FN:126,_RNCNvMNtNtCsbqoqex1KQlH_6probar8coverage6reportNtB4_14CoverageReport13covered_count0B8_
FN:152,_RNCNvMNtNtCsbqoqex1KQlH_6probar8coverage6reportNtB4_14CoverageReport14covered_blocks0B8_
FN:172,_RNCNvMNtNtCsbqoqex1KQlH_6probar8coverage6reportNtB4_14CoverageReport15block_coverages0B8_
FN:143,_RNCNvMNtNtCsbqoqex1KQlH_6probar8coverage6reportNtB4_14CoverageReport16uncovered_blocks0B8_
FN:119,_RNvMNtNtCsbqoqex1KQlH_6probar8coverage6reportNtB2_14CoverageReport10is_covered
FN:198,_RNvMNtNtCsbqoqex1KQlH_6probar8coverage6reportNtB2_14CoverageReport10is_tainted
FN:87,_RNvMNtNtCsbqoqex1KQlH_6probar8coverage6reportNtB2_14CoverageReport10record_hit
FN:192,_RNvMNtNtCsbqoqex1KQlH_6probar8coverage6reportNtB2_14CoverageReport10violations
FN:92,_RNvMNtNtCsbqoqex1KQlH_6probar8coverage6reportNtB2_14CoverageReport11record_hits
FN:210,_RNvMNtNtCsbqoqex1KQlH_6probar8coverage6reportNtB2_14CoverageReport12session_name
FN:204,_RNvMNtNtCsbqoqex1KQlH_6probar8coverage6reportNtB2_14CoverageReport12total_blocks
FN:125,_RNvMNtNtCsbqoqex1KQlH_6probar8coverage6reportNtB2_14CoverageReport13covered_count
FN:113,_RNvMNtNtCsbqoqex1KQlH_6probar8coverage6reportNtB2_14CoverageReport13get_hit_count
FN:149,_RNvMNtNtCsbqoqex1KQlH_6probar8coverage6reportNtB2_14CoverageReport14covered_blocks
FN:170,_RNvMNtNtCsbqoqex1KQlH_6probar8coverage6reportNtB2_14CoverageReport15block_coverages
FN:186,_RNvMNtNtCsbqoqex1KQlH_6probar8coverage6reportNtB2_14CoverageReport15violation_count
FN:131,_RNvMNtNtCsbqoqex1KQlH_6probar8coverage6reportNtB2_14CoverageReport16coverage_percent
FN:97,_RNvMNtNtCsbqoqex1KQlH_6probar8coverage6reportNtB2_14CoverageReport16record_violation
FN:77,_RNvMNtNtCsbqoqex1KQlH_6probar8coverage6reportNtB2_14CoverageReport16set_session_name
FN:140,_RNvMNtNtCsbqoqex1KQlH_6probar8coverage6reportNtB2_14CoverageReport16uncovered_blocks
FN:107,_RNvMNtNtCsbqoqex1KQlH_6probar8coverage6reportNtB2_14CoverageReport17set_function_name
FN:102,_RNvMNtNtCsbqoqex1KQlH_6probar8coverage6reportNtB2_14CoverageReport19set_source_location
FN:64,_RNvMNtNtCsbqoqex1KQlH_6probar8coverage6reportNtB2_14CoverageReport3new
FN:221,_RNvMNtNtCsbqoqex1KQlH_6probar8coverage6reportNtB2_14CoverageReport5merge
FN:216,_RNvMNtNtCsbqoqex1KQlH_6probar8coverage6reportNtB2_14CoverageReport5tests
FN:158,_RNvMNtNtCsbqoqex1KQlH_6probar8coverage6reportNtB2_14CoverageReport7summary
FN:82,_RNvMNtNtCsbqoqex1KQlH_6probar8coverage6reportNtB2_14CoverageReport8add_test
FN:244,_RNvXs_NtNtCsbqoqex1KQlH_6probar8coverage6reportNtB4_14CoverageReportNtNtCs6RpC691fUBl_4core7default7Default7default
FN:126,_RNCNvMNtNtCs4eUmXem5O3q_6probar8coverage6reportNtB4_14CoverageReport13covered_count0B8_
FN:152,_RNCNvMNtNtCs4eUmXem5O3q_6probar8coverage6reportNtB4_14CoverageReport14covered_blocks0B8_
FN:172,_RNCNvMNtNtCs4eUmXem5O3q_6probar8coverage6reportNtB4_14CoverageReport15block_coverages0B8_
FN:143,_RNCNvMNtNtCs4eUmXem5O3q_6probar8coverage6reportNtB4_14CoverageReport16uncovered_blocks0B8_
FN:119,_RNvMNtNtCs4eUmXem5O3q_6probar8coverage6reportNtB2_14CoverageReport10is_covered
FN:198,_RNvMNtNtCs4eUmXem5O3q_6probar8coverage6reportNtB2_14CoverageReport10is_tainted
FN:87,_RNvMNtNtCs4eUmXem5O3q_6probar8coverage6reportNtB2_14CoverageReport10record_hit
FN:192,_RNvMNtNtCs4eUmXem5O3q_6probar8coverage6reportNtB2_14CoverageReport10violations
FN:92,_RNvMNtNtCs4eUmXem5O3q_6probar8coverage6reportNtB2_14CoverageReport11record_hits
FN:210,_RNvMNtNtCs4eUmXem5O3q_6probar8coverage6reportNtB2_14CoverageReport12session_name
FN:204,_RNvMNtNtCs4eUmXem5O3q_6probar8coverage6reportNtB2_14CoverageReport12total_blocks
FN:125,_RNvMNtNtCs4eUmXem5O3q_6probar8coverage6reportNtB2_14CoverageReport13covered_count
FN:113,_RNvMNtNtCs4eUmXem5O3q_6probar8coverage6reportNtB2_14CoverageReport13get_hit_count
FN:149,_RNvMNtNtCs4eUmXem5O3q_6probar8coverage6reportNtB2_14CoverageReport14covered_blocks
FN:170,_RNvMNtNtCs4eUmXem5O3q_6probar8coverage6reportNtB2_14CoverageReport15block_coverages
FN:186,_RNvMNtNtCs4eUmXem5O3q_6probar8coverage6reportNtB2_14CoverageReport15violation_count
FN:131,_RNvMNtNtCs4eUmXem5O3q_6probar8coverage6reportNtB2_14CoverageReport16coverage_percent
FN:97,_RNvMNtNtCs4eUmXem5O3q_6probar8coverage6reportNtB2_14CoverageReport16record_violation
FN:77,_RNvMNtNtCs4eUmXem5O3q_6probar8coverage6reportNtB2_14CoverageReport16set_session_name
FN:140,_RNvMNtNtCs4eUmXem5O3q_6probar8coverage6reportNtB2_14CoverageReport16uncovered_blocks
FN:107,_RNvMNtNtCs4eUmXem5O3q_6probar8coverage6reportNtB2_14CoverageReport17set_function_name
FN:102,_RNvMNtNtCs4eUmXem5O3q_6probar8coverage6reportNtB2_14CoverageReport19set_source_location
FN:64,_RNvMNtNtCs4eUmXem5O3q_6probar8coverage6reportNtB2_14CoverageReport3new
FN:221,_RNvMNtNtCs4eUmXem5O3q_6probar8coverage6reportNtB2_14CoverageReport5merge
FN:216,_RNvMNtNtCs4eUmXem5O3q_6probar8coverage6reportNtB2_14CoverageReport5tests
FN:158,_RNvMNtNtCs4eUmXem5O3q_6probar8coverage6reportNtB2_14CoverageReport7summary
FN:82,_RNvMNtNtCs4eUmXem5O3q_6probar8coverage6reportNtB2_14CoverageReport8add_test
FN:244,_RNvXs_NtNtCs4eUmXem5O3q_6probar8coverage6reportNtB4_14CoverageReportNtNtCs6RpC691fUBl_4core7default7Default7default
FNDA:0,_RNCNvMNtNtCsbqoqex1KQlH_6probar8coverage6reportNtB4_14CoverageReport13covered_count0B8_
FNDA:0,_RNCNvMNtNtCsbqoqex1KQlH_6probar8coverage6reportNtB4_14CoverageReport14covered_blocks0B8_
FNDA:0,_RNCNvMNtNtCsbqoqex1KQlH_6probar8coverage6reportNtB4_14CoverageReport15block_coverages0B8_
FNDA:0,_RNCNvMNtNtCsbqoqex1KQlH_6probar8coverage6reportNtB4_14CoverageReport16uncovered_blocks0B8_
FNDA:0,_RNvMNtNtCsbqoqex1KQlH_6probar8coverage6reportNtB2_14CoverageReport10is_covered
FNDA:0,_RNvMNtNtCsbqoqex1KQlH_6probar8coverage6reportNtB2_14CoverageReport10is_tainted
FNDA:0,_RNvMNtNtCsbqoqex1KQlH_6probar8coverage6reportNtB2_14CoverageReport10record_hit
FNDA:0,_RNvMNtNtCsbqoqex1KQlH_6probar8coverage6reportNtB2_14CoverageReport10violations
FNDA:0,_RNvMNtNtCsbqoqex1KQlH_6probar8coverage6reportNtB2_14CoverageReport11record_hits
FNDA:0,_RNvMNtNtCsbqoqex1KQlH_6probar8coverage6reportNtB2_14CoverageReport12session_name
FNDA:0,_RNvMNtNtCsbqoqex1KQlH_6probar8coverage6reportNtB2_14CoverageReport12total_blocks
FNDA:0,_RNvMNtNtCsbqoqex1KQlH_6probar8coverage6reportNtB2_14CoverageReport13covered_count
FNDA:0,_RNvMNtNtCsbqoqex1KQlH_6probar8coverage6reportNtB2_14CoverageReport13get_hit_count
FNDA:0,_RNvMNtNtCsbqoqex1KQlH_6probar8coverage6reportNtB2_14CoverageReport14covered_blocks
FNDA:0,_RNvMNtNtCsbqoqex1KQlH_6probar8coverage6reportNtB2_14CoverageReport15block_coverages
FNDA:0,_RNvMNtNtCsbqoqex1KQlH_6probar8coverage6reportNtB2_14CoverageReport15violation_count
FNDA:0,_RNvMNtNtCsbqoqex1KQlH_6probar8coverage6reportNtB2_14CoverageReport16coverage_percent
FNDA:0,_RNvMNtNtCsbqoqex1KQlH_6probar8coverage6reportNtB2_14CoverageReport16record_violation
FNDA:0,_RNvMNtNtCsbqoqex1KQlH_6probar8coverage6reportNtB2_14CoverageReport16set_session_name
FNDA:0,_RNvMNtNtCsbqoqex1KQlH_6probar8coverage6reportNtB2_14CoverageReport16uncovered_blocks
FNDA:0,_RNvMNtNtCsbqoqex1KQlH_6probar8coverage6reportNtB2_14CoverageReport17set_function_name
FNDA:0,_RNvMNtNtCsbqoqex1KQlH_6probar8coverage6reportNtB2_14CoverageReport19set_source_location
FNDA:0,_RNvMNtNtCsbqoqex1KQlH_6probar8coverage6reportNtB2_14CoverageReport3new
FNDA:0,_RNvMNtNtCsbqoqex1KQlH_6probar8coverage6reportNtB2_14CoverageReport5merge
FNDA:0,_RNvMNtNtCsbqoqex1KQlH_6probar8coverage6reportNtB2_14CoverageReport5tests
FNDA:0,_RNvMNtNtCsbqoqex1KQlH_6probar8coverage6reportNtB2_14CoverageReport7summary
FNDA:0,_RNvMNtNtCsbqoqex1KQlH_6probar8coverage6reportNtB2_14CoverageReport8add_test
FNDA:0,_RNvXs_NtNtCsbqoqex1KQlH_6probar8coverage6reportNtB4_14CoverageReportNtNtCs6RpC691fUBl_4core7default7Default7default
FNDA:0,_RNCNvMNtNtCs4eUmXem5O3q_6probar8coverage6reportNtB4_14CoverageReport13covered_count0B8_
FNDA:0,_RNCNvMNtNtCs4eUmXem5O3q_6probar8coverage6reportNtB4_14CoverageReport14covered_blocks0B8_
FNDA:0,_RNCNvMNtNtCs4eUmXem5O3q_6probar8coverage6reportNtB4_14CoverageReport15block_coverages0B8_
FNDA:0,_RNCNvMNtNtCs4eUmXem5O3q_6probar8coverage6reportNtB4_14CoverageReport16uncovered_blocks0B8_
FNDA:0,_RNvMNtNtCs4eUmXem5O3q_6probar8coverage6reportNtB2_14CoverageReport10is_covered
FNDA:0,_RNvMNtNtCs4eUmXem5O3q_6probar8coverage6reportNtB2_14CoverageReport10is_tainted
FNDA:0,_RNvMNtNtCs4eUmXem5O3q_6probar8coverage6reportNtB2_14CoverageReport10record_hit
FNDA:0,_RNvMNtNtCs4eUmXem5O3q_6probar8coverage6reportNtB2_14CoverageReport10violations
FNDA:0,_RNvMNtNtCs4eUmXem5O3q_6probar8coverage6reportNtB2_14CoverageReport11record_hits
FNDA:0,_RNvMNtNtCs4eUmXem5O3q_6probar8coverage6reportNtB2_14CoverageReport12session_name
FNDA:0,_RNvMNtNtCs4eUmXem5O3q_6probar8coverage6reportNtB2_14CoverageReport12total_blocks
FNDA:0,_RNvMNtNtCs4eUmXem5O3q_6probar8coverage6reportNtB2_14CoverageReport13covered_count
FNDA:0,_RNvMNtNtCs4eUmXem5O3q_6probar8coverage6reportNtB2_14CoverageReport13get_hit_count
FNDA:0,_RNvMNtNtCs4eUmXem5O3q_6probar8coverage6reportNtB2_14CoverageReport14covered_blocks
FNDA:0,_RNvMNtNtCs4eUmXem5O3q_6probar8coverage6reportNtB2_14CoverageReport15block_coverages
FNDA:0,_RNvMNtNtCs4eUmXem5O3q_6probar8coverage6reportNtB2_14CoverageReport15violation_count
FNDA:0,_RNvMNtNtCs4eUmXem5O3q_6probar8coverage6reportNtB2_14CoverageReport16coverage_percent
FNDA:0,_RNvMNtNtCs4eUmXem5O3q_6probar8coverage6reportNtB2_14CoverageReport16record_violation
FNDA:0,_RNvMNtNtCs4eUmXem5O3q_6probar8coverage6reportNtB2_14CoverageReport16set_session_name
FNDA:0,_RNvMNtNtCs4eUmXem5O3q_6probar8coverage6reportNtB2_14CoverageReport16uncovered_blocks
FNDA:0,_RNvMNtNtCs4eUmXem5O3q_6probar8coverage6reportNtB2_14CoverageReport17set_function_name
FNDA:0,_RNvMNtNtCs4eUmXem5O3q_6probar8coverage6reportNtB2_14CoverageReport19set_source_location
FNDA:0,_RNvMNtNtCs4eUmXem5O3q_6probar8coverage6reportNtB2_14CoverageReport3new
FNDA:0,_RNvMNtNtCs4eUmXem5O3q_6probar8coverage6reportNtB2_14CoverageReport5merge
FNDA:0,_RNvMNtNtCs4eUmXem5O3q_6probar8coverage6reportNtB2_14CoverageReport5tests
FNDA:0,_RNvMNtNtCs4eUmXem5O3q_6probar8coverage6reportNtB2_14CoverageReport7summary
FNDA:0,_RNvMNtNtCs4eUmXem5O3q_6probar8coverage6reportNtB2_14CoverageReport8add_test
FNDA:0,_RNvXs_NtNtCs4eUmXem5O3q_6probar8coverage6reportNtB4_14CoverageReportNtNtCs6RpC691fUBl_4core7default7Default7default
FNF:28
FNH:0
DA:64,0
DA:65,0
DA:66,0
DA:67,0
DA:68,0
DA:69,0
DA:70,0
DA:71,0
DA:72,0
DA:73,0
DA:74,0
DA:77,0
DA:78,0
DA:79,0
DA:82,0
DA:83,0
DA:84,0
DA:87,0
DA:88,0
DA:89,0
DA:92,0
DA:93,0
DA:94,0
DA:97,0
DA:98,0
DA:99,0
DA:102,0
DA:103,0
DA:104,0
DA:107,0
DA:108,0
DA:109,0
DA:113,0
DA:114,0
DA:115,0
DA:119,0
DA:120,0
DA:121,0
DA:125,0
DA:126,0
DA:127,0
DA:131,0
DA:132,0
DA:133,0
DA:134,0
DA:135,0
DA:136,0
DA:140,0
DA:141,0
DA:142,0
DA:143,0
DA:144,0
DA:145,0
DA:149,0
DA:150,0
DA:151,0
DA:152,0
DA:153,0
DA:154,0
DA:158,0
DA:159,0
DA:160,0
DA:161,0
DA:162,0
DA:163,0
DA:164,0
DA:165,0
DA:166,0
DA:170,0
DA:171,0
DA:172,0
DA:173,0
DA:174,0
DA:175,0
DA:176,0
DA:177,0
DA:178,0
DA:179,0
DA:180,0
DA:181,0
DA:182,0
DA:186,0
DA:187,0
DA:188,0
DA:192,0
DA:193,0
DA:194,0
DA:198,0
DA:199,0
DA:200,0
DA:204,0
DA:205,0
DA:206,0
DA:210,0
DA:211,0
DA:212,0
DA:216,0
DA:217,0
DA:218,0
DA:221,0
DA:222,0
DA:223,0
DA:224,0
DA:225,0
DA:226,0
DA:227,0
DA:228,0
DA:230,0
DA:231,0
DA:232,0
DA:233,0
DA:235,0
DA:236,0
DA:237,0
DA:238,0
DA:240,0
DA:244,0
DA:245,0
DA:246,0
BRF:0
BRH:0
LF:123
LH:0
end_of_record
SF:/home/noah/src/probar/crates/probar/src/coverage/superblock.rs
FN:23,_RNvMNtNtCsbqoqex1KQlH_6probar8coverage10superblockNtB2_12SuperblockId3newB6_
FN:30,_RNvMNtNtCsbqoqex1KQlH_6probar8coverage10superblockNtB2_12SuperblockId6as_u32B6_
FN:84,_RNvMs0_NtNtCsbqoqex1KQlH_6probar8coverage10superblockNtB5_10Superblock11block_countB9_
FN:104,_RNvMs0_NtNtCsbqoqex1KQlH_6probar8coverage10superblockNtB5_10Superblock13cost_estimateB9_
FN:109,_RNvMs0_NtNtCsbqoqex1KQlH_6probar8coverage10superblockNtB5_10Superblock17set_cost_estimate
FN:77,_RNvMs0_NtNtCsbqoqex1KQlH_6probar8coverage10superblockNtB5_10Superblock2idB9_
FN:62,_RNvMs0_NtNtCsbqoqex1KQlH_6probar8coverage10superblockNtB5_10Superblock3new
FN:121,_RNvMs0_NtNtCsbqoqex1KQlH_6probar8coverage10superblockNtB5_10Superblock4iter
FN:97,_RNvMs0_NtNtCsbqoqex1KQlH_6probar8coverage10superblockNtB5_10Superblock6blocks
FN:91,_RNvMs0_NtNtCsbqoqex1KQlH_6probar8coverage10superblockNtB5_10Superblock8containsB9_
FN:116,_RNvMs0_NtNtCsbqoqex1KQlH_6probar8coverage10superblockNtB5_10Superblock8functionB9_
FN:162,_RNvMs1_NtNtCsbqoqex1KQlH_6probar8coverage10superblockNtB5_17SuperblockBuilder13with_max_size
FN:155,_RNvMs1_NtNtCsbqoqex1KQlH_6probar8coverage10superblockNtB5_17SuperblockBuilder16with_target_size
FN:171,_RNvMs1_NtNtCsbqoqex1KQlH_6probar8coverage10superblockNtB5_17SuperblockBuilder17build_from_blocks
FN:193,_RNvMs1_NtNtCsbqoqex1KQlH_6probar8coverage10superblockNtB5_17SuperblockBuilder26build_from_function_blocks
FN:145,_RNvMs1_NtNtCsbqoqex1KQlH_6probar8coverage10superblockNtB5_17SuperblockBuilder3new
FN:209,_RNvMs1_NtNtCsbqoqex1KQlH_6probar8coverage10superblockNtB5_17SuperblockBuilder7next_id
FN:215,_RNvXs2_NtNtCsbqoqex1KQlH_6probar8coverage10superblockNtB5_17SuperblockBuilderNtNtCs6RpC691fUBl_4core7default7Default7default
FN:36,_RINvXs_NtNtCsbqoqex1KQlH_6probar8coverage10superblockNtB5_12SuperblockIdNtNtCs6RpC691fUBl_4core4hash4Hash4hashNtNtNtCseKw8H5dE9QK_3std4hash6random13DefaultHasherEB9_
FN:36,_RINvXs_NtNtCs4eUmXem5O3q_6probar8coverage10superblockNtB5_12SuperblockIdNtNtCs6RpC691fUBl_4core4hash4Hash4hashpEB9_
FN:30,_RNvMNtNtCs4eUmXem5O3q_6probar8coverage10superblockNtB2_12SuperblockId6as_u32B6_
FN:104,_RNvMs0_NtNtCs4eUmXem5O3q_6probar8coverage10superblockNtB5_10Superblock13cost_estimateB9_
FN:77,_RNvMs0_NtNtCs4eUmXem5O3q_6probar8coverage10superblockNtB5_10Superblock2idB9_
FN:91,_RNvMs0_NtNtCs4eUmXem5O3q_6probar8coverage10superblockNtB5_10Superblock8containsB9_
FN:116,_RNvMs0_NtNtCs4eUmXem5O3q_6probar8coverage10superblockNtB5_10Superblock8functionB9_
FN:23,_RNvMNtNtCs4eUmXem5O3q_6probar8coverage10superblockNtB2_12SuperblockId3newB6_
FN:84,_RNvMs0_NtNtCs4eUmXem5O3q_6probar8coverage10superblockNtB5_10Superblock11block_countB9_
FN:109,_RNvMs0_NtNtCs4eUmXem5O3q_6probar8coverage10superblockNtB5_10Superblock17set_cost_estimate
FN:62,_RNvMs0_NtNtCs4eUmXem5O3q_6probar8coverage10superblockNtB5_10Superblock3new
FN:121,_RNvMs0_NtNtCs4eUmXem5O3q_6probar8coverage10superblockNtB5_10Superblock4iter
FN:97,_RNvMs0_NtNtCs4eUmXem5O3q_6probar8coverage10superblockNtB5_10Superblock6blocks
FN:162,_RNvMs1_NtNtCs4eUmXem5O3q_6probar8coverage10superblockNtB5_17SuperblockBuilder13with_max_size
FN:155,_RNvMs1_NtNtCs4eUmXem5O3q_6probar8coverage10superblockNtB5_17SuperblockBuilder16with_target_size
FN:171,_RNvMs1_NtNtCs4eUmXem5O3q_6probar8coverage10superblockNtB5_17SuperblockBuilder17build_from_blocks
FN:193,_RNvMs1_NtNtCs4eUmXem5O3q_6probar8coverage10superblockNtB5_17SuperblockBuilder26build_from_function_blocks
FN:145,_RNvMs1_NtNtCs4eUmXem5O3q_6probar8coverage10superblockNtB5_17SuperblockBuilder3new
FN:209,_RNvMs1_NtNtCs4eUmXem5O3q_6probar8coverage10superblockNtB5_17SuperblockBuilder7next_id
FN:215,_RNvXs2_NtNtCs4eUmXem5O3q_6probar8coverage10superblockNtB5_17SuperblockBuilderNtNtCs6RpC691fUBl_4core7default7Default7default
FNDA:0,_RNvMNtNtCsbqoqex1KQlH_6probar8coverage10superblockNtB2_12SuperblockId3newB6_
FNDA:0,_RNvMNtNtCsbqoqex1KQlH_6probar8coverage10superblockNtB2_12SuperblockId6as_u32B6_
FNDA:0,_RNvMs0_NtNtCsbqoqex1KQlH_6probar8coverage10superblockNtB5_10Superblock11block_countB9_
FNDA:0,_RNvMs0_NtNtCsbqoqex1KQlH_6probar8coverage10superblockNtB5_10Superblock13cost_estimateB9_
FNDA:0,_RNvMs0_NtNtCsbqoqex1KQlH_6probar8coverage10superblockNtB5_10Superblock17set_cost_estimate
FNDA:0,_RNvMs0_NtNtCsbqoqex1KQlH_6probar8coverage10superblockNtB5_10Superblock2idB9_
FNDA:0,_RNvMs0_NtNtCsbqoqex1KQlH_6probar8coverage10superblockNtB5_10Superblock3new
FNDA:0,_RNvMs0_NtNtCsbqoqex1KQlH_6probar8coverage10superblockNtB5_10Superblock4iter
FNDA:0,_RNvMs0_NtNtCsbqoqex1KQlH_6probar8coverage10superblockNtB5_10Superblock6blocks
FNDA:0,_RNvMs0_NtNtCsbqoqex1KQlH_6probar8coverage10superblockNtB5_10Superblock8containsB9_
FNDA:0,_RNvMs0_NtNtCsbqoqex1KQlH_6probar8coverage10superblockNtB5_10Superblock8functionB9_
FNDA:0,_RNvMs1_NtNtCsbqoqex1KQlH_6probar8coverage10superblockNtB5_17SuperblockBuilder13with_max_size
FNDA:0,_RNvMs1_NtNtCsbqoqex1KQlH_6probar8coverage10superblockNtB5_17SuperblockBuilder16with_target_size
FNDA:0,_RNvMs1_NtNtCsbqoqex1KQlH_6probar8coverage10superblockNtB5_17SuperblockBuilder17build_from_blocks
FNDA:0,_RNvMs1_NtNtCsbqoqex1KQlH_6probar8coverage10superblockNtB5_17SuperblockBuilder26build_from_function_blocks
FNDA:0,_RNvMs1_NtNtCsbqoqex1KQlH_6probar8coverage10superblockNtB5_17SuperblockBuilder3new
FNDA:0,_RNvMs1_NtNtCsbqoqex1KQlH_6probar8coverage10superblockNtB5_17SuperblockBuilder7next_id
FNDA:0,_RNvXs2_NtNtCsbqoqex1KQlH_6probar8coverage10superblockNtB5_17SuperblockBuilderNtNtCs6RpC691fUBl_4core7default7Default7default
FNDA:0,_RINvXs_NtNtCsbqoqex1KQlH_6probar8coverage10superblockNtB5_12SuperblockIdNtNtCs6RpC691fUBl_4core4hash4Hash4hashNtNtNtCseKw8H5dE9QK_3std4hash6random13DefaultHasherEB9_
FNDA:0,_RINvXs_NtNtCs4eUmXem5O3q_6probar8coverage10superblockNtB5_12SuperblockIdNtNtCs6RpC691fUBl_4core4hash4Hash4hashpEB9_
FNDA:0,_RNvMNtNtCs4eUmXem5O3q_6probar8coverage10superblockNtB2_12SuperblockId6as_u32B6_
FNDA:0,_RNvMs0_NtNtCs4eUmXem5O3q_6probar8coverage10superblockNtB5_10Superblock13cost_estimateB9_
FNDA:0,_RNvMs0_NtNtCs4eUmXem5O3q_6probar8coverage10superblockNtB5_10Superblock2idB9_
FNDA:0,_RNvMs0_NtNtCs4eUmXem5O3q_6probar8coverage10superblockNtB5_10Superblock8containsB9_
FNDA:0,_RNvMs0_NtNtCs4eUmXem5O3q_6probar8coverage10superblockNtB5_10Superblock8functionB9_
FNDA:0,_RNvMNtNtCs4eUmXem5O3q_6probar8coverage10superblockNtB2_12SuperblockId3newB6_
FNDA:0,_RNvMs0_NtNtCs4eUmXem5O3q_6probar8coverage10superblockNtB5_10Superblock11block_countB9_
FNDA:0,_RNvMs0_NtNtCs4eUmXem5O3q_6probar8coverage10superblockNtB5_10Superblock17set_cost_estimate
FNDA:0,_RNvMs0_NtNtCs4eUmXem5O3q_6probar8coverage10superblockNtB5_10Superblock3new
FNDA:0,_RNvMs0_NtNtCs4eUmXem5O3q_6probar8coverage10superblockNtB5_10Superblock4iter
FNDA:0,_RNvMs0_NtNtCs4eUmXem5O3q_6probar8coverage10superblockNtB5_10Superblock6blocks
FNDA:0,_RNvMs1_NtNtCs4eUmXem5O3q_6probar8coverage10superblockNtB5_17SuperblockBuilder13with_max_size
FNDA:0,_RNvMs1_NtNtCs4eUmXem5O3q_6probar8coverage10superblockNtB5_17SuperblockBuilder16with_target_size
FNDA:0,_RNvMs1_NtNtCs4eUmXem5O3q_6probar8coverage10superblockNtB5_17SuperblockBuilder17build_from_blocks
FNDA:0,_RNvMs1_NtNtCs4eUmXem5O3q_6probar8coverage10superblockNtB5_17SuperblockBuilder26build_from_function_blocks
FNDA:0,_RNvMs1_NtNtCs4eUmXem5O3q_6probar8coverage10superblockNtB5_17SuperblockBuilder3new
FNDA:0,_RNvMs1_NtNtCs4eUmXem5O3q_6probar8coverage10superblockNtB5_17SuperblockBuilder7next_id
FNDA:0,_RNvXs2_NtNtCs4eUmXem5O3q_6probar8coverage10superblockNtB5_17SuperblockBuilderNtNtCs6RpC691fUBl_4core7default7Default7default
FNF:19
FNH:0
DA:23,0
DA:24,0
DA:25,0
DA:30,0
DA:31,0
DA:32,0
DA:36,0
DA:37,0
DA:38,0
DA:62,0
DA:63,0
DA:64,0
DA:65,0
DA:66,0
DA:67,0
DA:68,0
DA:69,0
DA:70,0
DA:71,0
DA:72,0
DA:77,0
DA:78,0
DA:79,0
DA:84,0
DA:85,0
DA:86,0
DA:91,0
DA:92,0
DA:93,0
DA:97,0
DA:98,0
DA:99,0
DA:104,0
DA:105,0
DA:106,0
DA:109,0
DA:110,0
DA:111,0
DA:116,0
DA:117,0
DA:118,0
DA:121,0
DA:122,0
DA:123,0
DA:145,0
DA:146,0
DA:147,0
DA:148,0
DA:149,0
DA:150,0
DA:151,0
DA:155,0
DA:156,0
DA:157,0
DA:158,0
DA:162,0
DA:163,0
DA:164,0
DA:165,0
DA:171,0
DA:172,0
DA:173,0
DA:174,0
DA:176,0
DA:177,0
DA:178,0
DA:180,0
DA:181,0
DA:182,0
DA:183,0
DA:184,0
DA:186,0
DA:187,0
DA:193,0
DA:194,0
DA:195,0
DA:196,0
DA:197,0
DA:199,0
DA:200,0
DA:201,0
DA:202,0
DA:204,0
DA:205,0
DA:209,0
DA:210,0
DA:211,0
DA:215,0
DA:216,0
DA:217,0
BRF:0
BRH:0
LF:90
LH:0
end_of_record
SF:/home/noah/src/probar/crates/probar/src/coverage/tests.rs
FN:2081,_RNvNtNtNtCsbqoqex1KQlH_6probar8coverage5tests17integration_testss_23test_jidoka_integration
FN:2045,_RNvNtNtNtCsbqoqex1KQlH_6probar8coverage5tests17integration_testss_27test_full_coverage_workflow
FN:1461,_RNvNtNtNtCsbqoqex1KQlH_6probar8coverage5tests26comprehensive_memory_testss_29test_memory_view_large_offset
FN:1473,_RNvNtNtNtCsbqoqex1KQlH_6probar8coverage5tests26comprehensive_memory_testss_34test_memory_view_multiple_counters
FN:1897,_RNvNtNtNtCsbqoqex1KQlH_6probar8coverage5tests35comprehensive_memory_coverage_testss_27test_memory_view_is_covered
FN:1889,_RNvNtNtNtCsbqoqex1KQlH_6probar8coverage5tests35comprehensive_memory_coverage_testss_28test_memory_view_memory_size
FN:1881,_RNvNtNtNtCsbqoqex1KQlH_6probar8coverage5tests35comprehensive_memory_coverage_testss_29test_memory_view_counter_base
FN:1910,_RNvNtNtNtCsbqoqex1KQlH_6probar8coverage5tests35comprehensive_memory_coverage_testss_30test_memory_view_covered_count
FN:1923,_RNvNtNtNtCsbqoqex1KQlH_6probar8coverage5tests35comprehensive_memory_coverage_testss_33test_memory_view_coverage_percent
FN:1937,_RNvNtNtNtCsbqoqex1KQlH_6probar8coverage5tests35comprehensive_memory_coverage_testss_39test_memory_view_coverage_percent_empty
FN:1945,_RNvNtNtNtCsbqoqex1KQlH_6probar8coverage5tests35comprehensive_memory_coverage_testss_43test_memory_view_read_counter_out_of_bounds
FN:1955,_RNvNtNtNtCsbqoqex1KQlH_6probar8coverage5tests35comprehensive_memory_coverage_testss_45test_memory_view_read_counter_memory_overflow
FN:1623,_RNvNtNtNtCsbqoqex1KQlH_6probar8coverage5tests26comprehensive_report_testss_19test_report_default
FN:1504,_RNvNtNtNtCsbqoqex1KQlH_6probar8coverage5tests26comprehensive_report_testss_20test_report_add_test
FN:1558,_RNvNtNtNtCsbqoqex1KQlH_6probar8coverage5tests26comprehensive_report_testss_22test_report_is_covered
FN:1600,_RNvNtNtNtCsbqoqex1KQlH_6probar8coverage5tests26comprehensive_report_testss_22test_report_is_tainted
FN:1646,_RNvNtNtNtCsbqoqex1KQlH_6probar8coverage5tests26comprehensive_report_testss_23test_report_merge_tests
FN:1515,_RNvNtNtNtCsbqoqex1KQlH_6probar8coverage5tests26comprehensive_report_testss_23test_report_record_hits
FN:1579,_RNvNtNtNtCsbqoqex1KQlH_6probar8coverage5tests26comprehensive_report_testss_24test_report_total_blocks
FN:1586,_RNvNtNtNtCsbqoqex1KQlH_6probar8coverage5tests26comprehensive_report_testss_27test_report_block_coverages
FN:1524,_RNvNtNtNtCsbqoqex1KQlH_6probar8coverage5tests26comprehensive_report_testss_28test_report_record_violation
FN:1495,_RNvNtNtNtCsbqoqex1KQlH_6probar8coverage5tests26comprehensive_report_testss_28test_report_set_session_name
FN:1548,_RNvNtNtNtCsbqoqex1KQlH_6probar8coverage5tests26comprehensive_report_testss_29test_report_set_function_name
FN:1535,_RNvNtNtNtCsbqoqex1KQlH_6probar8coverage5tests26comprehensive_report_testss_31test_report_set_source_location
FN:1612,_RNvNtNtNtCsbqoqex1KQlH_6probar8coverage5tests26comprehensive_report_testss_31test_report_violations_accessor
FN:1630,_RNvNtNtNtCsbqoqex1KQlH_6probar8coverage5tests26comprehensive_report_testss_34test_report_merge_source_locations
FN:1568,_RNvNtNtNtCsbqoqex1KQlH_6probar8coverage5tests26comprehensive_report_testss_35test_report_coverage_percent_direct
FN:858,_RNvNtNtNtCsbqoqex1KQlH_6probar8coverage5tests22additional_block_testss_18test_edge_id_debug
FN:823,_RNvNtNtNtCsbqoqex1KQlH_6probar8coverage5tests22additional_block_testss_19test_block_id_debug
FN:874,_RNvNtNtNtCsbqoqex1KQlH_6probar8coverage5tests22additional_block_testss_19test_edge_id_as_u64
FN:866,_RNvNtNtNtCsbqoqex1KQlH_6probar8coverage5tests22additional_block_testss_21test_edge_id_ordering
FN:850,_RNvNtNtNtCsbqoqex1KQlH_6probar8coverage5tests22additional_block_testss_21test_function_id_copy
FN:841,_RNvNtNtNtCsbqoqex1KQlH_6probar8coverage5tests22additional_block_testss_22test_function_id_debug
FN:832,_RNvNtNtNtCsbqoqex1KQlH_6probar8coverage5tests22additional_block_testss_25test_function_id_ordering
FN:1014,_RNvNtNtNtCsbqoqex1KQlH_6probar8coverage5tests23additional_memory_testss_22test_memory_view_debug
FN:1004,_RNvNtNtNtCsbqoqex1KQlH_6probar8coverage5tests23additional_memory_testss_22test_memory_view_empty
FN:76,_RNvNtNtNtCsbqoqex1KQlH_6probar8coverage5tests17function_id_testss_25test_function_id_hashable
FN:66,_RNvNtNtNtCsbqoqex1KQlH_6probar8coverage5tests17function_id_testss_28test_function_id_type_safety
FN:1127,_RNvNtNtNtCsbqoqex1KQlH_6probar8coverage5tests26additional_collector_testss_22test_granularity_debug
FN:1115,_RNvNtNtNtCsbqoqex1KQlH_6probar8coverage5tests26additional_collector_testss_25test_granularity_variants
FN:1135,_RNvNtNtNtCsbqoqex1KQlH_6probar8coverage5tests26additional_collector_testss_26test_coverage_config_debug
FN:1143,_RNvNtNtNtCsbqoqex1KQlH_6probar8coverage5tests26additional_collector_testss_32test_collector_end_without_begin
FN:1154,_RNvNtNtNtCsbqoqex1KQlH_6probar8coverage5tests26additional_collector_testss_37test_collector_end_test_without_begin
FN:1236,_RNvNtNtNtCsbqoqex1KQlH_6probar8coverage5tests29additional_thread_local_testss_23test_thread_local_debug
FN:1244,_RNvNtNtNtCsbqoqex1KQlH_6probar8coverage5tests29additional_thread_local_testss_31test_thread_local_out_of_bounds
FN:1252,_RNvNtNtNtCsbqoqex1KQlH_6probar8coverage5tests29additional_thread_local_testss_41test_thread_local_increment_out_of_bounds
FN:2016,_RNvNtNtNtCsbqoqex1KQlH_6probar8coverage5tests41comprehensive_thread_local_coverage_testss_25test_thread_local_default
FN:1996,_RNvNtNtNtCsbqoqex1KQlH_6probar8coverage5tests41comprehensive_thread_local_coverage_testss_29test_thread_local_block_count
FN:2003,_RNvNtNtNtCsbqoqex1KQlH_6probar8coverage5tests41comprehensive_thread_local_coverage_testss_29test_thread_local_has_pending
FN:1969,_RNvNtNtNtCsbqoqex1KQlH_6probar8coverage5tests41comprehensive_thread_local_coverage_testss_30test_thread_local_flush_resets
FN:1986,_RNvNtNtNtCsbqoqex1KQlH_6probar8coverage5tests41comprehensive_thread_local_coverage_testss_38test_thread_local_with_flush_threshold
FN:2023,_RNvNtNtNtCsbqoqex1KQlH_6probar8coverage5tests41comprehensive_thread_local_coverage_testss_41test_thread_local_auto_flush_at_threshold
FN:777,_RNCNvNtNtNtCsbqoqex1KQlH_6probar8coverage5tests14executor_testss_19test_executor_empty0B9_
FN:726,_RNCNvNtNtNtCsbqoqex1KQlH_6probar8coverage5tests14executor_testss_21test_executor_execute0B9_
FN:746,_RNCNvNtNtNtCsbqoqex1KQlH_6probar8coverage5tests14executor_testss_34test_executor_execute_with_failure0B9_
FN:232,_RNvNtNtNtCsbqoqex1KQlH_6probar8coverage5tests18thread_local_testss_27test_thread_local_increment
FN:223,_RNvNtNtNtCsbqoqex1KQlH_6probar8coverage5tests18thread_local_testss_27test_thread_local_init_zero
FN:258,_RNvNtNtNtCsbqoqex1KQlH_6probar8coverage5tests18thread_local_testss_30test_thread_local_manual_flush
FN:245,_RNvNtNtNtCsbqoqex1KQlH_6probar8coverage5tests18thread_local_testss_33test_thread_local_flush_threshold
FN:272,_RNvNtNtNtCsbqoqex1KQlH_6probar8coverage5tests18thread_local_testss_34test_thread_local_flush_all_blocks
FN:685,_RNvNtNtNtCsbqoqex1KQlH_6probar8coverage5tests14executor_testss_17test_executor_new
FN:770,_RNvNtNtNtCsbqoqex1KQlH_6probar8coverage5tests14executor_testss_19test_executor_empty
FN:717,_RNvNtNtNtCsbqoqex1KQlH_6probar8coverage5tests14executor_testss_21test_executor_execute
FN:788,_RNvNtNtNtCsbqoqex1KQlH_6probar8coverage5tests14executor_testss_22test_superblock_result
FN:696,_RNvNtNtNtCsbqoqex1KQlH_6probar8coverage5tests14executor_testss_26test_executor_with_workers
FN:706,_RNvNtNtNtCsbqoqex1KQlH_6probar8coverage5tests14executor_testss_32test_executor_with_work_stealing
FN:802,_RNvNtNtNtCsbqoqex1KQlH_6probar8coverage5tests14executor_testss_33test_superblock_result_with_error
FN:738,_RNvNtNtNtCsbqoqex1KQlH_6probar8coverage5tests14executor_testss_34test_executor_execute_with_failure
FN:1314,_RNvNtNtNtCsbqoqex1KQlH_6probar8coverage5tests26comprehensive_jidoka_testss_25test_description_overflow
FN:1399,_RNvNtNtNtCsbqoqex1KQlH_6probar8coverage5tests26comprehensive_jidoka_testss_25test_tainted_blocks_clear
FN:1372,_RNvNtNtNtCsbqoqex1KQlH_6probar8coverage5tests26comprehensive_jidoka_testss_25test_violations_for_block
FN:1338,_RNvNtNtNtCsbqoqex1KQlH_6probar8coverage5tests26comprehensive_jidoka_testss_27test_description_regression
FN:1274,_RNvNtNtNtCsbqoqex1KQlH_6probar8coverage5tests26comprehensive_jidoka_testss_28test_affected_block_overflow
FN:1442,_RNvNtNtNtCsbqoqex1KQlH_6probar8coverage5tests26comprehensive_jidoka_testss_28test_all_violations_accessor
FN:1351,_RNvNtNtNtCsbqoqex1KQlH_6probar8coverage5tests26comprehensive_jidoka_testss_28test_tainted_blocks_accessor
FN:1293,_RNvNtNtNtCsbqoqex1KQlH_6probar8coverage5tests26comprehensive_jidoka_testss_30test_affected_block_regression
FN:1303,_RNvNtNtNtCsbqoqex1KQlH_6probar8coverage5tests26comprehensive_jidoka_testss_31test_description_uninstrumented
FN:1325,_RNvNtNtNtCsbqoqex1KQlH_6probar8coverage5tests26comprehensive_jidoka_testss_32test_description_impossible_edge
FN:1417,_RNvNtNtNtCsbqoqex1KQlH_6probar8coverage5tests26comprehensive_jidoka_testss_32test_record_violation_with_block
FN:1265,_RNvNtNtNtCsbqoqex1KQlH_6probar8coverage5tests26comprehensive_jidoka_testss_34test_affected_block_uninstrumented
FN:1283,_RNvNtNtNtCsbqoqex1KQlH_6probar8coverage5tests26comprehensive_jidoka_testss_35test_affected_block_impossible_edge
FN:1429,_RNvNtNtNtCsbqoqex1KQlH_6probar8coverage5tests26comprehensive_jidoka_testss_35test_record_violation_without_block
FN:300,_RNvNtNtNtCsbqoqex1KQlH_6probar8coverage5tests16superblock_testss_23test_superblock_id_type
FN:348,_RNvNtNtNtCsbqoqex1KQlH_6probar8coverage5tests16superblock_testss_29test_superblock_builder_empty
FN:358,_RNvNtNtNtCsbqoqex1KQlH_6probar8coverage5tests16superblock_testss_29test_superblock_cost_estimate
FN:307,_RNvNtNtNtCsbqoqex1KQlH_6probar8coverage5tests16superblock_testss_31test_superblock_contains_blocks
FN:332,_RNvNtNtNtCsbqoqex1KQlH_6probar8coverage5tests16superblock_testss_32test_superblock_builder_max_size
FN:318,_RNvNtNtNtCsbqoqex1KQlH_6probar8coverage5tests16superblock_testss_35test_superblock_builder_target_size
FN:1102,_RNvNtNtNtCsbqoqex1KQlH_6probar8coverage5tests27additional_hypothesis_testss_30test_coverage_hypothesis_debug
FN:1047,_RNvNtNtNtCsbqoqex1KQlH_6probar8coverage5tests27additional_hypothesis_testss_32test_nullification_config_custom
FN:1063,_RNvNtNtNtCsbqoqex1KQlH_6probar8coverage5tests27additional_hypothesis_testss_32test_nullification_result_report
FN:1055,_RNvNtNtNtCsbqoqex1KQlH_6probar8coverage5tests27additional_hypothesis_testss_33test_nullification_config_default
FN:1038,_RNvNtNtNtCsbqoqex1KQlH_6probar8coverage5tests27additional_hypothesis_testss_34test_hypothesis_empty_observations
FN:1027,_RNvNtNtNtCsbqoqex1KQlH_6probar8coverage5tests27additional_hypothesis_testss_36test_hypothesis_mutation_correlation
FN:1080,_RNvNtNtNtCsbqoqex1KQlH_6probar8coverage5tests27additional_hypothesis_testss_40test_nullification_result_is_significant
FN:1706,_RNvNtNtNtCsbqoqex1KQlH_6probar8coverage5tests30comprehensive_superblock_testss_21test_superblock_clone
FN:1674,_RNvNtNtNtCsbqoqex1KQlH_6probar8coverage5tests30comprehensive_superblock_testss_31test_superblock_blocks_accessor
FN:1683,_RNvNtNtNtCsbqoqex1KQlH_6probar8coverage5tests30comprehensive_superblock_testss_31test_superblock_builder_next_id
FN:1664,_RNvNtNtNtCsbqoqex1KQlH_6probar8coverage5tests30comprehensive_superblock_testss_33test_superblock_set_cost_estimate
FN:1690,_RNvNtNtNtCsbqoqex1KQlH_6probar8coverage5tests30comprehensive_superblock_testss_44test_superblock_builder_from_function_blocks
FN:179,_RNvNtNtNtCsbqoqex1KQlH_6probar8coverage5tests12jidoka_testss_28test_tainted_blocks_tracking
FN:150,_RNvNtNtNtCsbqoqex1KQlH_6probar8coverage5tests12jidoka_testss_33test_impossible_edge_is_hard_stop
FN:196,_RNvNtNtNtCsbqoqex1KQlH_6probar8coverage5tests12jidoka_testss_33test_tainted_blocks_no_duplicates
FN:160,_RNvNtNtNtCsbqoqex1KQlH_6probar8coverage5tests12jidoka_testss_34test_counter_overflow_is_soft_stop
FN:169,_RNvNtNtNtCsbqoqex1KQlH_6probar8coverage5tests12jidoka_testss_37test_coverage_regression_is_soft_stop
FN:141,_RNvNtNtNtCsbqoqex1KQlH_6probar8coverage5tests12jidoka_testss_42test_uninstrumented_execution_is_hard_stop
FN:43,_RNvNtNtNtCsbqoqex1KQlH_6probar8coverage5tests14block_id_testss_22test_block_id_hashable
FN:54,_RNvNtNtNtCsbqoqex1KQlH_6probar8coverage5tests14block_id_testss_22test_block_id_ordering
FN:28,_RNvNtNtNtCsbqoqex1KQlH_6probar8coverage5tests14block_id_testss_25test_block_id_copy_and_eq
FN:36,_RNvNtNtNtCsbqoqex1KQlH_6probar8coverage5tests14block_id_testss_25test_block_id_inner_value
FN:1170,_RNvNtNtNtCsbqoqex1KQlH_6probar8coverage5tests23additional_report_testss_26test_coverage_report_debug
FN:1200,_RNvNtNtNtCsbqoqex1KQlH_6probar8coverage5tests23additional_report_testss_26test_coverage_report_merge
FN:1217,_RNvNtNtNtCsbqoqex1KQlH_6probar8coverage5tests23additional_report_testss_27test_block_coverage_default
FN:1178,_RNvNtNtNtCsbqoqex1KQlH_6probar8coverage5tests23additional_report_testss_27test_coverage_summary_debug
FN:1187,_RNvNtNtNtCsbqoqex1KQlH_6probar8coverage5tests23additional_report_testss_35test_coverage_report_covered_blocks
FN:553,_RNvNtNtNtCsbqoqex1KQlH_6probar8coverage5tests12report_testss_22test_report_hit_counts
FN:541,_RNvNtNtNtCsbqoqex1KQlH_6probar8coverage5tests12report_testss_23test_report_zero_blocks
FN:568,_RNvNtNtNtCsbqoqex1KQlH_6probar8coverage5tests12report_testss_28test_report_uncovered_blocks
FN:524,_RNvNtNtNtCsbqoqex1KQlH_6probar8coverage5tests12report_testss_31test_report_coverage_percentage
FN:583,_RNvNtNtNtCsbqoqex1KQlH_6probar8coverage5tests12report_testss_35test_block_coverage_source_location
FN:90,_RNvNtNtNtCsbqoqex1KQlH_6probar8coverage5tests13edge_id_testss_21test_edge_id_encoding
FN:123,_RNvNtNtNtCsbqoqex1KQlH_6probar8coverage5tests13edge_id_testss_21test_edge_id_hashable
FN:112,_RNvNtNtNtCsbqoqex1KQlH_6probar8coverage5tests13edge_id_testss_23test_edge_id_max_values
FN:101,_RNvNtNtNtCsbqoqex1KQlH_6probar8coverage5tests13edge_id_testss_23test_edge_id_uniqueness
FN:654,_RNvNtNtNtCsbqoqex1KQlH_6probar8coverage5tests16hypothesis_testss_25test_nullification_config
FN:662,_RNvNtNtNtCsbqoqex1KQlH_6probar8coverage5tests16hypothesis_testss_25test_nullification_result
FN:608,_RNvNtNtNtCsbqoqex1KQlH_6probar8coverage5tests16hypothesis_testss_27test_hypothesis_determinism
FN:623,_RNvNtNtNtCsbqoqex1KQlH_6probar8coverage5tests16hypothesis_testss_28test_hypothesis_completeness
FN:638,_RNvNtNtNtCsbqoqex1KQlH_6probar8coverage5tests16hypothesis_testss_29test_hypothesis_no_regression
FN:478,_RNvNtNtNtCsbqoqex1KQlH_6probar8coverage5tests15collector_testss_25test_collector_test_state
FN:496,_RNvNtNtNtCsbqoqex1KQlH_6probar8coverage5tests15collector_testss_27test_collector_records_hits
FN:463,_RNvNtNtNtCsbqoqex1KQlH_6probar8coverage5tests15collector_testss_28test_collector_session_state
FN:439,_RNvNtNtNtCsbqoqex1KQlH_6probar8coverage5tests15collector_testss_28test_coverage_config_builder
FN:453,_RNvNtNtNtCsbqoqex1KQlH_6probar8coverage5tests15collector_testss_29test_coverage_config_defaults
FN:1857,_RNvNtNtNtCsbqoqex1KQlH_6probar8coverage5tests29comprehensive_collector_testss_21test_granularity_path
FN:1731,_RNvNtNtNtCsbqoqex1KQlH_6probar8coverage5tests29comprehensive_collector_testss_22test_granularity_clone
FN:1739,_RNvNtNtNtCsbqoqex1KQlH_6probar8coverage5tests29comprehensive_collector_testss_26test_coverage_config_clone
FN:1798,_RNvNtNtNtCsbqoqex1KQlH_6probar8coverage5tests29comprehensive_collector_testss_27test_collector_current_test
FN:1784,_RNvNtNtNtCsbqoqex1KQlH_6probar8coverage5tests29comprehensive_collector_testss_29test_collector_is_test_active
FN:1865,_RNvNtNtNtCsbqoqex1KQlH_6probar8coverage5tests29comprehensive_collector_testss_29test_coverage_config_defaults
FN:1812,_RNvNtNtNtCsbqoqex1KQlH_6probar8coverage5tests29comprehensive_collector_testss_30test_collector_config_accessor
FN:1841,_RNvNtNtNtCsbqoqex1KQlH_6probar8coverage5tests29comprehensive_collector_testss_30test_collector_jidoka_disabled
FN:1755,_RNvNtNtNtCsbqoqex1KQlH_6probar8coverage5tests29comprehensive_collector_testss_31test_coverage_config_max_blocks
FN:1771,_RNvNtNtNtCsbqoqex1KQlH_6probar8coverage5tests29comprehensive_collector_testss_32test_collector_is_session_active
FN:1826,_RNvNtNtNtCsbqoqex1KQlH_6probar8coverage5tests29comprehensive_collector_testss_36test_collector_record_stop_violation
FN:1763,_RNvNtNtNtCsbqoqex1KQlH_6probar8coverage5tests29comprehensive_collector_testss_36test_coverage_config_max_blocks_zero
FN:1721,_RNvNtNtNtCsbqoqex1KQlH_6probar8coverage5tests29comprehensive_collector_testss_37test_coverage_config_edge_granularity
FN:1747,_RNvNtNtNtCsbqoqex1KQlH_6probar8coverage5tests29comprehensive_collector_testss_40test_coverage_config_checkpoint_interval
FN:952,_RNvNtNtNtCsbqoqex1KQlH_6probar8coverage5tests27additional_superblock_testss_20test_superblock_iter
FN:962,_RNvNtNtNtCsbqoqex1KQlH_6probar8coverage5tests27additional_superblock_testss_21test_superblock_debug
FN:936,_RNvNtNtNtCsbqoqex1KQlH_6probar8coverage5tests27additional_superblock_testss_27test_superblock_id_accessor
FN:971,_RNvNtNtNtCsbqoqex1KQlH_6probar8coverage5tests27additional_superblock_testss_27test_superblock_id_hashable
FN:982,_RNvNtNtNtCsbqoqex1KQlH_6probar8coverage5tests27additional_superblock_testss_27test_superblock_id_ordering
FN:990,_RNvNtNtNtCsbqoqex1KQlH_6probar8coverage5tests27additional_superblock_testss_31test_superblock_builder_default
FN:944,_RNvNtNtNtCsbqoqex1KQlH_6probar8coverage5tests27additional_superblock_testss_33test_superblock_function_accessor
FN:394,_RNvNtNtNtCsbqoqex1KQlH_6probar8coverage5tests17memory_view_testss_25test_memory_view_read_all
FN:423,_RNvNtNtNtCsbqoqex1KQlH_6probar8coverage5tests17memory_view_testss_28test_memory_view_block_count
FN:411,_RNvNtNtNtCsbqoqex1KQlH_6probar8coverage5tests17memory_view_testss_28test_memory_view_with_offset
FN:375,_RNvNtNtNtCsbqoqex1KQlH_6probar8coverage5tests17memory_view_testss_29test_memory_view_read_counter
FN:896,_RNvNtNtNtCsbqoqex1KQlH_6probar8coverage5tests23additional_jidoka_testss_24test_jidoka_action_debug
FN:887,_RNvNtNtNtCsbqoqex1KQlH_6probar8coverage5tests23additional_jidoka_testss_27test_jidoka_action_equality
FN:922,_RNvNtNtNtCsbqoqex1KQlH_6probar8coverage5tests23additional_jidoka_testss_29test_coverage_violation_clone
FN:912,_RNvNtNtNtCsbqoqex1KQlH_6probar8coverage5tests23additional_jidoka_testss_29test_coverage_violation_debug
FN:904,_RNvNtNtNtCsbqoqex1KQlH_6probar8coverage5tests23additional_jidoka_testss_29test_tainted_blocks_new_empty
FNDA:0,_RNvNtNtNtCsbqoqex1KQlH_6probar8coverage5tests17integration_testss_23test_jidoka_integration
FNDA:0,_RNvNtNtNtCsbqoqex1KQlH_6probar8coverage5tests17integration_testss_27test_full_coverage_workflow
FNDA:0,_RNvNtNtNtCsbqoqex1KQlH_6probar8coverage5tests26comprehensive_memory_testss_29test_memory_view_large_offset
FNDA:0,_RNvNtNtNtCsbqoqex1KQlH_6probar8coverage5tests26comprehensive_memory_testss_34test_memory_view_multiple_counters
FNDA:0,_RNvNtNtNtCsbqoqex1KQlH_6probar8coverage5tests35comprehensive_memory_coverage_testss_27test_memory_view_is_covered
FNDA:0,_RNvNtNtNtCsbqoqex1KQlH_6probar8coverage5tests35comprehensive_memory_coverage_testss_28test_memory_view_memory_size
FNDA:0,_RNvNtNtNtCsbqoqex1KQlH_6probar8coverage5tests35comprehensive_memory_coverage_testss_29test_memory_view_counter_base
FNDA:0,_RNvNtNtNtCsbqoqex1KQlH_6probar8coverage5tests35comprehensive_memory_coverage_testss_30test_memory_view_covered_count
FNDA:0,_RNvNtNtNtCsbqoqex1KQlH_6probar8coverage5tests35comprehensive_memory_coverage_testss_33test_memory_view_coverage_percent
FNDA:0,_RNvNtNtNtCsbqoqex1KQlH_6probar8coverage5tests35comprehensive_memory_coverage_testss_39test_memory_view_coverage_percent_empty
FNDA:0,_RNvNtNtNtCsbqoqex1KQlH_6probar8coverage5tests35comprehensive_memory_coverage_testss_43test_memory_view_read_counter_out_of_bounds
FNDA:0,_RNvNtNtNtCsbqoqex1KQlH_6probar8coverage5tests35comprehensive_memory_coverage_testss_45test_memory_view_read_counter_memory_overflow
FNDA:0,_RNvNtNtNtCsbqoqex1KQlH_6probar8coverage5tests26comprehensive_report_testss_19test_report_default
FNDA:0,_RNvNtNtNtCsbqoqex1KQlH_6probar8coverage5tests26comprehensive_report_testss_20test_report_add_test
FNDA:0,_RNvNtNtNtCsbqoqex1KQlH_6probar8coverage5tests26comprehensive_report_testss_22test_report_is_covered
FNDA:0,_RNvNtNtNtCsbqoqex1KQlH_6probar8coverage5tests26comprehensive_report_testss_22test_report_is_tainted
FNDA:0,_RNvNtNtNtCsbqoqex1KQlH_6probar8coverage5tests26comprehensive_report_testss_23test_report_merge_tests
FNDA:0,_RNvNtNtNtCsbqoqex1KQlH_6probar8coverage5tests26comprehensive_report_testss_23test_report_record_hits
FNDA:0,_RNvNtNtNtCsbqoqex1KQlH_6probar8coverage5tests26comprehensive_report_testss_24test_report_total_blocks
FNDA:0,_RNvNtNtNtCsbqoqex1KQlH_6probar8coverage5tests26comprehensive_report_testss_27test_report_block_coverages
FNDA:0,_RNvNtNtNtCsbqoqex1KQlH_6probar8coverage5tests26comprehensive_report_testss_28test_report_record_violation
FNDA:0,_RNvNtNtNtCsbqoqex1KQlH_6probar8coverage5tests26comprehensive_report_testss_28test_report_set_session_name
FNDA:0,_RNvNtNtNtCsbqoqex1KQlH_6probar8coverage5tests26comprehensive_report_testss_29test_report_set_function_name
FNDA:0,_RNvNtNtNtCsbqoqex1KQlH_6probar8coverage5tests26comprehensive_report_testss_31test_report_set_source_location
FNDA:0,_RNvNtNtNtCsbqoqex1KQlH_6probar8coverage5tests26comprehensive_report_testss_31test_report_violations_accessor
FNDA:0,_RNvNtNtNtCsbqoqex1KQlH_6probar8coverage5tests26comprehensive_report_testss_34test_report_merge_source_locations
FNDA:0,_RNvNtNtNtCsbqoqex1KQlH_6probar8coverage5tests26comprehensive_report_testss_35test_report_coverage_percent_direct
FNDA:0,_RNvNtNtNtCsbqoqex1KQlH_6probar8coverage5tests22additional_block_testss_18test_edge_id_debug
FNDA:0,_RNvNtNtNtCsbqoqex1KQlH_6probar8coverage5tests22additional_block_testss_19test_block_id_debug
FNDA:0,_RNvNtNtNtCsbqoqex1KQlH_6probar8coverage5tests22additional_block_testss_19test_edge_id_as_u64
FNDA:0,_RNvNtNtNtCsbqoqex1KQlH_6probar8coverage5tests22additional_block_testss_21test_edge_id_ordering
FNDA:0,_RNvNtNtNtCsbqoqex1KQlH_6probar8coverage5tests22additional_block_testss_21test_function_id_copy
FNDA:0,_RNvNtNtNtCsbqoqex1KQlH_6probar8coverage5tests22additional_block_testss_22test_function_id_debug
FNDA:0,_RNvNtNtNtCsbqoqex1KQlH_6probar8coverage5tests22additional_block_testss_25test_function_id_ordering
FNDA:0,_RNvNtNtNtCsbqoqex1KQlH_6probar8coverage5tests23additional_memory_testss_22test_memory_view_debug
FNDA:0,_RNvNtNtNtCsbqoqex1KQlH_6probar8coverage5tests23additional_memory_testss_22test_memory_view_empty
FNDA:0,_RNvNtNtNtCsbqoqex1KQlH_6probar8coverage5tests17function_id_testss_25test_function_id_hashable
FNDA:0,_RNvNtNtNtCsbqoqex1KQlH_6probar8coverage5tests17function_id_testss_28test_function_id_type_safety
FNDA:0,_RNvNtNtNtCsbqoqex1KQlH_6probar8coverage5tests26additional_collector_testss_22test_granularity_debug
FNDA:0,_RNvNtNtNtCsbqoqex1KQlH_6probar8coverage5tests26additional_collector_testss_25test_granularity_variants
FNDA:0,_RNvNtNtNtCsbqoqex1KQlH_6probar8coverage5tests26additional_collector_testss_26test_coverage_config_debug
FNDA:0,_RNvNtNtNtCsbqoqex1KQlH_6probar8coverage5tests26additional_collector_testss_32test_collector_end_without_begin
FNDA:0,_RNvNtNtNtCsbqoqex1KQlH_6probar8coverage5tests26additional_collector_testss_37test_collector_end_test_without_begin
FNDA:0,_RNvNtNtNtCsbqoqex1KQlH_6probar8coverage5tests29additional_thread_local_testss_23test_thread_local_debug
FNDA:0,_RNvNtNtNtCsbqoqex1KQlH_6probar8coverage5tests29additional_thread_local_testss_31test_thread_local_out_of_bounds
FNDA:0,_RNvNtNtNtCsbqoqex1KQlH_6probar8coverage5tests29additional_thread_local_testss_41test_thread_local_increment_out_of_bounds
FNDA:0,_RNvNtNtNtCsbqoqex1KQlH_6probar8coverage5tests41comprehensive_thread_local_coverage_testss_25test_thread_local_default
FNDA:0,_RNvNtNtNtCsbqoqex1KQlH_6probar8coverage5tests41comprehensive_thread_local_coverage_testss_29test_thread_local_block_count
FNDA:0,_RNvNtNtNtCsbqoqex1KQlH_6probar8coverage5tests41comprehensive_thread_local_coverage_testss_29test_thread_local_has_pending
FNDA:0,_RNvNtNtNtCsbqoqex1KQlH_6probar8coverage5tests41comprehensive_thread_local_coverage_testss_30test_thread_local_flush_resets
FNDA:0,_RNvNtNtNtCsbqoqex1KQlH_6probar8coverage5tests41comprehensive_thread_local_coverage_testss_38test_thread_local_with_flush_threshold
FNDA:0,_RNvNtNtNtCsbqoqex1KQlH_6probar8coverage5tests41comprehensive_thread_local_coverage_testss_41test_thread_local_auto_flush_at_threshold
FNDA:0,_RNCNvNtNtNtCsbqoqex1KQlH_6probar8coverage5tests14executor_testss_19test_executor_empty0B9_
FNDA:0,_RNCNvNtNtNtCsbqoqex1KQlH_6probar8coverage5tests14executor_testss_21test_executor_execute0B9_
FNDA:0,_RNCNvNtNtNtCsbqoqex1KQlH_6probar8coverage5tests14executor_testss_34test_executor_execute_with_failure0B9_
FNDA:0,_RNvNtNtNtCsbqoqex1KQlH_6probar8coverage5tests18thread_local_testss_27test_thread_local_increment
FNDA:0,_RNvNtNtNtCsbqoqex1KQlH_6probar8coverage5tests18thread_local_testss_27test_thread_local_init_zero
FNDA:0,_RNvNtNtNtCsbqoqex1KQlH_6probar8coverage5tests18thread_local_testss_30test_thread_local_manual_flush
FNDA:0,_RNvNtNtNtCsbqoqex1KQlH_6probar8coverage5tests18thread_local_testss_33test_thread_local_flush_threshold
FNDA:0,_RNvNtNtNtCsbqoqex1KQlH_6probar8coverage5tests18thread_local_testss_34test_thread_local_flush_all_blocks
FNDA:0,_RNvNtNtNtCsbqoqex1KQlH_6probar8coverage5tests14executor_testss_17test_executor_new
FNDA:0,_RNvNtNtNtCsbqoqex1KQlH_6probar8coverage5tests14executor_testss_19test_executor_empty
FNDA:0,_RNvNtNtNtCsbqoqex1KQlH_6probar8coverage5tests14executor_testss_21test_executor_execute
FNDA:0,_RNvNtNtNtCsbqoqex1KQlH_6probar8coverage5tests14executor_testss_22test_superblock_result
FNDA:0,_RNvNtNtNtCsbqoqex1KQlH_6probar8coverage5tests14executor_testss_26test_executor_with_workers
FNDA:0,_RNvNtNtNtCsbqoqex1KQlH_6probar8coverage5tests14executor_testss_32test_executor_with_work_stealing
FNDA:0,_RNvNtNtNtCsbqoqex1KQlH_6probar8coverage5tests14executor_testss_33test_superblock_result_with_error
FNDA:0,_RNvNtNtNtCsbqoqex1KQlH_6probar8coverage5tests14executor_testss_34test_executor_execute_with_failure
FNDA:0,_RNvNtNtNtCsbqoqex1KQlH_6probar8coverage5tests26comprehensive_jidoka_testss_25test_description_overflow
FNDA:0,_RNvNtNtNtCsbqoqex1KQlH_6probar8coverage5tests26comprehensive_jidoka_testss_25test_tainted_blocks_clear
FNDA:0,_RNvNtNtNtCsbqoqex1KQlH_6probar8coverage5tests26comprehensive_jidoka_testss_25test_violations_for_block
FNDA:0,_RNvNtNtNtCsbqoqex1KQlH_6probar8coverage5tests26comprehensive_jidoka_testss_27test_description_regression
FNDA:0,_RNvNtNtNtCsbqoqex1KQlH_6probar8coverage5tests26comprehensive_jidoka_testss_28test_affected_block_overflow
FNDA:0,_RNvNtNtNtCsbqoqex1KQlH_6probar8coverage5tests26comprehensive_jidoka_testss_28test_all_violations_accessor
FNDA:0,_RNvNtNtNtCsbqoqex1KQlH_6probar8coverage5tests26comprehensive_jidoka_testss_28test_tainted_blocks_accessor
FNDA:0,_RNvNtNtNtCsbqoqex1KQlH_6probar8coverage5tests26comprehensive_jidoka_testss_30test_affected_block_regression
FNDA:0,_RNvNtNtNtCsbqoqex1KQlH_6probar8coverage5tests26comprehensive_jidoka_testss_31test_description_uninstrumented
FNDA:0,_RNvNtNtNtCsbqoqex1KQlH_6probar8coverage5tests26comprehensive_jidoka_testss_32test_description_impossible_edge
FNDA:0,_RNvNtNtNtCsbqoqex1KQlH_6probar8coverage5tests26comprehensive_jidoka_testss_32test_record_violation_with_block
FNDA:0,_RNvNtNtNtCsbqoqex1KQlH_6probar8coverage5tests26comprehensive_jidoka_testss_34test_affected_block_uninstrumented
FNDA:0,_RNvNtNtNtCsbqoqex1KQlH_6probar8coverage5tests26comprehensive_jidoka_testss_35test_affected_block_impossible_edge
FNDA:0,_RNvNtNtNtCsbqoqex1KQlH_6probar8coverage5tests26comprehensive_jidoka_testss_35test_record_violation_without_block
FNDA:0,_RNvNtNtNtCsbqoqex1KQlH_6probar8coverage5tests16superblock_testss_23test_superblock_id_type
FNDA:0,_RNvNtNtNtCsbqoqex1KQlH_6probar8coverage5tests16superblock_testss_29test_superblock_builder_empty
FNDA:0,_RNvNtNtNtCsbqoqex1KQlH_6probar8coverage5tests16superblock_testss_29test_superblock_cost_estimate
FNDA:0,_RNvNtNtNtCsbqoqex1KQlH_6probar8coverage5tests16superblock_testss_31test_superblock_contains_blocks
FNDA:0,_RNvNtNtNtCsbqoqex1KQlH_6probar8coverage5tests16superblock_testss_32test_superblock_builder_max_size
FNDA:0,_RNvNtNtNtCsbqoqex1KQlH_6probar8coverage5tests16superblock_testss_35test_superblock_builder_target_size
FNDA:0,_RNvNtNtNtCsbqoqex1KQlH_6probar8coverage5tests27additional_hypothesis_testss_30test_coverage_hypothesis_debug
FNDA:0,_RNvNtNtNtCsbqoqex1KQlH_6probar8coverage5tests27additional_hypothesis_testss_32test_nullification_config_custom
FNDA:0,_RNvNtNtNtCsbqoqex1KQlH_6probar8coverage5tests27additional_hypothesis_testss_32test_nullification_result_report
FNDA:0,_RNvNtNtNtCsbqoqex1KQlH_6probar8coverage5tests27additional_hypothesis_testss_33test_nullification_config_default
FNDA:0,_RNvNtNtNtCsbqoqex1KQlH_6probar8coverage5tests27additional_hypothesis_testss_34test_hypothesis_empty_observations
FNDA:0,_RNvNtNtNtCsbqoqex1KQlH_6probar8coverage5tests27additional_hypothesis_testss_36test_hypothesis_mutation_correlation
FNDA:0,_RNvNtNtNtCsbqoqex1KQlH_6probar8coverage5tests27additional_hypothesis_testss_40test_nullification_result_is_significant
FNDA:0,_RNvNtNtNtCsbqoqex1KQlH_6probar8coverage5tests30comprehensive_superblock_testss_21test_superblock_clone
FNDA:0,_RNvNtNtNtCsbqoqex1KQlH_6probar8coverage5tests30comprehensive_superblock_testss_31test_superblock_blocks_accessor
FNDA:0,_RNvNtNtNtCsbqoqex1KQlH_6probar8coverage5tests30comprehensive_superblock_testss_31test_superblock_builder_next_id
FNDA:0,_RNvNtNtNtCsbqoqex1KQlH_6probar8coverage5tests30comprehensive_superblock_testss_33test_superblock_set_cost_estimate
FNDA:0,_RNvNtNtNtCsbqoqex1KQlH_6probar8coverage5tests30comprehensive_superblock_testss_44test_superblock_builder_from_function_blocks
FNDA:0,_RNvNtNtNtCsbqoqex1KQlH_6probar8coverage5tests12jidoka_testss_28test_tainted_blocks_tracking
FNDA:0,_RNvNtNtNtCsbqoqex1KQlH_6probar8coverage5tests12jidoka_testss_33test_impossible_edge_is_hard_stop
FNDA:0,_RNvNtNtNtCsbqoqex1KQlH_6probar8coverage5tests12jidoka_testss_33test_tainted_blocks_no_duplicates
FNDA:0,_RNvNtNtNtCsbqoqex1KQlH_6probar8coverage5tests12jidoka_testss_34test_counter_overflow_is_soft_stop
FNDA:0,_RNvNtNtNtCsbqoqex1KQlH_6probar8coverage5tests12jidoka_testss_37test_coverage_regression_is_soft_stop
FNDA:0,_RNvNtNtNtCsbqoqex1KQlH_6probar8coverage5tests12jidoka_testss_42test_uninstrumented_execution_is_hard_stop
FNDA:0,_RNvNtNtNtCsbqoqex1KQlH_6probar8coverage5tests14block_id_testss_22test_block_id_hashable
FNDA:0,_RNvNtNtNtCsbqoqex1KQlH_6probar8coverage5tests14block_id_testss_22test_block_id_ordering
FNDA:0,_RNvNtNtNtCsbqoqex1KQlH_6probar8coverage5tests14block_id_testss_25test_block_id_copy_and_eq
FNDA:0,_RNvNtNtNtCsbqoqex1KQlH_6probar8coverage5tests14block_id_testss_25test_block_id_inner_value
FNDA:0,_RNvNtNtNtCsbqoqex1KQlH_6probar8coverage5tests23additional_report_testss_26test_coverage_report_debug
FNDA:0,_RNvNtNtNtCsbqoqex1KQlH_6probar8coverage5tests23additional_report_testss_26test_coverage_report_merge
FNDA:0,_RNvNtNtNtCsbqoqex1KQlH_6probar8coverage5tests23additional_report_testss_27test_block_coverage_default
FNDA:0,_RNvNtNtNtCsbqoqex1KQlH_6probar8coverage5tests23additional_report_testss_27test_coverage_summary_debug
FNDA:0,_RNvNtNtNtCsbqoqex1KQlH_6probar8coverage5tests23additional_report_testss_35test_coverage_report_covered_blocks
FNDA:0,_RNvNtNtNtCsbqoqex1KQlH_6probar8coverage5tests12report_testss_22test_report_hit_counts
FNDA:0,_RNvNtNtNtCsbqoqex1KQlH_6probar8coverage5tests12report_testss_23test_report_zero_blocks
FNDA:0,_RNvNtNtNtCsbqoqex1KQlH_6probar8coverage5tests12report_testss_28test_report_uncovered_blocks
FNDA:0,_RNvNtNtNtCsbqoqex1KQlH_6probar8coverage5tests12report_testss_31test_report_coverage_percentage
FNDA:0,_RNvNtNtNtCsbqoqex1KQlH_6probar8coverage5tests12report_testss_35test_block_coverage_source_location
FNDA:0,_RNvNtNtNtCsbqoqex1KQlH_6probar8coverage5tests13edge_id_testss_21test_edge_id_encoding
FNDA:0,_RNvNtNtNtCsbqoqex1KQlH_6probar8coverage5tests13edge_id_testss_21test_edge_id_hashable
FNDA:0,_RNvNtNtNtCsbqoqex1KQlH_6probar8coverage5tests13edge_id_testss_23test_edge_id_max_values
FNDA:0,_RNvNtNtNtCsbqoqex1KQlH_6probar8coverage5tests13edge_id_testss_23test_edge_id_uniqueness
FNDA:0,_RNvNtNtNtCsbqoqex1KQlH_6probar8coverage5tests16hypothesis_testss_25test_nullification_config
FNDA:0,_RNvNtNtNtCsbqoqex1KQlH_6probar8coverage5tests16hypothesis_testss_25test_nullification_result
FNDA:0,_RNvNtNtNtCsbqoqex1KQlH_6probar8coverage5tests16hypothesis_testss_27test_hypothesis_determinism
FNDA:0,_RNvNtNtNtCsbqoqex1KQlH_6probar8coverage5tests16hypothesis_testss_28test_hypothesis_completeness
FNDA:0,_RNvNtNtNtCsbqoqex1KQlH_6probar8coverage5tests16hypothesis_testss_29test_hypothesis_no_regression
FNDA:0,_RNvNtNtNtCsbqoqex1KQlH_6probar8coverage5tests15collector_testss_25test_collector_test_state
FNDA:0,_RNvNtNtNtCsbqoqex1KQlH_6probar8coverage5tests15collector_testss_27test_collector_records_hits
FNDA:0,_RNvNtNtNtCsbqoqex1KQlH_6probar8coverage5tests15collector_testss_28test_collector_session_state
FNDA:0,_RNvNtNtNtCsbqoqex1KQlH_6probar8coverage5tests15collector_testss_28test_coverage_config_builder
FNDA:0,_RNvNtNtNtCsbqoqex1KQlH_6probar8coverage5tests15collector_testss_29test_coverage_config_defaults
FNDA:0,_RNvNtNtNtCsbqoqex1KQlH_6probar8coverage5tests29comprehensive_collector_testss_21test_granularity_path
FNDA:0,_RNvNtNtNtCsbqoqex1KQlH_6probar8coverage5tests29comprehensive_collector_testss_22test_granularity_clone
FNDA:0,_RNvNtNtNtCsbqoqex1KQlH_6probar8coverage5tests29comprehensive_collector_testss_26test_coverage_config_clone
FNDA:0,_RNvNtNtNtCsbqoqex1KQlH_6probar8coverage5tests29comprehensive_collector_testss_27test_collector_current_test
FNDA:0,_RNvNtNtNtCsbqoqex1KQlH_6probar8coverage5tests29comprehensive_collector_testss_29test_collector_is_test_active
FNDA:0,_RNvNtNtNtCsbqoqex1KQlH_6probar8coverage5tests29comprehensive_collector_testss_29test_coverage_config_defaults
FNDA:0,_RNvNtNtNtCsbqoqex1KQlH_6probar8coverage5tests29comprehensive_collector_testss_30test_collector_config_accessor
FNDA:0,_RNvNtNtNtCsbqoqex1KQlH_6probar8coverage5tests29comprehensive_collector_testss_30test_collector_jidoka_disabled
FNDA:0,_RNvNtNtNtCsbqoqex1KQlH_6probar8coverage5tests29comprehensive_collector_testss_31test_coverage_config_max_blocks
FNDA:0,_RNvNtNtNtCsbqoqex1KQlH_6probar8coverage5tests29comprehensive_collector_testss_32test_collector_is_session_active
FNDA:0,_RNvNtNtNtCsbqoqex1KQlH_6probar8coverage5tests29comprehensive_collector_testss_36test_collector_record_stop_violation
FNDA:0,_RNvNtNtNtCsbqoqex1KQlH_6probar8coverage5tests29comprehensive_collector_testss_36test_coverage_config_max_blocks_zero
FNDA:0,_RNvNtNtNtCsbqoqex1KQlH_6probar8coverage5tests29comprehensive_collector_testss_37test_coverage_config_edge_granularity
FNDA:0,_RNvNtNtNtCsbqoqex1KQlH_6probar8coverage5tests29comprehensive_collector_testss_40test_coverage_config_checkpoint_interval
FNDA:0,_RNvNtNtNtCsbqoqex1KQlH_6probar8coverage5tests27additional_superblock_testss_20test_superblock_iter
FNDA:0,_RNvNtNtNtCsbqoqex1KQlH_6probar8coverage5tests27additional_superblock_testss_21test_superblock_debug
FNDA:0,_RNvNtNtNtCsbqoqex1KQlH_6probar8coverage5tests27additional_superblock_testss_27test_superblock_id_accessor
FNDA:0,_RNvNtNtNtCsbqoqex1KQlH_6probar8coverage5tests27additional_superblock_testss_27test_superblock_id_hashable
FNDA:0,_RNvNtNtNtCsbqoqex1KQlH_6probar8coverage5tests27additional_superblock_testss_27test_superblock_id_ordering
FNDA:0,_RNvNtNtNtCsbqoqex1KQlH_6probar8coverage5tests27additional_superblock_testss_31test_superblock_builder_default
FNDA:0,_RNvNtNtNtCsbqoqex1KQlH_6probar8coverage5tests27additional_superblock_testss_33test_superblock_function_accessor
FNDA:0,_RNvNtNtNtCsbqoqex1KQlH_6probar8coverage5tests17memory_view_testss_25test_memory_view_read_all
FNDA:0,_RNvNtNtNtCsbqoqex1KQlH_6probar8coverage5tests17memory_view_testss_28test_memory_view_block_count
FNDA:0,_RNvNtNtNtCsbqoqex1KQlH_6probar8coverage5tests17memory_view_testss_28test_memory_view_with_offset
FNDA:0,_RNvNtNtNtCsbqoqex1KQlH_6probar8coverage5tests17memory_view_testss_29test_memory_view_read_counter
FNDA:0,_RNvNtNtNtCsbqoqex1KQlH_6probar8coverage5tests23additional_jidoka_testss_24test_jidoka_action_debug
FNDA:0,_RNvNtNtNtCsbqoqex1KQlH_6probar8coverage5tests23additional_jidoka_testss_27test_jidoka_action_equality
FNDA:0,_RNvNtNtNtCsbqoqex1KQlH_6probar8coverage5tests23additional_jidoka_testss_29test_coverage_violation_clone
FNDA:0,_RNvNtNtNtCsbqoqex1KQlH_6probar8coverage5tests23additional_jidoka_testss_29test_coverage_violation_debug
FNDA:0,_RNvNtNtNtCsbqoqex1KQlH_6probar8coverage5tests23additional_jidoka_testss_29test_tainted_blocks_new_empty
FNF:164
FNH:0
DA:28,0
DA:29,0
DA:30,0
DA:31,0
DA:32,0
DA:36,0
DA:37,0
DA:38,0
DA:39,0
DA:43,0
DA:45,0
DA:46,0
DA:47,0
DA:48,0
DA:49,0
DA:50,0
DA:54,0
DA:55,0
DA:56,0
DA:57,0
DA:58,0
DA:66,0
DA:67,0
DA:68,0
DA:71,0
DA:72,0
DA:76,0
DA:78,0
DA:79,0
DA:80,0
DA:81,0
DA:82,0
DA:90,0
DA:91,0
DA:92,0
DA:93,0
DA:95,0
DA:96,0
DA:97,0
DA:101,0
DA:102,0
DA:103,0
DA:104,0
DA:106,0
DA:107,0
DA:108,0
DA:112,0
DA:113,0
DA:114,0
DA:115,0
DA:117,0
DA:118,0
DA:119,0
DA:123,0
DA:125,0
DA:126,0
DA:127,0
DA:128,0
DA:129,0
DA:141,0
DA:142,0
DA:143,0
DA:144,0
DA:145,0
DA:146,0
DA:150,0
DA:151,0
DA:152,0
DA:153,0
DA:154,0
DA:155,0
DA:156,0
DA:160,0
DA:161,0
DA:162,0
DA:163,0
DA:164,0
DA:165,0
DA:169,0
DA:170,0
DA:171,0
DA:172,0
DA:173,0
DA:174,0
DA:175,0
DA:179,0
DA:180,0
DA:181,0
DA:183,0
DA:185,0
DA:186,0
DA:187,0
DA:190,0
DA:191,0
DA:192,0
DA:196,0
DA:197,0
DA:198,0
DA:200,0
DA:201,0
DA:202,0
DA:204,0
DA:205,0
DA:206,0
DA:209,0
DA:210,0
DA:211,0
DA:223,0
DA:224,0
DA:225,0
DA:226,0
DA:228,0
DA:232,0
DA:233,0
DA:234,0
DA:236,0
DA:237,0
DA:238,0
DA:240,0
DA:241,0
DA:245,0
DA:246,0
DA:249,0
DA:250,0
DA:251,0
DA:253,0
DA:254,0
DA:258,0
DA:259,0
DA:260,0
DA:262,0
DA:263,0
DA:265,0
DA:266,0
DA:267,0
DA:268,0
DA:272,0
DA:273,0
DA:275,0
DA:276,0
DA:277,0
DA:278,0
DA:279,0
DA:280,0
DA:282,0
DA:283,0
DA:284,0
DA:285,0
DA:286,0
DA:287,0
DA:288,0
DA:300,0
DA:301,0
DA:302,0
DA:303,0
DA:307,0
DA:308,0
DA:309,0
DA:311,0
DA:312,0
DA:313,0
DA:314,0
DA:318,0
DA:319,0
DA:321,0
DA:322,0
DA:325,0
DA:326,0
DA:327,0
DA:328,0
DA:332,0
DA:333,0
DA:334,0
DA:335,0
DA:337,0
DA:338,0
DA:341,0
DA:342,0
DA:343,0
DA:344,0
DA:348,0
DA:349,0
DA:350,0
DA:351,0
DA:353,0
DA:354,0
DA:358,0
DA:359,0
DA:360,0
DA:362,0
DA:363,0
DA:375,0
DA:377,0
DA:380,0
DA:383,0
DA:385,0
DA:387,0
DA:388,0
DA:389,0
DA:390,0
DA:394,0
DA:395,0
DA:397,0
DA:398,0
DA:399,0
DA:400,0
DA:401,0
DA:403,0
DA:404,0
DA:406,0
DA:407,0
DA:411,0
DA:412,0
DA:415,0
DA:417,0
DA:418,0
DA:419,0
DA:423,0
DA:424,0
DA:425,0
DA:426,0
DA:427,0
DA:439,0
DA:440,0
DA:441,0
DA:442,0
DA:443,0
DA:444,0
DA:446,0
DA:447,0
DA:448,0
DA:449,0
DA:453,0
DA:454,0
DA:456,0
DA:457,0
DA:458,0
DA:459,0
DA:463,0
DA:464,0
DA:465,0
DA:467,0
DA:469,0
DA:470,0
DA:472,0
DA:473,0
DA:474,0
DA:478,0
DA:479,0
DA:480,0
DA:482,0
DA:483,0
DA:485,0
DA:486,0
DA:488,0
DA:489,0
DA:491,0
DA:492,0
DA:496,0
DA:497,0
DA:498,0
DA:500,0
DA:501,0
DA:503,0
DA:504,0
DA:505,0
DA:507,0
DA:508,0
DA:510,0
DA:511,0
DA:512,0
DA:524,0
DA:525,0
DA:527,0
DA:528,0
DA:529,0
DA:530,0
DA:531,0
DA:533,0
DA:534,0
DA:535,0
DA:536,0
DA:537,0
DA:541,0
DA:542,0
DA:543,0
DA:545,0
DA:546,0
DA:548,0
DA:549,0
DA:553,0
DA:554,0
DA:556,0
DA:557,0
DA:558,0
DA:559,0
DA:561,0
DA:562,0
DA:563,0
DA:564,0
DA:568,0
DA:569,0
DA:571,0
DA:572,0
DA:574,0
DA:575,0
DA:576,0
DA:577,0
DA:578,0
DA:579,0
DA:583,0
DA:584,0
DA:585,0
DA:586,0
DA:587,0
DA:588,0
DA:589,0
DA:591,0
DA:593,0
DA:595,0
DA:596,0
DA:608,0
DA:609,0
DA:610,0
DA:613,0
DA:614,0
DA:617,0
DA:618,0
DA:619,0
DA:623,0
DA:624,0
DA:625,0
DA:628,0
DA:629,0
DA:632,0
DA:633,0
DA:634,0
DA:638,0
DA:639,0
DA:640,0
DA:641,0
DA:644,0
DA:645,0
DA:648,0
DA:649,0
DA:650,0
DA:654,0
DA:655,0
DA:656,0
DA:657,0
DA:658,0
DA:662,0
DA:663,0
DA:664,0
DA:665,0
DA:666,0
DA:667,0
DA:668,0
DA:669,0
DA:671,0
DA:672,0
DA:673,0
DA:685,0
DA:686,0
DA:687,0
DA:688,0
DA:690,0
DA:691,0
DA:692,0
DA:696,0
DA:697,0
DA:698,0
DA:699,0
DA:701,0
DA:702,0
DA:706,0
DA:707,0
DA:708,0
DA:709,0
DA:712,0
DA:713,0
DA:717,0
DA:718,0
DA:719,0
DA:720,0
DA:721,0
DA:723,0
DA:725,0
DA:726,0
DA:728,0
DA:729,0
DA:731,0
DA:732,0
DA:733,0
DA:734,0
DA:738,0
DA:739,0
DA:740,0
DA:741,0
DA:742,0
DA:744,0
DA:746,0
DA:748,0
DA:749,0
DA:750,0
DA:751,0
DA:752,0
DA:753,0
DA:755,0
DA:756,0
DA:757,0
DA:758,0
DA:759,0
DA:761,0
DA:763,0
DA:764,0
DA:765,0
DA:766,0
DA:770,0
DA:771,0
DA:773,0
DA:774,0
DA:776,0
DA:777,0
DA:779,0
DA:780,0
DA:782,0
DA:783,0
DA:784,0
DA:788,0
DA:789,0
DA:790,0
DA:791,0
DA:792,0
DA:793,0
DA:795,0
DA:796,0
DA:797,0
DA:798,0
DA:802,0
DA:803,0
DA:804,0
DA:805,0
DA:806,0
DA:807,0
DA:809,0
DA:810,0
DA:811,0
DA:823,0
DA:824,0
DA:825,0
DA:826,0
DA:827,0
DA:828,0
DA:832,0
DA:833,0
DA:834,0
DA:835,0
DA:836,0
DA:837,0
DA:841,0
DA:842,0
DA:843,0
DA:844,0
DA:845,0
DA:846,0
DA:850,0
DA:851,0
DA:852,0
DA:853,0
DA:854,0
DA:858,0
DA:859,0
DA:860,0
DA:861,0
DA:862,0
DA:866,0
DA:867,0
DA:868,0
DA:869,0
DA:870,0
DA:874,0
DA:875,0
DA:876,0
DA:878,0
DA:879,0
DA:887,0
DA:888,0
DA:889,0
DA:890,0
DA:891,0
DA:892,0
DA:896,0
DA:897,0
DA:898,0
DA:899,0
DA:900,0
DA:904,0
DA:905,0
DA:906,0
DA:907,0
DA:908,0
DA:912,0
DA:913,0
DA:914,0
DA:915,0
DA:916,0
DA:917,0
DA:918,0
DA:922,0
DA:923,0
DA:924,0
DA:925,0
DA:926,0
DA:927,0
DA:928,0
DA:936,0
DA:937,0
DA:938,0
DA:939,0
DA:940,0
DA:944,0
DA:945,0
DA:946,0
DA:947,0
DA:948,0
DA:952,0
DA:953,0
DA:954,0
DA:956,0
DA:957,0
DA:958,0
DA:962,0
DA:963,0
DA:964,0
DA:965,0
DA:966,0
DA:967,0
DA:971,0
DA:973,0
DA:974,0
DA:975,0
DA:976,0
DA:977,0
DA:978,0
DA:982,0
DA:983,0
DA:984,0
DA:985,0
DA:986,0
DA:990,0
DA:991,0
DA:992,0
DA:993,0
DA:995,0
DA:996,0
DA:1004,0
DA:1005,0
DA:1006,0
DA:1007,0
DA:1008,0
DA:1009,0
DA:1010,0
DA:1014,0
DA:1015,0
DA:1016,0
DA:1017,0
DA:1018,0
DA:1019,0
DA:1027,0
DA:1028,0
DA:1029,0
DA:1032,0
DA:1033,0
DA:1034,0
DA:1038,0
DA:1039,0
DA:1040,0
DA:1041,0
DA:1042,0
DA:1043,0
DA:1047,0
DA:1048,0
DA:1049,0
DA:1050,0
DA:1051,0
DA:1055,0
DA:1056,0
DA:1057,0
DA:1058,0
DA:1059,0
DA:1063,0
DA:1064,0
DA:1065,0
DA:1066,0
DA:1067,0
DA:1068,0
DA:1069,0
DA:1070,0
DA:1072,0
DA:1073,0
DA:1074,0
DA:1075,0
DA:1076,0
DA:1080,0
DA:1081,0
DA:1082,0
DA:1083,0
DA:1084,0
DA:1085,0
DA:1086,0
DA:1087,0
DA:1088,0
DA:1090,0
DA:1091,0
DA:1092,0
DA:1093,0
DA:1094,0
DA:1095,0
DA:1096,0
DA:1097,0
DA:1098,0
DA:1102,0
DA:1103,0
DA:1104,0
DA:1105,0
DA:1106,0
DA:1107,0
DA:1115,0
DA:1116,0
DA:1117,0
DA:1118,0
DA:1120,0
DA:1121,0
DA:1122,0
DA:1123,0
DA:1127,0
DA:1128,0
DA:1129,0
DA:1130,0
DA:1131,0
DA:1135,0
DA:1136,0
DA:1137,0
DA:1138,0
DA:1139,0
DA:1143,0
DA:1144,0
DA:1145,0
DA:1148,0
DA:1149,0
DA:1150,0
DA:1154,0
DA:1155,0
DA:1156,0
DA:1158,0
DA:1160,0
DA:1161,0
DA:1162,0
DA:1170,0
DA:1171,0
DA:1172,0
DA:1173,0
DA:1174,0
DA:1178,0
DA:1179,0
DA:1180,0
DA:1181,0
DA:1182,0
DA:1183,0
DA:1187,0
DA:1188,0
DA:1189,0
DA:1190,0
DA:1192,0
DA:1193,0
DA:1194,0
DA:1195,0
DA:1196,0
DA:1200,0
DA:1201,0
DA:1202,0
DA:1203,0
DA:1205,0
DA:1206,0
DA:1207,0
DA:1209,0
DA:1211,0
DA:1212,0
DA:1213,0
DA:1217,0
DA:1218,0
DA:1219,0
DA:1220,0
DA:1221,0
DA:1222,0
DA:1223,0
DA:1225,0
DA:1226,0
DA:1227,0
DA:1228,0
DA:1236,0
DA:1237,0
DA:1238,0
DA:1239,0
DA:1240,0
DA:1244,0
DA:1245,0
DA:1247,0
DA:1248,0
DA:1252,0
DA:1253,0
DA:1255,0
DA:1256,0
DA:1257,0
DA:1265,0
DA:1266,0
DA:1267,0
DA:1268,0
DA:1269,0
DA:1270,0
DA:1274,0
DA:1275,0
DA:1276,0
DA:1277,0
DA:1278,0
DA:1279,0
DA:1283,0
DA:1284,0
DA:1285,0
DA:1286,0
DA:1287,0
DA:1288,0
DA:1289,0
DA:1293,0
DA:1294,0
DA:1295,0
DA:1296,0
DA:1297,0
DA:1298,0
DA:1299,0
DA:1303,0
DA:1304,0
DA:1305,0
DA:1306,0
DA:1307,0
DA:1308,0
DA:1309,0
DA:1310,0
DA:1314,0
DA:1315,0
DA:1316,0
DA:1317,0
DA:1318,0
DA:1319,0
DA:1320,0
DA:1321,0
DA:1325,0
DA:1326,0
DA:1327,0
DA:1328,0
DA:1329,0
DA:1330,0
DA:1331,0
DA:1332,0
DA:1333,0
DA:1334,0
DA:1338,0
DA:1339,0
DA:1340,0
DA:1341,0
DA:1342,0
DA:1343,0
DA:1344,0
DA:1345,0
DA:1346,0
DA:1347,0
DA:1351,0
DA:1352,0
DA:1353,0
DA:1354,0
DA:1355,0
DA:1356,0
DA:1357,0
DA:1359,0
DA:1360,0
DA:1361,0
DA:1362,0
DA:1363,0
DA:1366,0
DA:1367,0
DA:1368,0
DA:1372,0
DA:1373,0
DA:1374,0
DA:1375,0
DA:1376,0
DA:1377,0
DA:1378,0
DA:1380,0
DA:1381,0
DA:1382,0
DA:1383,0
DA:1384,0
DA:1386,0
DA:1387,0
DA:1388,0
DA:1389,0
DA:1390,0
DA:1393,0
DA:1394,0
DA:1395,0
DA:1399,0
DA:1400,0
DA:1401,0
DA:1402,0
DA:1403,0
DA:1404,0
DA:1405,0
DA:1408,0
DA:1410,0
DA:1411,0
DA:1412,0
DA:1413,0
DA:1417,0
DA:1418,0
DA:1419,0
DA:1420,0
DA:1421,0
DA:1423,0
DA:1424,0
DA:1425,0
DA:1429,0
DA:1430,0
DA:1431,0
DA:1432,0
DA:1433,0
DA:1434,0
DA:1436,0
DA:1437,0
DA:1438,0
DA:1442,0
DA:1443,0
DA:1444,0
DA:1445,0
DA:1446,0
DA:1447,0
DA:1448,0
DA:1451,0
DA:1452,0
DA:1453,0
DA:1461,0
DA:1462,0
DA:1465,0
DA:1467,0
DA:1468,0
DA:1469,0
DA:1473,0
DA:1474,0
DA:1476,0
DA:1477,0
DA:1478,0
DA:1479,0
DA:1481,0
DA:1482,0
DA:1484,0
DA:1485,0
DA:1487,0
DA:1495,0
DA:1496,0
DA:1497,0
DA:1499,0
DA:1500,0
DA:1504,0
DA:1505,0
DA:1506,0
DA:1507,0
DA:1509,0
DA:1510,0
DA:1511,0
DA:1515,0
DA:1516,0
DA:1517,0
DA:1519,0
DA:1520,0
DA:1524,0
DA:1525,0
DA:1526,0
DA:1527,0
DA:1528,0
DA:1530,0
DA:1531,0
DA:1535,0
DA:1536,0
DA:1537,0
DA:1539,0
DA:1540,0
DA:1541,0
DA:1542,0
DA:1544,0
DA:1548,0
DA:1549,0
DA:1550,0
DA:1552,0
DA:1553,0
DA:1554,0
DA:1558,0
DA:1559,0
DA:1560,0
DA:1562,0
DA:1563,0
DA:1564,0
DA:1568,0
DA:1569,0
DA:1570,0
DA:1571,0
DA:1572,0
DA:1574,0
DA:1575,0
DA:1579,0
DA:1580,0
DA:1581,0
DA:1582,0
DA:1586,0
DA:1587,0
DA:1588,0
DA:1589,0
DA:1591,0
DA:1592,0
DA:1593,0
DA:1594,0
DA:1595,0
DA:1596,0
DA:1600,0
DA:1601,0
DA:1602,0
DA:1603,0
DA:1604,0
DA:1606,0
DA:1607,0
DA:1608,0
DA:1612,0
DA:1613,0
DA:1614,0
DA:1615,0
DA:1616,0
DA:1618,0
DA:1619,0
DA:1623,0
DA:1624,0
DA:1625,0
DA:1626,0
DA:1630,0
DA:1631,0
DA:1632,0
DA:1634,0
DA:1635,0
DA:1637,0
DA:1639,0
DA:1640,0
DA:1641,0
DA:1642,0
DA:1646,0
DA:1647,0
DA:1648,0
DA:1650,0
DA:1651,0
DA:1653,0
DA:1655,0
DA:1656,0
DA:1664,0
DA:1665,0
DA:1666,0
DA:1668,0
DA:1669,0
DA:1670,0
DA:1674,0
DA:1675,0
DA:1676,0
DA:1678,0
DA:1679,0
DA:1683,0
DA:1684,0
DA:1685,0
DA:1686,0
DA:1690,0
DA:1691,0
DA:1693,0
DA:1694,0
DA:1695,0
DA:1698,0
DA:1699,0
DA:1700,0
DA:1701,0
DA:1702,0
DA:1706,0
DA:1707,0
DA:1708,0
DA:1709,0
DA:1711,0
DA:1712,0
DA:1713,0
DA:1721,0
DA:1722,0
DA:1723,0
DA:1724,0
DA:1726,0
DA:1727,0
DA:1731,0
DA:1732,0
DA:1733,0
DA:1734,0
DA:1735,0
DA:1739,0
DA:1740,0
DA:1741,0
DA:1742,0
DA:1743,0
DA:1747,0
DA:1748,0
DA:1750,0
DA:1751,0
DA:1755,0
DA:1756,0
DA:1758,0
DA:1759,0
DA:1763,0
DA:1764,0
DA:1766,0
DA:1767,0
DA:1771,0
DA:1772,0
DA:1773,0
DA:1775,0
DA:1776,0
DA:1777,0
DA:1778,0
DA:1779,0
DA:1780,0
DA:1784,0
DA:1785,0
DA:1786,0
DA:1788,0
DA:1789,0
DA:1790,0
DA:1791,0
DA:1792,0
DA:1793,0
DA:1794,0
DA:1798,0
DA:1799,0
DA:1800,0
DA:1802,0
DA:1803,0
DA:1804,0
DA:1805,0
DA:1806,0
DA:1807,0
DA:1808,0
DA:1812,0
DA:1813,0
DA:1814,0
DA:1815,0
DA:1816,0
DA:1818,0
DA:1820,0
DA:1821,0
DA:1822,0
DA:1826,0
DA:1827,0
DA:1828,0
DA:1830,0
DA:1831,0
DA:1832,0
DA:1833,0
DA:1835,0
DA:1836,0
DA:1837,0
DA:1841,0
DA:1842,0
DA:1843,0
DA:1845,0
DA:1846,0
DA:1847,0
DA:1848,0
DA:1850,0
DA:1852,0
DA:1853,0
DA:1857,0
DA:1858,0
DA:1859,0
DA:1860,0
DA:1861,0
DA:1865,0
DA:1866,0
DA:1868,0
DA:1869,0
DA:1870,0
DA:1871,0
DA:1872,0
DA:1873,0
DA:1881,0
DA:1882,0
DA:1883,0
DA:1884,0
DA:1885,0
DA:1889,0
DA:1890,0
DA:1891,0
DA:1892,0
DA:1893,0
DA:1897,0
DA:1898,0
DA:1900,0
DA:1902,0
DA:1903,0
DA:1904,0
DA:1905,0
DA:1906,0
DA:1910,0
DA:1911,0
DA:1913,0
DA:1914,0
DA:1915,0
DA:1917,0
DA:1918,0
DA:1919,0
DA:1923,0
DA:1924,0
DA:1926,0
DA:1927,0
DA:1928,0
DA:1929,0
DA:1931,0
DA:1932,0
DA:1933,0
DA:1937,0
DA:1938,0
DA:1939,0
DA:1940,0
DA:1941,0
DA:1945,0
DA:1946,0
DA:1947,0
DA:1950,0
DA:1951,0
DA:1955,0
DA:1956,0
DA:1957,0
DA:1960,0
DA:1961,0
DA:1969,0
DA:1970,0
DA:1971,0
DA:1972,0
DA:1974,0
DA:1977,0
DA:1978,0
DA:1980,0
DA:1981,0
DA:1982,0
DA:1986,0
DA:1987,0
DA:1990,0
DA:1991,0
DA:1992,0
DA:1996,0
DA:1997,0
DA:1998,0
DA:1999,0
DA:2003,0
DA:2004,0
DA:2005,0
DA:2007,0
DA:2008,0
DA:2010,0
DA:2011,0
DA:2012,0
DA:2016,0
DA:2017,0
DA:2018,0
DA:2019,0
DA:2023,0
DA:2024,0
DA:2027,0
DA:2028,0
DA:2029,0
DA:2032,0
DA:2033,0
DA:2045,0
DA:2047,0
DA:2048,0
DA:2049,0
DA:2050,0
DA:2051,0
DA:2054,0
DA:2057,0
DA:2058,0
DA:2059,0
DA:2060,0
DA:2061,0
DA:2064,0
DA:2065,0
DA:2066,0
DA:2067,0
DA:2070,0
DA:2071,0
DA:2074,0
DA:2075,0
DA:2076,0
DA:2077,0
DA:2081,0
DA:2082,0
DA:2083,0
DA:2085,0
DA:2086,0
DA:2089,0
DA:2090,0
DA:2091,0
DA:2092,0
DA:2094,0
DA:2095,0
DA:2098,0
DA:2099,0
BRF:0
BRH:0
LF:1225
LH:0
end_of_record
SF:/home/noah/src/probar/crates/probar/src/coverage/thread_local.rs
FN:58,_RNvMNtNtCsbqoqex1KQlH_6probar8coverage12thread_localNtB2_19ThreadLocalCounters9increment
FN:107,_RNvMNtNtCsbqoqex1KQlH_6probar8coverage12thread_localNtB2_19ThreadLocalCounters11block_count
FN:101,_RNvMNtNtCsbqoqex1KQlH_6probar8coverage12thread_localNtB2_19ThreadLocalCounters11flush_count
FN:113,_RNvMNtNtCsbqoqex1KQlH_6probar8coverage12thread_localNtB2_19ThreadLocalCounters11has_pending
FN:92,_RNvMNtNtCsbqoqex1KQlH_6probar8coverage12thread_localNtB2_19ThreadLocalCounters14internal_flush
FN:119,_RNvMNtNtCsbqoqex1KQlH_6probar8coverage12thread_localNtB2_19ThreadLocalCounters15flush_threshold
FN:45,_RNvMNtNtCsbqoqex1KQlH_6probar8coverage12thread_localNtB2_19ThreadLocalCounters20with_flush_threshold
FN:74,_RNvMNtNtCsbqoqex1KQlH_6probar8coverage12thread_localNtB2_19ThreadLocalCounters3getB6_
FN:31,_RNvMNtNtCsbqoqex1KQlH_6probar8coverage12thread_localNtB2_19ThreadLocalCounters3new
FN:83,_RNvMNtNtCsbqoqex1KQlH_6probar8coverage12thread_localNtB2_19ThreadLocalCounters5flush
FN:125,_RNvXs_NtNtCsbqoqex1KQlH_6probar8coverage12thread_localNtB4_19ThreadLocalCountersNtNtCs6RpC691fUBl_4core7default7Default7default
FN:74,_RNvMNtNtCs4eUmXem5O3q_6probar8coverage12thread_localNtB2_19ThreadLocalCounters3getB6_
FN:107,_RNvMNtNtCs4eUmXem5O3q_6probar8coverage12thread_localNtB2_19ThreadLocalCounters11block_count
FN:101,_RNvMNtNtCs4eUmXem5O3q_6probar8coverage12thread_localNtB2_19ThreadLocalCounters11flush_count
FN:113,_RNvMNtNtCs4eUmXem5O3q_6probar8coverage12thread_localNtB2_19ThreadLocalCounters11has_pending
FN:92,_RNvMNtNtCs4eUmXem5O3q_6probar8coverage12thread_localNtB2_19ThreadLocalCounters14internal_flush
FN:119,_RNvMNtNtCs4eUmXem5O3q_6probar8coverage12thread_localNtB2_19ThreadLocalCounters15flush_threshold
FN:45,_RNvMNtNtCs4eUmXem5O3q_6probar8coverage12thread_localNtB2_19ThreadLocalCounters20with_flush_threshold
FN:31,_RNvMNtNtCs4eUmXem5O3q_6probar8coverage12thread_localNtB2_19ThreadLocalCounters3new
FN:83,_RNvMNtNtCs4eUmXem5O3q_6probar8coverage12thread_localNtB2_19ThreadLocalCounters5flush
FN:125,_RNvXs_NtNtCs4eUmXem5O3q_6probar8coverage12thread_localNtB4_19ThreadLocalCountersNtNtCs6RpC691fUBl_4core7default7Default7default
FNDA:0,_RNvMNtNtCsbqoqex1KQlH_6probar8coverage12thread_localNtB2_19ThreadLocalCounters9increment
FNDA:0,_RNvMNtNtCsbqoqex1KQlH_6probar8coverage12thread_localNtB2_19ThreadLocalCounters11block_count
FNDA:0,_RNvMNtNtCsbqoqex1KQlH_6probar8coverage12thread_localNtB2_19ThreadLocalCounters11flush_count
FNDA:0,_RNvMNtNtCsbqoqex1KQlH_6probar8coverage12thread_localNtB2_19ThreadLocalCounters11has_pending
FNDA:0,_RNvMNtNtCsbqoqex1KQlH_6probar8coverage12thread_localNtB2_19ThreadLocalCounters14internal_flush
FNDA:0,_RNvMNtNtCsbqoqex1KQlH_6probar8coverage12thread_localNtB2_19ThreadLocalCounters15flush_threshold
FNDA:0,_RNvMNtNtCsbqoqex1KQlH_6probar8coverage12thread_localNtB2_19ThreadLocalCounters20with_flush_threshold
FNDA:0,_RNvMNtNtCsbqoqex1KQlH_6probar8coverage12thread_localNtB2_19ThreadLocalCounters3getB6_
FNDA:0,_RNvMNtNtCsbqoqex1KQlH_6probar8coverage12thread_localNtB2_19ThreadLocalCounters3new
FNDA:0,_RNvMNtNtCsbqoqex1KQlH_6probar8coverage12thread_localNtB2_19ThreadLocalCounters5flush
FNDA:0,_RNvXs_NtNtCsbqoqex1KQlH_6probar8coverage12thread_localNtB4_19ThreadLocalCountersNtNtCs6RpC691fUBl_4core7default7Default7default
FNDA:0,_RNvMNtNtCs4eUmXem5O3q_6probar8coverage12thread_localNtB2_19ThreadLocalCounters3getB6_
FNDA:0,_RNvMNtNtCs4eUmXem5O3q_6probar8coverage12thread_localNtB2_19ThreadLocalCounters11block_count
FNDA:0,_RNvMNtNtCs4eUmXem5O3q_6probar8coverage12thread_localNtB2_19ThreadLocalCounters11flush_count
FNDA:0,_RNvMNtNtCs4eUmXem5O3q_6probar8coverage12thread_localNtB2_19ThreadLocalCounters11has_pending
FNDA:0,_RNvMNtNtCs4eUmXem5O3q_6probar8coverage12thread_localNtB2_19ThreadLocalCounters14internal_flush
FNDA:0,_RNvMNtNtCs4eUmXem5O3q_6probar8coverage12thread_localNtB2_19ThreadLocalCounters15flush_threshold
FNDA:0,_RNvMNtNtCs4eUmXem5O3q_6probar8coverage12thread_localNtB2_19ThreadLocalCounters20with_flush_threshold
FNDA:0,_RNvMNtNtCs4eUmXem5O3q_6probar8coverage12thread_localNtB2_19ThreadLocalCounters3new
FNDA:0,_RNvMNtNtCs4eUmXem5O3q_6probar8coverage12thread_localNtB2_19ThreadLocalCounters5flush
FNDA:0,_RNvXs_NtNtCs4eUmXem5O3q_6probar8coverage12thread_localNtB4_19ThreadLocalCountersNtNtCs6RpC691fUBl_4core7default7Default7default
FNF:11
FNH:0
DA:31,0
DA:32,0
DA:33,0
DA:34,0
DA:35,0
DA:36,0
DA:37,0
DA:38,0
DA:45,0
DA:46,0
DA:47,0
DA:48,0
DA:49,0
DA:50,0
DA:51,0
DA:52,0
DA:58,0
DA:59,0
DA:60,0
DA:61,0
DA:62,0
DA:65,0
DA:66,0
DA:67,0
DA:68,0
DA:69,0
DA:74,0
DA:75,0
DA:76,0
DA:77,0
DA:83,0
DA:84,0
DA:85,0
DA:86,0
DA:87,0
DA:88,0
DA:89,0
DA:92,0
DA:95,0
DA:96,0
DA:97,0
DA:101,0
DA:102,0
DA:103,0
DA:107,0
DA:108,0
DA:109,0
DA:113,0
DA:114,0
DA:115,0
DA:119,0
DA:120,0
DA:121,0
DA:125,0
DA:126,0
DA:127,0
BRF:0
BRH:0
LF:56
LH:0
end_of_record
SF:/home/noah/src/probar/crates/probar/src/driver.rs
FN:695,_RNCNvNtNtNtCsbqoqex1KQlH_6probar6driver5tests22network_response_testss_18test_json_response0B9_
FN:257,_RNvMs2_NtCsbqoqex1KQlH_6probar6driverNtB5_12DriverConfig18navigation_timeout
FN:441,_RNvMs4_NtCsbqoqex1KQlH_6probar6driverNtB5_10MockDriver13set_js_result
FN:446,_RNvMs4_NtCsbqoqex1KQlH_6probar6driverNtB5_10MockDriver14set_screenshot
FN:689,_RNvNtNtNtCsbqoqex1KQlH_6probar6driver5tests22network_response_testss_18test_json_response
FN:699,_RNvNtNtNtCsbqoqex1KQlH_6probar6driver5tests22network_response_testss_23test_not_found_response
FN:783,_RNvNtNtNtCsbqoqex1KQlH_6probar6driver5tests17mock_driver_testss_24test_mock_driver_history
FN:769,_RNvNtNtNtCsbqoqex1KQlH_6probar6driver5tests17mock_driver_testss_25test_mock_driver_creation
FN:789,_RNvNtNtNtCsbqoqex1KQlH_6probar6driver5tests17mock_driver_testss_27test_mock_driver_was_called
FN:776,_RNvNtNtNtCsbqoqex1KQlH_6probar6driver5tests17mock_driver_testss_28test_mock_driver_add_element
FN:68,_RNvMNtCsbqoqex1KQlH_6probar6driverNtB2_13ElementHandle10is_visible
FN:171,_RNvMs0_NtCsbqoqex1KQlH_6probar6driverNtB5_15NetworkResponse9not_found
FN:243,_RNvMs2_NtCsbqoqex1KQlH_6probar6driverNtB5_12DriverConfig12scale_factor
FN:264,_RNvMs2_NtCsbqoqex1KQlH_6probar6driverNtB5_12DriverConfig12with_tracing
FN:222,_RNvMs2_NtCsbqoqex1KQlH_6probar6driverNtB5_12DriverConfig3new
FN:228,_RNvMs2_NtCsbqoqex1KQlH_6probar6driverNtB5_12DriverConfig8headless
FN:235,_RNvMs2_NtCsbqoqex1KQlH_6probar6driverNtB5_12DriverConfig8viewport
FN:336,_RNvMs3_NtCsbqoqex1KQlH_6probar6driverNtB5_16DeviceDescriptor9to_config
FN:458,_RNvMs4_NtCsbqoqex1KQlH_6probar6driverNtB5_10MockDriver10was_called
FN:436,_RNvMs4_NtCsbqoqex1KQlH_6probar6driverNtB5_10MockDriver11add_element
FN:431,_RNvMs4_NtCsbqoqex1KQlH_6probar6driverNtB5_10MockDriver3new
FN:452,_RNvMs4_NtCsbqoqex1KQlH_6probar6driverNtB5_10MockDriver7history
FN:124,_RNvMs_NtCsbqoqex1KQlH_6probar6driverNtB4_10Screenshot10size_bytes
FN:112,_RNvMs_NtCsbqoqex1KQlH_6probar6driverNtB4_10Screenshot3new
FN:130,_RNvMs_NtCsbqoqex1KQlH_6probar6driverNtB4_10Screenshot8is_valid
FN:204,_RNvXs1_NtCsbqoqex1KQlH_6probar6driverNtB5_12DriverConfigNtNtCs6RpC691fUBl_4core7default7Default7default
FN:799,_RNvNtNtNtCsbqoqex1KQlH_6probar6driver5tests18page_metrics_testss_20test_metrics_default
FN:637,_RNvNtNtNtCsbqoqex1KQlH_6probar6driver5tests20element_handle_testss_28test_element_handle_creation
FN:645,_RNvNtNtNtCsbqoqex1KQlH_6probar6driver5tests20element_handle_testss_30test_element_handle_visibility
FN:750,_RNvNtNtNtCsbqoqex1KQlH_6probar6driver5tests23device_descriptor_testss_18test_desktop_1080p
FN:742,_RNvNtNtNtCsbqoqex1KQlH_6probar6driver5tests23device_descriptor_testss_18test_iphone_14_pro
FN:758,_RNvNtNtNtCsbqoqex1KQlH_6probar6driver5tests23device_descriptor_testss_21test_device_to_config
FN:717,_RNvNtNtNtCsbqoqex1KQlH_6probar6driver5tests19driver_config_testss_19test_config_builder
FN:709,_RNvNtNtNtCsbqoqex1KQlH_6probar6driver5tests19driver_config_testss_19test_config_default
FN:732,_RNvNtNtNtCsbqoqex1KQlH_6probar6driver5tests19driver_config_testss_24test_config_with_tracing
FN:57,_RINvMNtCsbqoqex1KQlH_6probar6driverNtB3_13ElementHandle3newReBV_EB5_
FN:160,_RINvMs0_NtCsbqoqex1KQlH_6probar6driverNtB6_15NetworkResponse4jsonNtNtCs900J7ylOFVM_10serde_json5value5ValueEB8_
FN:250,_RINvMs2_NtCsbqoqex1KQlH_6probar6driverNtB6_12DriverConfig10user_agentReEB8_
FN:459,_RNCNvMs4_NtCsbqoqex1KQlH_6probar6driverNtB7_10MockDriver10was_called0B9_
FN:658,_RNvNtNtNtCsbqoqex1KQlH_6probar6driver5tests16screenshot_testss_24test_screenshot_creation
FN:673,_RNvNtNtNtCsbqoqex1KQlH_6probar6driver5tests16screenshot_testss_24test_screenshot_is_valid
FN:667,_RNvNtNtNtCsbqoqex1KQlH_6probar6driver5tests16screenshot_testss_26test_screenshot_size_bytes
FN:57,_RINvMNtCs4eUmXem5O3q_6probar6driverNtB3_13ElementHandle3newppEB5_
FN:160,_RINvMs0_NtCs4eUmXem5O3q_6probar6driverNtB6_15NetworkResponse4jsonpEB8_
FN:250,_RINvMs2_NtCs4eUmXem5O3q_6probar6driverNtB6_12DriverConfig10user_agentReEB8_
FN:459,_RNCNvMs4_NtCs4eUmXem5O3q_6probar6driverNtB7_10MockDriver10was_called0B9_
FNDA:0,_RNCNvNtNtNtCsbqoqex1KQlH_6probar6driver5tests22network_response_testss_18test_json_response0B9_
FNDA:0,_RNvMs2_NtCsbqoqex1KQlH_6probar6driverNtB5_12DriverConfig18navigation_timeout
FNDA:0,_RNvMs4_NtCsbqoqex1KQlH_6probar6driverNtB5_10MockDriver13set_js_result
FNDA:0,_RNvMs4_NtCsbqoqex1KQlH_6probar6driverNtB5_10MockDriver14set_screenshot
FNDA:0,_RNvNtNtNtCsbqoqex1KQlH_6probar6driver5tests22network_response_testss_18test_json_response
FNDA:0,_RNvNtNtNtCsbqoqex1KQlH_6probar6driver5tests22network_response_testss_23test_not_found_response
FNDA:0,_RNvNtNtNtCsbqoqex1KQlH_6probar6driver5tests17mock_driver_testss_24test_mock_driver_history
FNDA:0,_RNvNtNtNtCsbqoqex1KQlH_6probar6driver5tests17mock_driver_testss_25test_mock_driver_creation
FNDA:0,_RNvNtNtNtCsbqoqex1KQlH_6probar6driver5tests17mock_driver_testss_27test_mock_driver_was_called
FNDA:0,_RNvNtNtNtCsbqoqex1KQlH_6probar6driver5tests17mock_driver_testss_28test_mock_driver_add_element
FNDA:0,_RNvMNtCsbqoqex1KQlH_6probar6driverNtB2_13ElementHandle10is_visible
FNDA:0,_RNvMs0_NtCsbqoqex1KQlH_6probar6driverNtB5_15NetworkResponse9not_found
FNDA:0,_RNvMs2_NtCsbqoqex1KQlH_6probar6driverNtB5_12DriverConfig12scale_factor
FNDA:0,_RNvMs2_NtCsbqoqex1KQlH_6probar6driverNtB5_12DriverConfig12with_tracing
FNDA:0,_RNvMs2_NtCsbqoqex1KQlH_6probar6driverNtB5_12DriverConfig3new
FNDA:0,_RNvMs2_NtCsbqoqex1KQlH_6probar6driverNtB5_12DriverConfig8headless
FNDA:0,_RNvMs2_NtCsbqoqex1KQlH_6probar6driverNtB5_12DriverConfig8viewport
FNDA:0,_RNvMs3_NtCsbqoqex1KQlH_6probar6driverNtB5_16DeviceDescriptor9to_config
FNDA:0,_RNvMs4_NtCsbqoqex1KQlH_6probar6driverNtB5_10MockDriver10was_called
FNDA:0,_RNvMs4_NtCsbqoqex1KQlH_6probar6driverNtB5_10MockDriver11add_element
FNDA:0,_RNvMs4_NtCsbqoqex1KQlH_6probar6driverNtB5_10MockDriver3new
FNDA:0,_RNvMs4_NtCsbqoqex1KQlH_6probar6driverNtB5_10MockDriver7history
FNDA:0,_RNvMs_NtCsbqoqex1KQlH_6probar6driverNtB4_10Screenshot10size_bytes
FNDA:0,_RNvMs_NtCsbqoqex1KQlH_6probar6driverNtB4_10Screenshot3new
FNDA:0,_RNvMs_NtCsbqoqex1KQlH_6probar6driverNtB4_10Screenshot8is_valid
FNDA:0,_RNvXs1_NtCsbqoqex1KQlH_6probar6driverNtB5_12DriverConfigNtNtCs6RpC691fUBl_4core7default7Default7default
FNDA:0,_RNvNtNtNtCsbqoqex1KQlH_6probar6driver5tests18page_metrics_testss_20test_metrics_default
FNDA:0,_RNvNtNtNtCsbqoqex1KQlH_6probar6driver5tests20element_handle_testss_28test_element_handle_creation
FNDA:0,_RNvNtNtNtCsbqoqex1KQlH_6probar6driver5tests20element_handle_testss_30test_element_handle_visibility
FNDA:0,_RNvNtNtNtCsbqoqex1KQlH_6probar6driver5tests23device_descriptor_testss_18test_desktop_1080p
FNDA:0,_RNvNtNtNtCsbqoqex1KQlH_6probar6driver5tests23device_descriptor_testss_18test_iphone_14_pro
FNDA:0,_RNvNtNtNtCsbqoqex1KQlH_6probar6driver5tests23device_descriptor_testss_21test_device_to_config
FNDA:0,_RNvNtNtNtCsbqoqex1KQlH_6probar6driver5tests19driver_config_testss_19test_config_builder
FNDA:0,_RNvNtNtNtCsbqoqex1KQlH_6probar6driver5tests19driver_config_testss_19test_config_default
FNDA:0,_RNvNtNtNtCsbqoqex1KQlH_6probar6driver5tests19driver_config_testss_24test_config_with_tracing
FNDA:0,_RINvMNtCsbqoqex1KQlH_6probar6driverNtB3_13ElementHandle3newReBV_EB5_
FNDA:0,_RINvMs0_NtCsbqoqex1KQlH_6probar6driverNtB6_15NetworkResponse4jsonNtNtCs900J7ylOFVM_10serde_json5value5ValueEB8_
FNDA:0,_RINvMs2_NtCsbqoqex1KQlH_6probar6driverNtB6_12DriverConfig10user_agentReEB8_
FNDA:0,_RNCNvMs4_NtCsbqoqex1KQlH_6probar6driverNtB7_10MockDriver10was_called0B9_
FNDA:0,_RNvNtNtNtCsbqoqex1KQlH_6probar6driver5tests16screenshot_testss_24test_screenshot_creation
FNDA:0,_RNvNtNtNtCsbqoqex1KQlH_6probar6driver5tests16screenshot_testss_24test_screenshot_is_valid
FNDA:0,_RNvNtNtNtCsbqoqex1KQlH_6probar6driver5tests16screenshot_testss_26test_screenshot_size_bytes
FNDA:0,_RINvMNtCs4eUmXem5O3q_6probar6driverNtB3_13ElementHandle3newppEB5_
FNDA:0,_RINvMs0_NtCs4eUmXem5O3q_6probar6driverNtB6_15NetworkResponse4jsonpEB8_
FNDA:0,_RINvMs2_NtCs4eUmXem5O3q_6probar6driverNtB6_12DriverConfig10user_agentReEB8_
FNDA:0,_RNCNvMs4_NtCs4eUmXem5O3q_6probar6driverNtB7_10MockDriver10was_called0B9_
FNF:42
FNH:0
DA:57,0
DA:58,0
DA:59,0
DA:60,0
DA:61,0
DA:62,0
DA:63,0
DA:64,0
DA:68,0
DA:69,0
DA:70,0
DA:112,0
DA:113,0
DA:114,0
DA:115,0
DA:116,0
DA:117,0
DA:118,0
DA:119,0
DA:120,0
DA:124,0
DA:125,0
DA:126,0
DA:130,0
DA:131,0
DA:132,0
DA:160,0
DA:161,0
DA:162,0
DA:163,0
DA:164,0
DA:165,0
DA:166,0
DA:167,0
DA:171,0
DA:172,0
DA:173,0
DA:174,0
DA:175,0
DA:176,0
DA:177,0
DA:204,0
DA:205,0
DA:206,0
DA:207,0
DA:208,0
DA:209,0
DA:210,0
DA:211,0
DA:212,0
DA:213,0
DA:214,0
DA:215,0
DA:216,0
DA:222,0
DA:223,0
DA:224,0
DA:228,0
DA:229,0
DA:230,0
DA:231,0
DA:235,0
DA:236,0
DA:237,0
DA:238,0
DA:239,0
DA:243,0
DA:244,0
DA:245,0
DA:246,0
DA:250,0
DA:251,0
DA:252,0
DA:253,0
DA:257,0
DA:258,0
DA:259,0
DA:260,0
DA:264,0
DA:265,0
DA:266,0
DA:267,0
DA:336,0
DA:337,0
DA:338,0
DA:339,0
DA:340,0
DA:341,0
DA:431,0
DA:432,0
DA:433,0
DA:436,0
DA:437,0
DA:438,0
DA:441,0
DA:442,0
DA:443,0
DA:446,0
DA:447,0
DA:448,0
DA:452,0
DA:453,0
DA:454,0
DA:458,0
DA:459,0
DA:460,0
DA:637,0
DA:638,0
DA:639,0
DA:640,0
DA:641,0
DA:642,0
DA:645,0
DA:646,0
DA:647,0
DA:649,0
DA:650,0
DA:651,0
DA:658,0
DA:659,0
DA:660,0
DA:661,0
DA:662,0
DA:663,0
DA:664,0
DA:667,0
DA:668,0
DA:669,0
DA:670,0
DA:673,0
DA:674,0
DA:675,0
DA:677,0
DA:678,0
DA:680,0
DA:681,0
DA:682,0
DA:689,0
DA:690,0
DA:691,0
DA:692,0
DA:693,0
DA:694,0
DA:695,0
DA:696,0
DA:699,0
DA:700,0
DA:701,0
DA:702,0
DA:709,0
DA:710,0
DA:711,0
DA:712,0
DA:713,0
DA:714,0
DA:717,0
DA:718,0
DA:719,0
DA:720,0
DA:721,0
DA:722,0
DA:724,0
DA:725,0
DA:726,0
DA:727,0
DA:728,0
DA:729,0
DA:732,0
DA:733,0
DA:734,0
DA:735,0
DA:742,0
DA:743,0
DA:744,0
DA:745,0
DA:746,0
DA:747,0
DA:750,0
DA:751,0
DA:752,0
DA:753,0
DA:754,0
DA:755,0
DA:758,0
DA:759,0
DA:760,0
DA:761,0
DA:762,0
DA:769,0
DA:770,0
DA:771,0
DA:772,0
DA:773,0
DA:776,0
DA:777,0
DA:778,0
DA:779,0
DA:780,0
DA:783,0
DA:784,0
DA:785,0
DA:786,0
DA:789,0
DA:790,0
DA:791,0
DA:792,0
DA:799,0
DA:800,0
DA:801,0
DA:802,0
DA:803,0
BRF:0
BRH:0
LF:213
LH:0
end_of_record
SF:/home/noah/src/probar/crates/probar/src/emulation/device.rs
FN:435,_RNvNtNtNtNtCsbqoqex1KQlH_6probar9emulation6device5tests14viewport_testss_12test_default
FN:456,_RNvNtNtNtNtCsbqoqex1KQlH_6probar9emulation6device5tests14viewport_testss_13test_portrait
FN:442,_RNvNtNtNtNtCsbqoqex1KQlH_6probar9emulation6device5tests14viewport_testss_14test_landscape
FN:476,_RNvNtNtNtNtCsbqoqex1KQlH_6probar9emulation6device5tests14viewport_testss_16test_is_portrait
FN:470,_RNvNtNtNtNtCsbqoqex1KQlH_6probar9emulation6device5tests14viewport_testss_17test_is_landscape
FN:428,_RNvNtNtNtNtCsbqoqex1KQlH_6probar9emulation6device5tests14viewport_testss_8test_new
FN:486,_RNvNtNtNtNtCsbqoqex1KQlH_6probar9emulation6device5tests16touch_mode_testss_12test_default
FN:492,_RNvNtNtNtNtCsbqoqex1KQlH_6probar9emulation6device5tests16touch_mode_testss_15test_is_enabled
FN:60,_RNvMNtNtCsbqoqex1KQlH_6probar9emulation6deviceNtB2_8Viewport11is_portrait
FN:54,_RNvMNtNtCsbqoqex1KQlH_6probar9emulation6deviceNtB2_8Viewport12is_landscape
FN:22,_RNvMNtNtCsbqoqex1KQlH_6probar9emulation6deviceNtB2_8Viewport3new
FN:41,_RNvMNtNtCsbqoqex1KQlH_6probar9emulation6deviceNtB2_8Viewport8portrait
FN:28,_RNvMNtNtCsbqoqex1KQlH_6probar9emulation6deviceNtB2_8Viewport9landscape
FN:89,_RNvMs0_NtNtCsbqoqex1KQlH_6probar9emulation6deviceNtB5_9TouchMode10is_enabled
FN:172,_RNvMs1_NtNtCsbqoqex1KQlH_6probar9emulation6deviceNtB5_16DeviceDescriptor10with_hover
FN:165,_RNvMs1_NtNtCsbqoqex1KQlH_6probar9emulation6deviceNtB5_16DeviceDescriptor10with_touch
FN:158,_RNvMs1_NtNtCsbqoqex1KQlH_6probar9emulation6deviceNtB5_16DeviceDescriptor11with_mobile
FN:130,_RNvMs1_NtNtCsbqoqex1KQlH_6probar9emulation6deviceNtB5_16DeviceDescriptor13with_viewport
FN:137,_RNvMs1_NtNtCsbqoqex1KQlH_6probar9emulation6deviceNtB5_16DeviceDescriptor18with_viewport_size
FN:151,_RNvMs1_NtNtCsbqoqex1KQlH_6probar9emulation6deviceNtB5_16DeviceDescriptor24with_device_scale_factor
FN:401,_RNvMs2_NtNtCsbqoqex1KQlH_6probar9emulation6deviceNtB5_14DeviceEmulator10desktop_4k
FN:215,_RNvMs2_NtNtCsbqoqex1KQlH_6probar9emulation6deviceNtB5_14DeviceEmulator10get_preset
FN:337,_RNvMs2_NtNtCsbqoqex1KQlH_6probar9emulation6deviceNtB5_14DeviceEmulator11pixel_7_pro
FN:221,_RNvMs2_NtNtCsbqoqex1KQlH_6probar9emulation6deviceNtB5_14DeviceEmulator12preset_names
FN:371,_RNvMs2_NtNtCsbqoqex1KQlH_6probar9emulation6deviceNtB5_14DeviceEmulator13desktop_1080p
FN:386,_RNvMs2_NtNtCsbqoqex1KQlH_6probar9emulation6deviceNtB5_14DeviceEmulator13desktop_1440p
FN:254,_RNvMs2_NtNtCsbqoqex1KQlH_6probar9emulation6deviceNtB5_14DeviceEmulator13iphone_14_pro
FN:209,_RNvMs2_NtNtCsbqoqex1KQlH_6probar9emulation6deviceNtB5_14DeviceEmulator15register_preset
FN:269,_RNvMs2_NtNtCsbqoqex1KQlH_6probar9emulation6deviceNtB5_14DeviceEmulator17iphone_14_pro_max
FN:352,_RNvMs2_NtNtCsbqoqex1KQlH_6probar9emulation6deviceNtB5_14DeviceEmulator18samsung_galaxy_s23
FN:187,_RNvMs2_NtNtCsbqoqex1KQlH_6probar9emulation6deviceNtB5_14DeviceEmulator3new
FN:227,_RNvMs2_NtNtCsbqoqex1KQlH_6probar9emulation6deviceNtB5_14DeviceEmulator6custom
FN:322,_RNvMs2_NtNtCsbqoqex1KQlH_6probar9emulation6deviceNtB5_14DeviceEmulator7pixel_7
FN:288,_RNvMs2_NtNtCsbqoqex1KQlH_6probar9emulation6deviceNtB5_14DeviceEmulator8ipad_pro
FN:303,_RNvMs2_NtNtCsbqoqex1KQlH_6probar9emulation6deviceNtB5_14DeviceEmulator9ipad_mini
FN:239,_RNvMs2_NtNtCsbqoqex1KQlH_6probar9emulation6deviceNtB5_14DeviceEmulator9iphone_14
FN:66,_RNvXs_NtNtCsbqoqex1KQlH_6probar9emulation6deviceNtB4_8ViewportNtNtCs6RpC691fUBl_4core7default7Default7default
FN:144,_RINvMs1_NtNtCsbqoqex1KQlH_6probar9emulation6deviceNtB6_16DeviceDescriptor15with_user_agentReEBa_
FN:116,_RINvMs1_NtNtCsbqoqex1KQlH_6probar9emulation6deviceNtB6_16DeviceDescriptor3newReEBa_
FN:631,_RNvNtNtNtNtCsbqoqex1KQlH_6probar9emulation6device5tests12preset_testss_12test_pixel_7
FN:616,_RNvNtNtNtNtCsbqoqex1KQlH_6probar9emulation6device5tests12preset_testss_13test_ipad_pro
FN:624,_RNvNtNtNtNtCsbqoqex1KQlH_6probar9emulation6device5tests12preset_testss_14test_ipad_mini
FN:589,_RNvNtNtNtNtCsbqoqex1KQlH_6probar9emulation6device5tests12preset_testss_14test_iphone_14
FN:673,_RNvNtNtNtNtCsbqoqex1KQlH_6probar9emulation6device5tests12preset_testss_15test_desktop_4k
FN:640,_RNvNtNtNtNtCsbqoqex1KQlH_6probar9emulation6device5tests12preset_testss_16test_pixel_7_pro
FN:655,_RNvNtNtNtNtCsbqoqex1KQlH_6probar9emulation6device5tests12preset_testss_18test_desktop_1080p
FN:666,_RNvNtNtNtNtCsbqoqex1KQlH_6probar9emulation6device5tests12preset_testss_18test_desktop_1440p
FN:600,_RNvNtNtNtNtCsbqoqex1KQlH_6probar9emulation6device5tests12preset_testss_18test_iphone_14_pro
FN:608,_RNvNtNtNtNtCsbqoqex1KQlH_6probar9emulation6device5tests12preset_testss_22test_iphone_14_pro_max
FN:647,_RNvNtNtNtNtCsbqoqex1KQlH_6probar9emulation6device5tests12preset_testss_23test_samsung_galaxy_s23
FN:684,_RNvNtNtNtNtCsbqoqex1KQlH_6probar9emulation6device5tests12preset_namess_26test_all_presets_available
FN:530,_RNvNtNtNtNtCsbqoqex1KQlH_6probar9emulation6device5tests23device_descriptor_testss_18test_with_viewport
FN:511,_RNvNtNtNtNtCsbqoqex1KQlH_6probar9emulation6device5tests23device_descriptor_testss_20test_builder_pattern
FN:503,_RNvNtNtNtNtCsbqoqex1KQlH_6probar9emulation6device5tests23device_descriptor_testss_8test_new
FN:548,_RNvNtNtNtNtCsbqoqex1KQlH_6probar9emulation6device5tests21device_emulator_testss_15test_get_preset
FN:576,_RNvNtNtNtNtCsbqoqex1KQlH_6probar9emulation6device5tests21device_emulator_testss_18test_custom_device
FN:542,_RNvNtNtNtNtCsbqoqex1KQlH_6probar9emulation6device5tests21device_emulator_testss_20test_new_has_presets
FN:558,_RNvNtNtNtNtCsbqoqex1KQlH_6probar9emulation6device5tests21device_emulator_testss_27test_get_nonexistent_preset
FN:564,_RNvNtNtNtNtCsbqoqex1KQlH_6probar9emulation6device5tests21device_emulator_testss_27test_register_custom_preset
FN:60,_RNvMNtNtCs4eUmXem5O3q_6probar9emulation6deviceNtB2_8Viewport11is_portrait
FN:54,_RNvMNtNtCs4eUmXem5O3q_6probar9emulation6deviceNtB2_8Viewport12is_landscape
FN:22,_RNvMNtNtCs4eUmXem5O3q_6probar9emulation6deviceNtB2_8Viewport3new
FN:41,_RNvMNtNtCs4eUmXem5O3q_6probar9emulation6deviceNtB2_8Viewport8portrait
FN:28,_RNvMNtNtCs4eUmXem5O3q_6probar9emulation6deviceNtB2_8Viewport9landscape
FN:89,_RNvMs0_NtNtCs4eUmXem5O3q_6probar9emulation6deviceNtB5_9TouchMode10is_enabled
FN:172,_RNvMs1_NtNtCs4eUmXem5O3q_6probar9emulation6deviceNtB5_16DeviceDescriptor10with_hover
FN:165,_RNvMs1_NtNtCs4eUmXem5O3q_6probar9emulation6deviceNtB5_16DeviceDescriptor10with_touch
FN:158,_RNvMs1_NtNtCs4eUmXem5O3q_6probar9emulation6deviceNtB5_16DeviceDescriptor11with_mobile
FN:130,_RNvMs1_NtNtCs4eUmXem5O3q_6probar9emulation6deviceNtB5_16DeviceDescriptor13with_viewport
FN:137,_RNvMs1_NtNtCs4eUmXem5O3q_6probar9emulation6deviceNtB5_16DeviceDescriptor18with_viewport_size
FN:151,_RNvMs1_NtNtCs4eUmXem5O3q_6probar9emulation6deviceNtB5_16DeviceDescriptor24with_device_scale_factor
FN:401,_RNvMs2_NtNtCs4eUmXem5O3q_6probar9emulation6deviceNtB5_14DeviceEmulator10desktop_4k
FN:215,_RNvMs2_NtNtCs4eUmXem5O3q_6probar9emulation6deviceNtB5_14DeviceEmulator10get_preset
FN:337,_RNvMs2_NtNtCs4eUmXem5O3q_6probar9emulation6deviceNtB5_14DeviceEmulator11pixel_7_pro
FN:221,_RNvMs2_NtNtCs4eUmXem5O3q_6probar9emulation6deviceNtB5_14DeviceEmulator12preset_names
FN:371,_RNvMs2_NtNtCs4eUmXem5O3q_6probar9emulation6deviceNtB5_14DeviceEmulator13desktop_1080p
FN:386,_RNvMs2_NtNtCs4eUmXem5O3q_6probar9emulation6deviceNtB5_14DeviceEmulator13desktop_1440p
FN:254,_RNvMs2_NtNtCs4eUmXem5O3q_6probar9emulation6deviceNtB5_14DeviceEmulator13iphone_14_pro
FN:209,_RNvMs2_NtNtCs4eUmXem5O3q_6probar9emulation6deviceNtB5_14DeviceEmulator15register_preset
FN:269,_RNvMs2_NtNtCs4eUmXem5O3q_6probar9emulation6deviceNtB5_14DeviceEmulator17iphone_14_pro_max
FN:352,_RNvMs2_NtNtCs4eUmXem5O3q_6probar9emulation6deviceNtB5_14DeviceEmulator18samsung_galaxy_s23
FN:187,_RNvMs2_NtNtCs4eUmXem5O3q_6probar9emulation6deviceNtB5_14DeviceEmulator3new
FN:227,_RNvMs2_NtNtCs4eUmXem5O3q_6probar9emulation6deviceNtB5_14DeviceEmulator6custom
FN:322,_RNvMs2_NtNtCs4eUmXem5O3q_6probar9emulation6deviceNtB5_14DeviceEmulator7pixel_7
FN:288,_RNvMs2_NtNtCs4eUmXem5O3q_6probar9emulation6deviceNtB5_14DeviceEmulator8ipad_pro
FN:303,_RNvMs2_NtNtCs4eUmXem5O3q_6probar9emulation6deviceNtB5_14DeviceEmulator9ipad_mini
FN:239,_RNvMs2_NtNtCs4eUmXem5O3q_6probar9emulation6deviceNtB5_14DeviceEmulator9iphone_14
FN:66,_RNvXs_NtNtCs4eUmXem5O3q_6probar9emulation6deviceNtB4_8ViewportNtNtCs6RpC691fUBl_4core7default7Default7default
FN:144,_RINvMs1_NtNtCs4eUmXem5O3q_6probar9emulation6deviceNtB6_16DeviceDescriptor15with_user_agentReEBa_
FN:116,_RINvMs1_NtNtCs4eUmXem5O3q_6probar9emulation6deviceNtB6_16DeviceDescriptor3newReEBa_
FNDA:0,_RNvNtNtNtNtCsbqoqex1KQlH_6probar9emulation6device5tests14viewport_testss_12test_default
FNDA:0,_RNvNtNtNtNtCsbqoqex1KQlH_6probar9emulation6device5tests14viewport_testss_13test_portrait
FNDA:0,_RNvNtNtNtNtCsbqoqex1KQlH_6probar9emulation6device5tests14viewport_testss_14test_landscape
FNDA:0,_RNvNtNtNtNtCsbqoqex1KQlH_6probar9emulation6device5tests14viewport_testss_16test_is_portrait
FNDA:0,_RNvNtNtNtNtCsbqoqex1KQlH_6probar9emulation6device5tests14viewport_testss_17test_is_landscape
FNDA:0,_RNvNtNtNtNtCsbqoqex1KQlH_6probar9emulation6device5tests14viewport_testss_8test_new
FNDA:0,_RNvNtNtNtNtCsbqoqex1KQlH_6probar9emulation6device5tests16touch_mode_testss_12test_default
FNDA:0,_RNvNtNtNtNtCsbqoqex1KQlH_6probar9emulation6device5tests16touch_mode_testss_15test_is_enabled
FNDA:0,_RNvMNtNtCsbqoqex1KQlH_6probar9emulation6deviceNtB2_8Viewport11is_portrait
FNDA:0,_RNvMNtNtCsbqoqex1KQlH_6probar9emulation6deviceNtB2_8Viewport12is_landscape
FNDA:0,_RNvMNtNtCsbqoqex1KQlH_6probar9emulation6deviceNtB2_8Viewport3new
FNDA:0,_RNvMNtNtCsbqoqex1KQlH_6probar9emulation6deviceNtB2_8Viewport8portrait
FNDA:0,_RNvMNtNtCsbqoqex1KQlH_6probar9emulation6deviceNtB2_8Viewport9landscape
FNDA:0,_RNvMs0_NtNtCsbqoqex1KQlH_6probar9emulation6deviceNtB5_9TouchMode10is_enabled
FNDA:0,_RNvMs1_NtNtCsbqoqex1KQlH_6probar9emulation6deviceNtB5_16DeviceDescriptor10with_hover
FNDA:0,_RNvMs1_NtNtCsbqoqex1KQlH_6probar9emulation6deviceNtB5_16DeviceDescriptor10with_touch
FNDA:0,_RNvMs1_NtNtCsbqoqex1KQlH_6probar9emulation6deviceNtB5_16DeviceDescriptor11with_mobile
FNDA:0,_RNvMs1_NtNtCsbqoqex1KQlH_6probar9emulation6deviceNtB5_16DeviceDescriptor13with_viewport
FNDA:0,_RNvMs1_NtNtCsbqoqex1KQlH_6probar9emulation6deviceNtB5_16DeviceDescriptor18with_viewport_size
FNDA:0,_RNvMs1_NtNtCsbqoqex1KQlH_6probar9emulation6deviceNtB5_16DeviceDescriptor24with_device_scale_factor
FNDA:0,_RNvMs2_NtNtCsbqoqex1KQlH_6probar9emulation6deviceNtB5_14DeviceEmulator10desktop_4k
FNDA:0,_RNvMs2_NtNtCsbqoqex1KQlH_6probar9emulation6deviceNtB5_14DeviceEmulator10get_preset
FNDA:0,_RNvMs2_NtNtCsbqoqex1KQlH_6probar9emulation6deviceNtB5_14DeviceEmulator11pixel_7_pro
FNDA:0,_RNvMs2_NtNtCsbqoqex1KQlH_6probar9emulation6deviceNtB5_14DeviceEmulator12preset_names
FNDA:0,_RNvMs2_NtNtCsbqoqex1KQlH_6probar9emulation6deviceNtB5_14DeviceEmulator13desktop_1080p
FNDA:0,_RNvMs2_NtNtCsbqoqex1KQlH_6probar9emulation6deviceNtB5_14DeviceEmulator13desktop_1440p
FNDA:0,_RNvMs2_NtNtCsbqoqex1KQlH_6probar9emulation6deviceNtB5_14DeviceEmulator13iphone_14_pro
FNDA:0,_RNvMs2_NtNtCsbqoqex1KQlH_6probar9emulation6deviceNtB5_14DeviceEmulator15register_preset
FNDA:0,_RNvMs2_NtNtCsbqoqex1KQlH_6probar9emulation6deviceNtB5_14DeviceEmulator17iphone_14_pro_max
FNDA:0,_RNvMs2_NtNtCsbqoqex1KQlH_6probar9emulation6deviceNtB5_14DeviceEmulator18samsung_galaxy_s23
FNDA:0,_RNvMs2_NtNtCsbqoqex1KQlH_6probar9emulation6deviceNtB5_14DeviceEmulator3new
FNDA:0,_RNvMs2_NtNtCsbqoqex1KQlH_6probar9emulation6deviceNtB5_14DeviceEmulator6custom
FNDA:0,_RNvMs2_NtNtCsbqoqex1KQlH_6probar9emulation6deviceNtB5_14DeviceEmulator7pixel_7
FNDA:0,_RNvMs2_NtNtCsbqoqex1KQlH_6probar9emulation6deviceNtB5_14DeviceEmulator8ipad_pro
FNDA:0,_RNvMs2_NtNtCsbqoqex1KQlH_6probar9emulation6deviceNtB5_14DeviceEmulator9ipad_mini
FNDA:0,_RNvMs2_NtNtCsbqoqex1KQlH_6probar9emulation6deviceNtB5_14DeviceEmulator9iphone_14
FNDA:0,_RNvXs_NtNtCsbqoqex1KQlH_6probar9emulation6deviceNtB4_8ViewportNtNtCs6RpC691fUBl_4core7default7Default7default
FNDA:0,_RINvMs1_NtNtCsbqoqex1KQlH_6probar9emulation6deviceNtB6_16DeviceDescriptor15with_user_agentReEBa_
FNDA:0,_RINvMs1_NtNtCsbqoqex1KQlH_6probar9emulation6deviceNtB6_16DeviceDescriptor3newReEBa_
FNDA:0,_RNvNtNtNtNtCsbqoqex1KQlH_6probar9emulation6device5tests12preset_testss_12test_pixel_7
FNDA:0,_RNvNtNtNtNtCsbqoqex1KQlH_6probar9emulation6device5tests12preset_testss_13test_ipad_pro
FNDA:0,_RNvNtNtNtNtCsbqoqex1KQlH_6probar9emulation6device5tests12preset_testss_14test_ipad_mini
FNDA:0,_RNvNtNtNtNtCsbqoqex1KQlH_6probar9emulation6device5tests12preset_testss_14test_iphone_14
FNDA:0,_RNvNtNtNtNtCsbqoqex1KQlH_6probar9emulation6device5tests12preset_testss_15test_desktop_4k
FNDA:0,_RNvNtNtNtNtCsbqoqex1KQlH_6probar9emulation6device5tests12preset_testss_16test_pixel_7_pro
FNDA:0,_RNvNtNtNtNtCsbqoqex1KQlH_6probar9emulation6device5tests12preset_testss_18test_desktop_1080p
FNDA:0,_RNvNtNtNtNtCsbqoqex1KQlH_6probar9emulation6device5tests12preset_testss_18test_desktop_1440p
FNDA:0,_RNvNtNtNtNtCsbqoqex1KQlH_6probar9emulation6device5tests12preset_testss_18test_iphone_14_pro
FNDA:0,_RNvNtNtNtNtCsbqoqex1KQlH_6probar9emulation6device5tests12preset_testss_22test_iphone_14_pro_max
FNDA:0,_RNvNtNtNtNtCsbqoqex1KQlH_6probar9emulation6device5tests12preset_testss_23test_samsung_galaxy_s23
FNDA:0,_RNvNtNtNtNtCsbqoqex1KQlH_6probar9emulation6device5tests12preset_namess_26test_all_presets_available
FNDA:0,_RNvNtNtNtNtCsbqoqex1KQlH_6probar9emulation6device5tests23device_descriptor_testss_18test_with_viewport
FNDA:0,_RNvNtNtNtNtCsbqoqex1KQlH_6probar9emulation6device5tests23device_descriptor_testss_20test_builder_pattern
FNDA:0,_RNvNtNtNtNtCsbqoqex1KQlH_6probar9emulation6device5tests23device_descriptor_testss_8test_new
FNDA:0,_RNvNtNtNtNtCsbqoqex1KQlH_6probar9emulation6device5tests21device_emulator_testss_15test_get_preset
FNDA:0,_RNvNtNtNtNtCsbqoqex1KQlH_6probar9emulation6device5tests21device_emulator_testss_18test_custom_device
FNDA:0,_RNvNtNtNtNtCsbqoqex1KQlH_6probar9emulation6device5tests21device_emulator_testss_20test_new_has_presets
FNDA:0,_RNvNtNtNtNtCsbqoqex1KQlH_6probar9emulation6device5tests21device_emulator_testss_27test_get_nonexistent_preset
FNDA:0,_RNvNtNtNtNtCsbqoqex1KQlH_6probar9emulation6device5tests21device_emulator_testss_27test_register_custom_preset
FNDA:0,_RNvMNtNtCs4eUmXem5O3q_6probar9emulation6deviceNtB2_8Viewport11is_portrait
FNDA:0,_RNvMNtNtCs4eUmXem5O3q_6probar9emulation6deviceNtB2_8Viewport12is_landscape
FNDA:0,_RNvMNtNtCs4eUmXem5O3q_6probar9emulation6deviceNtB2_8Viewport3new
FNDA:0,_RNvMNtNtCs4eUmXem5O3q_6probar9emulation6deviceNtB2_8Viewport8portrait
FNDA:0,_RNvMNtNtCs4eUmXem5O3q_6probar9emulation6deviceNtB2_8Viewport9landscape
FNDA:0,_RNvMs0_NtNtCs4eUmXem5O3q_6probar9emulation6deviceNtB5_9TouchMode10is_enabled
FNDA:0,_RNvMs1_NtNtCs4eUmXem5O3q_6probar9emulation6deviceNtB5_16DeviceDescriptor10with_hover
FNDA:0,_RNvMs1_NtNtCs4eUmXem5O3q_6probar9emulation6deviceNtB5_16DeviceDescriptor10with_touch
FNDA:0,_RNvMs1_NtNtCs4eUmXem5O3q_6probar9emulation6deviceNtB5_16DeviceDescriptor11with_mobile
FNDA:0,_RNvMs1_NtNtCs4eUmXem5O3q_6probar9emulation6deviceNtB5_16DeviceDescriptor13with_viewport
FNDA:0,_RNvMs1_NtNtCs4eUmXem5O3q_6probar9emulation6deviceNtB5_16DeviceDescriptor18with_viewport_size
FNDA:0,_RNvMs1_NtNtCs4eUmXem5O3q_6probar9emulation6deviceNtB5_16DeviceDescriptor24with_device_scale_factor
FNDA:0,_RNvMs2_NtNtCs4eUmXem5O3q_6probar9emulation6deviceNtB5_14DeviceEmulator10desktop_4k
FNDA:0,_RNvMs2_NtNtCs4eUmXem5O3q_6probar9emulation6deviceNtB5_14DeviceEmulator10get_preset
FNDA:0,_RNvMs2_NtNtCs4eUmXem5O3q_6probar9emulation6deviceNtB5_14DeviceEmulator11pixel_7_pro
FNDA:0,_RNvMs2_NtNtCs4eUmXem5O3q_6probar9emulation6deviceNtB5_14DeviceEmulator12preset_names
FNDA:0,_RNvMs2_NtNtCs4eUmXem5O3q_6probar9emulation6deviceNtB5_14DeviceEmulator13desktop_1080p
FNDA:0,_RNvMs2_NtNtCs4eUmXem5O3q_6probar9emulation6deviceNtB5_14DeviceEmulator13desktop_1440p
FNDA:0,_RNvMs2_NtNtCs4eUmXem5O3q_6probar9emulation6deviceNtB5_14DeviceEmulator13iphone_14_pro
FNDA:0,_RNvMs2_NtNtCs4eUmXem5O3q_6probar9emulation6deviceNtB5_14DeviceEmulator15register_preset
FNDA:0,_RNvMs2_NtNtCs4eUmXem5O3q_6probar9emulation6deviceNtB5_14DeviceEmulator17iphone_14_pro_max
FNDA:0,_RNvMs2_NtNtCs4eUmXem5O3q_6probar9emulation6deviceNtB5_14DeviceEmulator18samsung_galaxy_s23
FNDA:0,_RNvMs2_NtNtCs4eUmXem5O3q_6probar9emulation6deviceNtB5_14DeviceEmulator3new
FNDA:0,_RNvMs2_NtNtCs4eUmXem5O3q_6probar9emulation6deviceNtB5_14DeviceEmulator6custom
FNDA:0,_RNvMs2_NtNtCs4eUmXem5O3q_6probar9emulation6deviceNtB5_14DeviceEmulator7pixel_7
FNDA:0,_RNvMs2_NtNtCs4eUmXem5O3q_6probar9emulation6deviceNtB5_14DeviceEmulator8ipad_pro
FNDA:0,_RNvMs2_NtNtCs4eUmXem5O3q_6probar9emulation6deviceNtB5_14DeviceEmulator9ipad_mini
FNDA:0,_RNvMs2_NtNtCs4eUmXem5O3q_6probar9emulation6deviceNtB5_14DeviceEmulator9iphone_14
FNDA:0,_RNvXs_NtNtCs4eUmXem5O3q_6probar9emulation6deviceNtB4_8ViewportNtNtCs6RpC691fUBl_4core7default7Default7default
FNDA:0,_RINvMs1_NtNtCs4eUmXem5O3q_6probar9emulation6deviceNtB6_16DeviceDescriptor15with_user_agentReEBa_
FNDA:0,_RINvMs1_NtNtCs4eUmXem5O3q_6probar9emulation6deviceNtB6_16DeviceDescriptor3newReEBa_
FNF:59
FNH:0
DA:22,0
DA:23,0
DA:24,0
DA:28,0
DA:29,0
DA:30,0
DA:32,0
DA:33,0
DA:34,0
DA:35,0
DA:37,0
DA:41,0
DA:42,0
DA:43,0
DA:45,0
DA:46,0
DA:47,0
DA:48,0
DA:50,0
DA:54,0
DA:55,0
DA:56,0
DA:60,0
DA:61,0
DA:62,0
DA:66,0
DA:67,0
DA:68,0
DA:69,0
DA:70,0
DA:71,0
DA:89,0
DA:90,0
DA:91,0
DA:116,0
DA:117,0
DA:118,0
DA:119,0
DA:120,0
DA:121,0
DA:122,0
DA:123,0
DA:124,0
DA:125,0
DA:126,0
DA:130,0
DA:131,0
DA:132,0
DA:133,0
DA:137,0
DA:138,0
DA:139,0
DA:140,0
DA:144,0
DA:145,0
DA:146,0
DA:147,0
DA:151,0
DA:152,0
DA:153,0
DA:154,0
DA:158,0
DA:159,0
DA:160,0
DA:161,0
DA:165,0
DA:166,0
DA:167,0
DA:168,0
DA:172,0
DA:173,0
DA:174,0
DA:175,0
DA:187,0
DA:188,0
DA:189,0
DA:190,0
DA:193,0
DA:194,0
DA:195,0
DA:196,0
DA:197,0
DA:198,0
DA:199,0
DA:200,0
DA:201,0
DA:202,0
DA:203,0
DA:205,0
DA:206,0
DA:209,0
DA:210,0
DA:211,0
DA:215,0
DA:216,0
DA:217,0
DA:221,0
DA:222,0
DA:223,0
DA:227,0
DA:228,0
DA:229,0
DA:230,0
DA:231,0
DA:239,0
DA:240,0
DA:241,0
DA:242,0
DA:246,0
DA:247,0
DA:248,0
DA:249,0
DA:250,0
DA:254,0
DA:255,0
DA:256,0
DA:257,0
DA:261,0
DA:262,0
DA:263,0
DA:264,0
DA:265,0
DA:269,0
DA:270,0
DA:271,0
DA:272,0
DA:276,0
DA:277,0
DA:278,0
DA:279,0
DA:280,0
DA:288,0
DA:289,0
DA:290,0
DA:291,0
DA:295,0
DA:296,0
DA:297,0
DA:298,0
DA:299,0
DA:303,0
DA:304,0
DA:305,0
DA:306,0
DA:310,0
DA:311,0
DA:312,0
DA:313,0
DA:314,0
DA:322,0
DA:323,0
DA:324,0
DA:325,0
DA:329,0
DA:330,0
DA:331,0
DA:332,0
DA:333,0
DA:337,0
DA:338,0
DA:339,0
DA:340,0
DA:344,0
DA:345,0
DA:346,0
DA:347,0
DA:348,0
DA:352,0
DA:353,0
DA:354,0
DA:355,0
DA:359,0
DA:360,0
DA:361,0
DA:362,0
DA:363,0
DA:371,0
DA:372,0
DA:373,0
DA:374,0
DA:378,0
DA:379,0
DA:380,0
DA:381,0
DA:382,0
DA:386,0
DA:387,0
DA:388,0
DA:389,0
DA:393,0
DA:394,0
DA:395,0
DA:396,0
DA:397,0
DA:401,0
DA:402,0
DA:403,0
DA:404,0
DA:408,0
DA:409,0
DA:410,0
DA:411,0
DA:412,0
DA:428,0
DA:429,0
DA:430,0
DA:431,0
DA:432,0
DA:435,0
DA:436,0
DA:437,0
DA:438,0
DA:439,0
DA:442,0
DA:443,0
DA:444,0
DA:445,0
DA:446,0
DA:449,0
DA:450,0
DA:451,0
DA:452,0
DA:453,0
DA:456,0
DA:457,0
DA:458,0
DA:459,0
DA:460,0
DA:463,0
DA:464,0
DA:465,0
DA:466,0
DA:467,0
DA:470,0
DA:471,0
DA:472,0
DA:473,0
DA:476,0
DA:477,0
DA:478,0
DA:479,0
DA:486,0
DA:487,0
DA:488,0
DA:489,0
DA:492,0
DA:493,0
DA:494,0
DA:495,0
DA:496,0
DA:503,0
DA:504,0
DA:505,0
DA:506,0
DA:507,0
DA:508,0
DA:511,0
DA:512,0
DA:513,0
DA:514,0
DA:515,0
DA:516,0
DA:517,0
DA:518,0
DA:520,0
DA:521,0
DA:522,0
DA:523,0
DA:524,0
DA:525,0
DA:526,0
DA:527,0
DA:530,0
DA:531,0
DA:532,0
DA:533,0
DA:534,0
DA:535,0
DA:542,0
DA:543,0
DA:544,0
DA:545,0
DA:548,0
DA:549,0
DA:550,0
DA:551,0
DA:552,0
DA:553,0
DA:554,0
DA:555,0
DA:558,0
DA:559,0
DA:560,0
DA:561,0
DA:564,0
DA:565,0
DA:566,0
DA:567,0
DA:569,0
DA:571,0
DA:572,0
DA:573,0
DA:576,0
DA:577,0
DA:578,0
DA:579,0
DA:580,0
DA:581,0
DA:582,0
DA:589,0
DA:590,0
DA:591,0
DA:592,0
DA:593,0
DA:594,0
DA:595,0
DA:596,0
DA:597,0
DA:600,0
DA:601,0
DA:602,0
DA:603,0
DA:604,0
DA:605,0
DA:608,0
DA:609,0
DA:610,0
DA:611,0
DA:612,0
DA:613,0
DA:616,0
DA:617,0
DA:618,0
DA:619,0
DA:620,0
DA:621,0
DA:624,0
DA:625,0
DA:626,0
DA:627,0
DA:628,0
DA:631,0
DA:632,0
DA:633,0
DA:634,0
DA:635,0
DA:636,0
DA:637,0
DA:640,0
DA:641,0
DA:642,0
DA:643,0
DA:644,0
DA:647,0
DA:648,0
DA:649,0
DA:650,0
DA:651,0
DA:652,0
DA:655,0
DA:656,0
DA:657,0
DA:658,0
DA:659,0
DA:660,0
DA:661,0
DA:662,0
DA:663,0
DA:666,0
DA:667,0
DA:668,0
DA:669,0
DA:670,0
DA:673,0
DA:674,0
DA:675,0
DA:676,0
DA:677,0
DA:684,0
DA:685,0
DA:686,0
DA:688,0
DA:689,0
DA:690,0
DA:691,0
DA:692,0
DA:693,0
DA:694,0
DA:695,0
DA:696,0
DA:697,0
DA:698,0
DA:699,0
BRF:0
BRH:0
LF:393
LH:0
end_of_record
SF:/home/noah/src/probar/crates/probar/src/emulation/geolocation.rs
FN:491,_RNvNtNtNtCsbqoqex1KQlH_6probar9emulation11geolocation5testss_13test_mock_new
FN:662,_RNvNtNtNtCsbqoqex1KQlH_6probar9emulation11geolocation5testss_15test_mock_clone
FN:610,_RNvNtNtNtCsbqoqex1KQlH_6probar9emulation11geolocation5testss_15test_mock_reset
FN:499,_RNvNtNtNtCsbqoqex1KQlH_6probar9emulation11geolocation5testss_17test_mock_default
FN:332,_RNvNtNtNtCsbqoqex1KQlH_6probar9emulation11geolocation5testss_17test_position_new
FN:475,_RNvNtNtNtCsbqoqex1KQlH_6probar9emulation11geolocation5testss_17test_preset_dubai
FN:440,_RNvNtNtNtCsbqoqex1KQlH_6probar9emulation11geolocation5testss_17test_preset_paris
FN:426,_RNvNtNtNtCsbqoqex1KQlH_6probar9emulation11geolocation5testss_17test_preset_tokyo
FN:571,_RNvNtNtNtCsbqoqex1KQlH_6probar9emulation11geolocation5testss_18test_mock_disabled
FN:461,_RNvNtNtNtCsbqoqex1KQlH_6probar9emulation11geolocation5testss_18test_preset_berlin
FN:433,_RNvNtNtNtCsbqoqex1KQlH_6probar9emulation11geolocation5testss_18test_preset_london
FN:447,_RNvNtNtNtCsbqoqex1KQlH_6probar9emulation11geolocation5testss_18test_preset_sydney
FN:650,_RNvNtNtNtCsbqoqex1KQlH_6probar9emulation11geolocation5testss_19test_error_equality
FN:625,_RNvNtNtNtCsbqoqex1KQlH_6probar9emulation11geolocation5testss_19test_error_priority
FN:671,_RNvNtNtNtCsbqoqex1KQlH_6probar9emulation11geolocation5testss_19test_position_clone
FN:551,_RNvNtNtNtCsbqoqex1KQlH_6probar9emulation11geolocation5testss_20test_mock_get_preset
FN:515,_RNvNtNtNtCsbqoqex1KQlH_6probar9emulation11geolocation5testss_20test_mock_set_preset
FN:419,_RNvNtNtNtCsbqoqex1KQlH_6probar9emulation11geolocation5testss_20test_preset_new_york
FN:591,_RNvNtNtNtCsbqoqex1KQlH_6probar9emulation11geolocation5testss_21test_mock_clear_error
FN:482,_RNvNtNtNtCsbqoqex1KQlH_6probar9emulation11geolocation5testss_21test_preset_sao_paulo
FN:468,_RNvNtNtNtCsbqoqex1KQlH_6probar9emulation11geolocation5testss_21test_preset_singapore
FN:541,_RNvNtNtNtCsbqoqex1KQlH_6probar9emulation11geolocation5testss_22test_mock_list_presets
FN:505,_RNvNtNtNtCsbqoqex1KQlH_6probar9emulation11geolocation5testss_22test_mock_set_position
FN:640,_RNvNtNtNtCsbqoqex1KQlH_6probar9emulation11geolocation5testss_22test_position_equality
FN:601,_RNvNtNtNtCsbqoqex1KQlH_6probar9emulation11geolocation5testss_24test_mock_clear_position
FN:581,_RNvNtNtNtCsbqoqex1KQlH_6probar9emulation11geolocation5testss_24test_mock_simulate_error
FN:392,_RNvNtNtNtCsbqoqex1KQlH_6probar9emulation11geolocation5testss_24test_position_with_speed
FN:454,_RNvNtNtNtCsbqoqex1KQlH_6probar9emulation11geolocation5testss_25test_preset_san_francisco
FN:380,_RNvNtNtNtCsbqoqex1KQlH_6probar9emulation11geolocation5testss_26test_position_with_heading
FN:530,_RNvNtNtNtCsbqoqex1KQlH_6probar9emulation11geolocation5testss_27test_mock_add_custom_preset
FN:561,_RNvNtNtNtCsbqoqex1KQlH_6probar9emulation11geolocation5testss_27test_mock_permission_denied
FN:404,_RNvNtNtNtCsbqoqex1KQlH_6probar9emulation11geolocation5testss_27test_position_builder_chain
FN:399,_RNvNtNtNtCsbqoqex1KQlH_6probar9emulation11geolocation5testss_27test_position_invalid_speed
FN:373,_RNvNtNtNtCsbqoqex1KQlH_6probar9emulation11geolocation5testss_27test_position_with_altitude
FN:524,_RNvNtNtNtCsbqoqex1KQlH_6probar9emulation11geolocation5testss_28test_mock_set_preset_unknown
FN:387,_RNvNtNtNtCsbqoqex1KQlH_6probar9emulation11geolocation5testss_29test_position_invalid_heading
FN:368,_RNvNtNtNtCsbqoqex1KQlH_6probar9emulation11geolocation5testss_30test_position_invalid_accuracy
FN:350,_RNvNtNtNtCsbqoqex1KQlH_6probar9emulation11geolocation5testss_34test_position_invalid_latitude_low
FN:344,_RNvNtNtNtCsbqoqex1KQlH_6probar9emulation11geolocation5testss_35test_position_invalid_latitude_high
FN:362,_RNvNtNtNtCsbqoqex1KQlH_6probar9emulation11geolocation5testss_35test_position_invalid_longitude_low
FN:356,_RNvNtNtNtCsbqoqex1KQlH_6probar9emulation11geolocation5testss_36test_position_invalid_longitude_high
FN:88,_RNvMNtNtCsbqoqex1KQlH_6probar9emulation11geolocationNtB2_19GeolocationPosition10with_speed
FN:77,_RNvMNtNtCsbqoqex1KQlH_6probar9emulation11geolocationNtB2_19GeolocationPosition12with_heading
FN:128,_RNvMNtNtCsbqoqex1KQlH_6probar9emulation11geolocationNtB2_19GeolocationPosition13san_francisco
FN:69,_RNvMNtNtCsbqoqex1KQlH_6probar9emulation11geolocationNtB2_19GeolocationPosition13with_altitude
FN:45,_RNvMNtNtCsbqoqex1KQlH_6probar9emulation11geolocationNtB2_19GeolocationPosition3new
FN:146,_RNvMNtNtCsbqoqex1KQlH_6probar9emulation11geolocationNtB2_19GeolocationPosition5dubai
FN:116,_RNvMNtNtCsbqoqex1KQlH_6probar9emulation11geolocationNtB2_19GeolocationPosition5paris
FN:104,_RNvMNtNtCsbqoqex1KQlH_6probar9emulation11geolocationNtB2_19GeolocationPosition5tokyo
FN:134,_RNvMNtNtCsbqoqex1KQlH_6probar9emulation11geolocationNtB2_19GeolocationPosition6berlin
FN:110,_RNvMNtNtCsbqoqex1KQlH_6probar9emulation11geolocationNtB2_19GeolocationPosition6london
FN:122,_RNvMNtNtCsbqoqex1KQlH_6probar9emulation11geolocationNtB2_19GeolocationPosition6sydney
FN:98,_RNvMNtNtCsbqoqex1KQlH_6probar9emulation11geolocationNtB2_19GeolocationPosition8new_york
FN:152,_RNvMNtNtCsbqoqex1KQlH_6probar9emulation11geolocationNtB2_19GeolocationPosition9sao_paulo
FN:140,_RNvMNtNtCsbqoqex1KQlH_6probar9emulation11geolocationNtB2_19GeolocationPosition9singapore
FN:238,_RNvMs0_NtNtCsbqoqex1KQlH_6probar9emulation11geolocationNtB5_15GeolocationMock10add_preset
FN:307,_RNvMs0_NtNtCsbqoqex1KQlH_6probar9emulation11geolocationNtB5_15GeolocationMock10get_preset
FN:274,_RNvMs0_NtNtCsbqoqex1KQlH_6probar9emulation11geolocationNtB5_15GeolocationMock10is_enabled
FN:228,_RNvMs0_NtNtCsbqoqex1KQlH_6probar9emulation11geolocationNtB5_15GeolocationMock10set_preset
FN:295,_RNvMs0_NtNtCsbqoqex1KQlH_6probar9emulation11geolocationNtB5_15GeolocationMock11clear_error
FN:268,_RNvMs0_NtNtCsbqoqex1KQlH_6probar9emulation11geolocationNtB5_15GeolocationMock11set_enabled
FN:301,_RNvMs0_NtNtCsbqoqex1KQlH_6probar9emulation11geolocationNtB5_15GeolocationMock12list_presets
FN:221,_RNvMs0_NtNtCsbqoqex1KQlH_6probar9emulation11geolocationNtB5_15GeolocationMock12set_position
FN:312,_RNvMs0_NtNtCsbqoqex1KQlH_6probar9emulation11geolocationNtB5_15GeolocationMock14clear_position
FN:279,_RNvMs0_NtNtCsbqoqex1KQlH_6probar9emulation11geolocationNtB5_15GeolocationMock14set_permission
FN:290,_RNvMs0_NtNtCsbqoqex1KQlH_6probar9emulation11geolocationNtB5_15GeolocationMock14simulate_error
FN:245,_RNvMs0_NtNtCsbqoqex1KQlH_6probar9emulation11geolocationNtB5_15GeolocationMock20get_current_position
FN:285,_RNvMs0_NtNtCsbqoqex1KQlH_6probar9emulation11geolocationNtB5_15GeolocationMock21is_permission_granted
FN:193,_RNvMs0_NtNtCsbqoqex1KQlH_6probar9emulation11geolocationNtB5_15GeolocationMock3new
FN:317,_RNvMs0_NtNtCsbqoqex1KQlH_6probar9emulation11geolocationNtB5_15GeolocationMock5reset
FN:184,_RNvXs_NtNtCsbqoqex1KQlH_6probar9emulation11geolocationNtB4_15GeolocationMockNtNtCs6RpC691fUBl_4core7default7Default7default
FN:88,_RNvMNtNtCs4eUmXem5O3q_6probar9emulation11geolocationNtB2_19GeolocationPosition10with_speed
FN:77,_RNvMNtNtCs4eUmXem5O3q_6probar9emulation11geolocationNtB2_19GeolocationPosition12with_heading
FN:128,_RNvMNtNtCs4eUmXem5O3q_6probar9emulation11geolocationNtB2_19GeolocationPosition13san_francisco
FN:69,_RNvMNtNtCs4eUmXem5O3q_6probar9emulation11geolocationNtB2_19GeolocationPosition13with_altitude
FN:45,_RNvMNtNtCs4eUmXem5O3q_6probar9emulation11geolocationNtB2_19GeolocationPosition3new
FN:146,_RNvMNtNtCs4eUmXem5O3q_6probar9emulation11geolocationNtB2_19GeolocationPosition5dubai
FN:116,_RNvMNtNtCs4eUmXem5O3q_6probar9emulation11geolocationNtB2_19GeolocationPosition5paris
FN:104,_RNvMNtNtCs4eUmXem5O3q_6probar9emulation11geolocationNtB2_19GeolocationPosition5tokyo
FN:134,_RNvMNtNtCs4eUmXem5O3q_6probar9emulation11geolocationNtB2_19GeolocationPosition6berlin
FN:110,_RNvMNtNtCs4eUmXem5O3q_6probar9emulation11geolocationNtB2_19GeolocationPosition6london
FN:122,_RNvMNtNtCs4eUmXem5O3q_6probar9emulation11geolocationNtB2_19GeolocationPosition6sydney
FN:98,_RNvMNtNtCs4eUmXem5O3q_6probar9emulation11geolocationNtB2_19GeolocationPosition8new_york
FN:152,_RNvMNtNtCs4eUmXem5O3q_6probar9emulation11geolocationNtB2_19GeolocationPosition9sao_paulo
FN:140,_RNvMNtNtCs4eUmXem5O3q_6probar9emulation11geolocationNtB2_19GeolocationPosition9singapore
FN:238,_RNvMs0_NtNtCs4eUmXem5O3q_6probar9emulation11geolocationNtB5_15GeolocationMock10add_preset
FN:307,_RNvMs0_NtNtCs4eUmXem5O3q_6probar9emulation11geolocationNtB5_15GeolocationMock10get_preset
FN:274,_RNvMs0_NtNtCs4eUmXem5O3q_6probar9emulation11geolocationNtB5_15GeolocationMock10is_enabled
FN:228,_RNvMs0_NtNtCs4eUmXem5O3q_6probar9emulation11geolocationNtB5_15GeolocationMock10set_preset
FN:295,_RNvMs0_NtNtCs4eUmXem5O3q_6probar9emulation11geolocationNtB5_15GeolocationMock11clear_error
FN:268,_RNvMs0_NtNtCs4eUmXem5O3q_6probar9emulation11geolocationNtB5_15GeolocationMock11set_enabled
FN:301,_RNvMs0_NtNtCs4eUmXem5O3q_6probar9emulation11geolocationNtB5_15GeolocationMock12list_presets
FN:221,_RNvMs0_NtNtCs4eUmXem5O3q_6probar9emulation11geolocationNtB5_15GeolocationMock12set_position
FN:312,_RNvMs0_NtNtCs4eUmXem5O3q_6probar9emulation11geolocationNtB5_15GeolocationMock14clear_position
FN:279,_RNvMs0_NtNtCs4eUmXem5O3q_6probar9emulation11geolocationNtB5_15GeolocationMock14set_permission
FN:290,_RNvMs0_NtNtCs4eUmXem5O3q_6probar9emulation11geolocationNtB5_15GeolocationMock14simulate_error
FN:245,_RNvMs0_NtNtCs4eUmXem5O3q_6probar9emulation11geolocationNtB5_15GeolocationMock20get_current_position
FN:285,_RNvMs0_NtNtCs4eUmXem5O3q_6probar9emulation11geolocationNtB5_15GeolocationMock21is_permission_granted
FN:193,_RNvMs0_NtNtCs4eUmXem5O3q_6probar9emulation11geolocationNtB5_15GeolocationMock3new
FN:317,_RNvMs0_NtNtCs4eUmXem5O3q_6probar9emulation11geolocationNtB5_15GeolocationMock5reset
FN:184,_RNvXs_NtNtCs4eUmXem5O3q_6probar9emulation11geolocationNtB4_15GeolocationMockNtNtCs6RpC691fUBl_4core7default7Default7default
FNDA:0,_RNvNtNtNtCsbqoqex1KQlH_6probar9emulation11geolocation5testss_13test_mock_new
FNDA:0,_RNvNtNtNtCsbqoqex1KQlH_6probar9emulation11geolocation5testss_15test_mock_clone
FNDA:0,_RNvNtNtNtCsbqoqex1KQlH_6probar9emulation11geolocation5testss_15test_mock_reset
FNDA:0,_RNvNtNtNtCsbqoqex1KQlH_6probar9emulation11geolocation5testss_17test_mock_default
FNDA:0,_RNvNtNtNtCsbqoqex1KQlH_6probar9emulation11geolocation5testss_17test_position_new
FNDA:0,_RNvNtNtNtCsbqoqex1KQlH_6probar9emulation11geolocation5testss_17test_preset_dubai
FNDA:0,_RNvNtNtNtCsbqoqex1KQlH_6probar9emulation11geolocation5testss_17test_preset_paris
FNDA:0,_RNvNtNtNtCsbqoqex1KQlH_6probar9emulation11geolocation5testss_17test_preset_tokyo
FNDA:0,_RNvNtNtNtCsbqoqex1KQlH_6probar9emulation11geolocation5testss_18test_mock_disabled
FNDA:0,_RNvNtNtNtCsbqoqex1KQlH_6probar9emulation11geolocation5testss_18test_preset_berlin
FNDA:0,_RNvNtNtNtCsbqoqex1KQlH_6probar9emulation11geolocation5testss_18test_preset_london
FNDA:0,_RNvNtNtNtCsbqoqex1KQlH_6probar9emulation11geolocation5testss_18test_preset_sydney
FNDA:0,_RNvNtNtNtCsbqoqex1KQlH_6probar9emulation11geolocation5testss_19test_error_equality
FNDA:0,_RNvNtNtNtCsbqoqex1KQlH_6probar9emulation11geolocation5testss_19test_error_priority
FNDA:0,_RNvNtNtNtCsbqoqex1KQlH_6probar9emulation11geolocation5testss_19test_position_clone
FNDA:0,_RNvNtNtNtCsbqoqex1KQlH_6probar9emulation11geolocation5testss_20test_mock_get_preset
FNDA:0,_RNvNtNtNtCsbqoqex1KQlH_6probar9emulation11geolocation5testss_20test_mock_set_preset
FNDA:0,_RNvNtNtNtCsbqoqex1KQlH_6probar9emulation11geolocation5testss_20test_preset_new_york
FNDA:0,_RNvNtNtNtCsbqoqex1KQlH_6probar9emulation11geolocation5testss_21test_mock_clear_error
FNDA:0,_RNvNtNtNtCsbqoqex1KQlH_6probar9emulation11geolocation5testss_21test_preset_sao_paulo
FNDA:0,_RNvNtNtNtCsbqoqex1KQlH_6probar9emulation11geolocation5testss_21test_preset_singapore
FNDA:0,_RNvNtNtNtCsbqoqex1KQlH_6probar9emulation11geolocation5testss_22test_mock_list_presets
FNDA:0,_RNvNtNtNtCsbqoqex1KQlH_6probar9emulation11geolocation5testss_22test_mock_set_position
FNDA:0,_RNvNtNtNtCsbqoqex1KQlH_6probar9emulation11geolocation5testss_22test_position_equality
FNDA:0,_RNvNtNtNtCsbqoqex1KQlH_6probar9emulation11geolocation5testss_24test_mock_clear_position
FNDA:0,_RNvNtNtNtCsbqoqex1KQlH_6probar9emulation11geolocation5testss_24test_mock_simulate_error
FNDA:0,_RNvNtNtNtCsbqoqex1KQlH_6probar9emulation11geolocation5testss_24test_position_with_speed
FNDA:0,_RNvNtNtNtCsbqoqex1KQlH_6probar9emulation11geolocation5testss_25test_preset_san_francisco
FNDA:0,_RNvNtNtNtCsbqoqex1KQlH_6probar9emulation11geolocation5testss_26test_position_with_heading
FNDA:0,_RNvNtNtNtCsbqoqex1KQlH_6probar9emulation11geolocation5testss_27test_mock_add_custom_preset
FNDA:0,_RNvNtNtNtCsbqoqex1KQlH_6probar9emulation11geolocation5testss_27test_mock_permission_denied
FNDA:0,_RNvNtNtNtCsbqoqex1KQlH_6probar9emulation11geolocation5testss_27test_position_builder_chain
FNDA:0,_RNvNtNtNtCsbqoqex1KQlH_6probar9emulation11geolocation5testss_27test_position_invalid_speed
FNDA:0,_RNvNtNtNtCsbqoqex1KQlH_6probar9emulation11geolocation5testss_27test_position_with_altitude
FNDA:0,_RNvNtNtNtCsbqoqex1KQlH_6probar9emulation11geolocation5testss_28test_mock_set_preset_unknown
FNDA:0,_RNvNtNtNtCsbqoqex1KQlH_6probar9emulation11geolocation5testss_29test_position_invalid_heading
FNDA:0,_RNvNtNtNtCsbqoqex1KQlH_6probar9emulation11geolocation5testss_30test_position_invalid_accuracy
FNDA:0,_RNvNtNtNtCsbqoqex1KQlH_6probar9emulation11geolocation5testss_34test_position_invalid_latitude_low
FNDA:0,_RNvNtNtNtCsbqoqex1KQlH_6probar9emulation11geolocation5testss_35test_position_invalid_latitude_high
FNDA:0,_RNvNtNtNtCsbqoqex1KQlH_6probar9emulation11geolocation5testss_35test_position_invalid_longitude_low
FNDA:0,_RNvNtNtNtCsbqoqex1KQlH_6probar9emulation11geolocation5testss_36test_position_invalid_longitude_high
FNDA:0,_RNvMNtNtCsbqoqex1KQlH_6probar9emulation11geolocationNtB2_19GeolocationPosition10with_speed
FNDA:0,_RNvMNtNtCsbqoqex1KQlH_6probar9emulation11geolocationNtB2_19GeolocationPosition12with_heading
FNDA:0,_RNvMNtNtCsbqoqex1KQlH_6probar9emulation11geolocationNtB2_19GeolocationPosition13san_francisco
FNDA:0,_RNvMNtNtCsbqoqex1KQlH_6probar9emulation11geolocationNtB2_19GeolocationPosition13with_altitude
FNDA:0,_RNvMNtNtCsbqoqex1KQlH_6probar9emulation11geolocationNtB2_19GeolocationPosition3new
FNDA:0,_RNvMNtNtCsbqoqex1KQlH_6probar9emulation11geolocationNtB2_19GeolocationPosition5dubai
FNDA:0,_RNvMNtNtCsbqoqex1KQlH_6probar9emulation11geolocationNtB2_19GeolocationPosition5paris
FNDA:0,_RNvMNtNtCsbqoqex1KQlH_6probar9emulation11geolocationNtB2_19GeolocationPosition5tokyo
FNDA:0,_RNvMNtNtCsbqoqex1KQlH_6probar9emulation11geolocationNtB2_19GeolocationPosition6berlin
FNDA:0,_RNvMNtNtCsbqoqex1KQlH_6probar9emulation11geolocationNtB2_19GeolocationPosition6london
FNDA:0,_RNvMNtNtCsbqoqex1KQlH_6probar9emulation11geolocationNtB2_19GeolocationPosition6sydney
FNDA:0,_RNvMNtNtCsbqoqex1KQlH_6probar9emulation11geolocationNtB2_19GeolocationPosition8new_york
FNDA:0,_RNvMNtNtCsbqoqex1KQlH_6probar9emulation11geolocationNtB2_19GeolocationPosition9sao_paulo
FNDA:0,_RNvMNtNtCsbqoqex1KQlH_6probar9emulation11geolocationNtB2_19GeolocationPosition9singapore
FNDA:0,_RNvMs0_NtNtCsbqoqex1KQlH_6probar9emulation11geolocationNtB5_15GeolocationMock10add_preset
FNDA:0,_RNvMs0_NtNtCsbqoqex1KQlH_6probar9emulation11geolocationNtB5_15GeolocationMock10get_preset
FNDA:0,_RNvMs0_NtNtCsbqoqex1KQlH_6probar9emulation11geolocationNtB5_15GeolocationMock10is_enabled
FNDA:0,_RNvMs0_NtNtCsbqoqex1KQlH_6probar9emulation11geolocationNtB5_15GeolocationMock10set_preset
FNDA:0,_RNvMs0_NtNtCsbqoqex1KQlH_6probar9emulation11geolocationNtB5_15GeolocationMock11clear_error
FNDA:0,_RNvMs0_NtNtCsbqoqex1KQlH_6probar9emulation11geolocationNtB5_15GeolocationMock11set_enabled
FNDA:0,_RNvMs0_NtNtCsbqoqex1KQlH_6probar9emulation11geolocationNtB5_15GeolocationMock12list_presets
FNDA:0,_RNvMs0_NtNtCsbqoqex1KQlH_6probar9emulation11geolocationNtB5_15GeolocationMock12set_position
FNDA:0,_RNvMs0_NtNtCsbqoqex1KQlH_6probar9emulation11geolocationNtB5_15GeolocationMock14clear_position
FNDA:0,_RNvMs0_NtNtCsbqoqex1KQlH_6probar9emulation11geolocationNtB5_15GeolocationMock14set_permission
FNDA:0,_RNvMs0_NtNtCsbqoqex1KQlH_6probar9emulation11geolocationNtB5_15GeolocationMock14simulate_error
FNDA:0,_RNvMs0_NtNtCsbqoqex1KQlH_6probar9emulation11geolocationNtB5_15GeolocationMock20get_current_position
FNDA:0,_RNvMs0_NtNtCsbqoqex1KQlH_6probar9emulation11geolocationNtB5_15GeolocationMock21is_permission_granted
FNDA:0,_RNvMs0_NtNtCsbqoqex1KQlH_6probar9emulation11geolocationNtB5_15GeolocationMock3new
FNDA:0,_RNvMs0_NtNtCsbqoqex1KQlH_6probar9emulation11geolocationNtB5_15GeolocationMock5reset
FNDA:0,_RNvXs_NtNtCsbqoqex1KQlH_6probar9emulation11geolocationNtB4_15GeolocationMockNtNtCs6RpC691fUBl_4core7default7Default7default
FNDA:0,_RNvMNtNtCs4eUmXem5O3q_6probar9emulation11geolocationNtB2_19GeolocationPosition10with_speed
FNDA:0,_RNvMNtNtCs4eUmXem5O3q_6probar9emulation11geolocationNtB2_19GeolocationPosition12with_heading
FNDA:0,_RNvMNtNtCs4eUmXem5O3q_6probar9emulation11geolocationNtB2_19GeolocationPosition13san_francisco
FNDA:0,_RNvMNtNtCs4eUmXem5O3q_6probar9emulation11geolocationNtB2_19GeolocationPosition13with_altitude
FNDA:0,_RNvMNtNtCs4eUmXem5O3q_6probar9emulation11geolocationNtB2_19GeolocationPosition3new
FNDA:0,_RNvMNtNtCs4eUmXem5O3q_6probar9emulation11geolocationNtB2_19GeolocationPosition5dubai
FNDA:0,_RNvMNtNtCs4eUmXem5O3q_6probar9emulation11geolocationNtB2_19GeolocationPosition5paris
FNDA:0,_RNvMNtNtCs4eUmXem5O3q_6probar9emulation11geolocationNtB2_19GeolocationPosition5tokyo
FNDA:0,_RNvMNtNtCs4eUmXem5O3q_6probar9emulation11geolocationNtB2_19GeolocationPosition6berlin
FNDA:0,_RNvMNtNtCs4eUmXem5O3q_6probar9emulation11geolocationNtB2_19GeolocationPosition6london
FNDA:0,_RNvMNtNtCs4eUmXem5O3q_6probar9emulation11geolocationNtB2_19GeolocationPosition6sydney
FNDA:0,_RNvMNtNtCs4eUmXem5O3q_6probar9emulation11geolocationNtB2_19GeolocationPosition8new_york
FNDA:0,_RNvMNtNtCs4eUmXem5O3q_6probar9emulation11geolocationNtB2_19GeolocationPosition9sao_paulo
FNDA:0,_RNvMNtNtCs4eUmXem5O3q_6probar9emulation11geolocationNtB2_19GeolocationPosition9singapore
FNDA:0,_RNvMs0_NtNtCs4eUmXem5O3q_6probar9emulation11geolocationNtB5_15GeolocationMock10add_preset
FNDA:0,_RNvMs0_NtNtCs4eUmXem5O3q_6probar9emulation11geolocationNtB5_15GeolocationMock10get_preset
FNDA:0,_RNvMs0_NtNtCs4eUmXem5O3q_6probar9emulation11geolocationNtB5_15GeolocationMock10is_enabled
FNDA:0,_RNvMs0_NtNtCs4eUmXem5O3q_6probar9emulation11geolocationNtB5_15GeolocationMock10set_preset
FNDA:0,_RNvMs0_NtNtCs4eUmXem5O3q_6probar9emulation11geolocationNtB5_15GeolocationMock11clear_error
FNDA:0,_RNvMs0_NtNtCs4eUmXem5O3q_6probar9emulation11geolocationNtB5_15GeolocationMock11set_enabled
FNDA:0,_RNvMs0_NtNtCs4eUmXem5O3q_6probar9emulation11geolocationNtB5_15GeolocationMock12list_presets
FNDA:0,_RNvMs0_NtNtCs4eUmXem5O3q_6probar9emulation11geolocationNtB5_15GeolocationMock12set_position
FNDA:0,_RNvMs0_NtNtCs4eUmXem5O3q_6probar9emulation11geolocationNtB5_15GeolocationMock14clear_position
FNDA:0,_RNvMs0_NtNtCs4eUmXem5O3q_6probar9emulation11geolocationNtB5_15GeolocationMock14set_permission
FNDA:0,_RNvMs0_NtNtCs4eUmXem5O3q_6probar9emulation11geolocationNtB5_15GeolocationMock14simulate_error
FNDA:0,_RNvMs0_NtNtCs4eUmXem5O3q_6probar9emulation11geolocationNtB5_15GeolocationMock20get_current_position
FNDA:0,_RNvMs0_NtNtCs4eUmXem5O3q_6probar9emulation11geolocationNtB5_15GeolocationMock21is_permission_granted
FNDA:0,_RNvMs0_NtNtCs4eUmXem5O3q_6probar9emulation11geolocationNtB5_15GeolocationMock3new
FNDA:0,_RNvMs0_NtNtCs4eUmXem5O3q_6probar9emulation11geolocationNtB5_15GeolocationMock5reset
FNDA:0,_RNvXs_NtNtCs4eUmXem5O3q_6probar9emulation11geolocationNtB4_15GeolocationMockNtNtCs6RpC691fUBl_4core7default7Default7default
FNF:71
FNH:0
DA:45,0
DA:46,0
DA:47,0
DA:48,0
DA:50,0
DA:51,0
DA:52,0
DA:54,0
DA:56,0
DA:57,0
DA:58,0
DA:59,0
DA:60,0
DA:61,0
DA:62,0
DA:63,0
DA:64,0
DA:65,0
DA:69,0
DA:70,0
DA:71,0
DA:72,0
DA:73,0
DA:77,0
DA:78,0
DA:79,0
DA:80,0
DA:82,0
DA:83,0
DA:84,0
DA:88,0
DA:89,0
DA:90,0
DA:91,0
DA:92,0
DA:98,0
DA:99,0
DA:100,0
DA:104,0
DA:105,0
DA:106,0
DA:110,0
DA:111,0
DA:112,0
DA:116,0
DA:117,0
DA:118,0
DA:122,0
DA:123,0
DA:124,0
DA:128,0
DA:129,0
DA:130,0
DA:134,0
DA:135,0
DA:136,0
DA:140,0
DA:141,0
DA:142,0
DA:146,0
DA:147,0
DA:148,0
DA:152,0
DA:153,0
DA:154,0
DA:184,0
DA:185,0
DA:186,0
DA:193,0
DA:194,0
DA:197,0
DA:198,0
DA:199,0
DA:200,0
DA:201,0
DA:202,0
DA:203,0
DA:204,0
DA:206,0
DA:207,0
DA:208,0
DA:209,0
DA:211,0
DA:212,0
DA:213,0
DA:214,0
DA:215,0
DA:216,0
DA:217,0
DA:218,0
DA:221,0
DA:222,0
DA:223,0
DA:228,0
DA:229,0
DA:230,0
DA:231,0
DA:233,0
DA:235,0
DA:238,0
DA:239,0
DA:240,0
DA:245,0
DA:247,0
DA:248,0
DA:249,0
DA:252,0
DA:253,0
DA:254,0
DA:257,0
DA:258,0
DA:259,0
DA:262,0
DA:263,0
DA:264,0
DA:265,0
DA:268,0
DA:269,0
DA:270,0
DA:274,0
DA:275,0
DA:276,0
DA:279,0
DA:280,0
DA:281,0
DA:285,0
DA:286,0
DA:287,0
DA:290,0
DA:291,0
DA:292,0
DA:295,0
DA:296,0
DA:297,0
DA:301,0
DA:302,0
DA:303,0
DA:307,0
DA:308,0
DA:309,0
DA:312,0
DA:313,0
DA:314,0
DA:317,0
DA:318,0
DA:319,0
DA:320,0
DA:321,0
DA:322,0
DA:332,0
DA:333,0
DA:334,0
DA:335,0
DA:336,0
DA:337,0
DA:338,0
DA:339,0
DA:340,0
DA:344,0
DA:345,0
DA:346,0
DA:350,0
DA:351,0
DA:352,0
DA:356,0
DA:357,0
DA:358,0
DA:362,0
DA:363,0
DA:364,0
DA:368,0
DA:369,0
DA:370,0
DA:373,0
DA:374,0
DA:375,0
DA:376,0
DA:377,0
DA:380,0
DA:381,0
DA:382,0
DA:383,0
DA:387,0
DA:388,0
DA:389,0
DA:392,0
DA:393,0
DA:394,0
DA:395,0
DA:399,0
DA:400,0
DA:401,0
DA:404,0
DA:405,0
DA:406,0
DA:407,0
DA:408,0
DA:410,0
DA:411,0
DA:412,0
DA:413,0
DA:414,0
DA:419,0
DA:420,0
DA:421,0
DA:422,0
DA:423,0
DA:426,0
DA:427,0
DA:428,0
DA:429,0
DA:430,0
DA:433,0
DA:434,0
DA:435,0
DA:436,0
DA:437,0
DA:440,0
DA:441,0
DA:442,0
DA:443,0
DA:444,0
DA:447,0
DA:448,0
DA:449,0
DA:450,0
DA:451,0
DA:454,0
DA:455,0
DA:456,0
DA:457,0
DA:458,0
DA:461,0
DA:462,0
DA:463,0
DA:464,0
DA:465,0
DA:468,0
DA:469,0
DA:470,0
DA:471,0
DA:472,0
DA:475,0
DA:476,0
DA:477,0
DA:478,0
DA:479,0
DA:482,0
DA:483,0
DA:484,0
DA:485,0
DA:486,0
DA:491,0
DA:492,0
DA:493,0
DA:494,0
DA:495,0
DA:496,0
DA:499,0
DA:500,0
DA:501,0
DA:502,0
DA:505,0
DA:506,0
DA:507,0
DA:508,0
DA:510,0
DA:511,0
DA:512,0
DA:515,0
DA:516,0
DA:517,0
DA:519,0
DA:520,0
DA:521,0
DA:524,0
DA:525,0
DA:526,0
DA:527,0
DA:530,0
DA:531,0
DA:532,0
DA:533,0
DA:535,0
DA:536,0
DA:537,0
DA:538,0
DA:541,0
DA:542,0
DA:543,0
DA:544,0
DA:545,0
DA:546,0
DA:547,0
DA:548,0
DA:551,0
DA:552,0
DA:553,0
DA:554,0
DA:556,0
DA:557,0
DA:558,0
DA:561,0
DA:562,0
DA:563,0
DA:564,0
DA:566,0
DA:567,0
DA:568,0
DA:571,0
DA:572,0
DA:573,0
DA:574,0
DA:576,0
DA:577,0
DA:578,0
DA:581,0
DA:582,0
DA:583,0
DA:584,0
DA:586,0
DA:587,0
DA:588,0
DA:591,0
DA:592,0
DA:593,0
DA:594,0
DA:595,0
DA:597,0
DA:598,0
DA:601,0
DA:602,0
DA:603,0
DA:604,0
DA:606,0
DA:607,0
DA:610,0
DA:611,0
DA:612,0
DA:613,0
DA:614,0
DA:615,0
DA:617,0
DA:619,0
DA:620,0
DA:621,0
DA:622,0
DA:625,0
DA:627,0
DA:628,0
DA:629,0
DA:630,0
DA:631,0
DA:633,0
DA:634,0
DA:637,0
DA:640,0
DA:641,0
DA:642,0
DA:643,0
DA:645,0
DA:646,0
DA:647,0
DA:650,0
DA:651,0
DA:655,0
DA:659,0
DA:662,0
DA:663,0
DA:664,0
DA:666,0
DA:667,0
DA:668,0
DA:671,0
DA:672,0
DA:673,0
DA:674,0
DA:675,0
DA:677,0
DA:678,0
DA:679,0
BRF:0
BRH:0
LF:381
LH:0
end_of_record
SF:/home/noah/src/probar/crates/probar/src/event.rs
FN:137,_RINvMs_NtCsbqoqex1KQlH_6probar5eventNtB5_10InputEvent11key_releaseReEB7_
FN:131,_RINvMs_NtCsbqoqex1KQlH_6probar5eventNtB5_10InputEvent9key_pressReEB7_
FN:40,_RNvMNtCsbqoqex1KQlH_6probar5eventNtB2_5Touch3tap
FN:70,_RNvMNtCsbqoqex1KQlH_6probar5eventNtB2_5Touch4hold
FN:50,_RNvMNtCsbqoqex1KQlH_6probar5eventNtB2_5Touch5swipe
FN:149,_RNvMs_NtCsbqoqex1KQlH_6probar5eventNtB4_10InputEvent10mouse_move
FN:143,_RNvMs_NtCsbqoqex1KQlH_6probar5eventNtB4_10InputEvent11mouse_click
FN:155,_RNvMs_NtCsbqoqex1KQlH_6probar5eventNtB4_10InputEvent14gamepad_button
FN:125,_RNvMs_NtCsbqoqex1KQlH_6probar5eventNtB4_10InputEvent5touch
FN:137,_RINvMs_NtCs4eUmXem5O3q_6probar5eventNtB5_10InputEvent11key_releasepEB7_
FN:40,_RNvMNtCs4eUmXem5O3q_6probar5eventNtB2_5Touch3tap
FN:70,_RNvMNtCs4eUmXem5O3q_6probar5eventNtB2_5Touch4hold
FN:50,_RNvMNtCs4eUmXem5O3q_6probar5eventNtB2_5Touch5swipe
FN:149,_RNvMs_NtCs4eUmXem5O3q_6probar5eventNtB4_10InputEvent10mouse_move
FN:143,_RNvMs_NtCs4eUmXem5O3q_6probar5eventNtB4_10InputEvent11mouse_click
FN:155,_RNvMs_NtCs4eUmXem5O3q_6probar5eventNtB4_10InputEvent14gamepad_button
FN:125,_RNvMs_NtCs4eUmXem5O3q_6probar5eventNtB4_10InputEvent5touch
FN:131,_RINvMs_NtCs4eUmXem5O3q_6probar5eventNtB5_10InputEvent9key_pressReEB7_
FNDA:0,_RINvMs_NtCsbqoqex1KQlH_6probar5eventNtB5_10InputEvent11key_releaseReEB7_
FNDA:0,_RINvMs_NtCsbqoqex1KQlH_6probar5eventNtB5_10InputEvent9key_pressReEB7_
FNDA:0,_RNvMNtCsbqoqex1KQlH_6probar5eventNtB2_5Touch3tap
FNDA:0,_RNvMNtCsbqoqex1KQlH_6probar5eventNtB2_5Touch4hold
FNDA:0,_RNvMNtCsbqoqex1KQlH_6probar5eventNtB2_5Touch5swipe
FNDA:0,_RNvMs_NtCsbqoqex1KQlH_6probar5eventNtB4_10InputEvent10mouse_move
FNDA:0,_RNvMs_NtCsbqoqex1KQlH_6probar5eventNtB4_10InputEvent11mouse_click
FNDA:0,_RNvMs_NtCsbqoqex1KQlH_6probar5eventNtB4_10InputEvent14gamepad_button
FNDA:0,_RNvMs_NtCsbqoqex1KQlH_6probar5eventNtB4_10InputEvent5touch
FNDA:0,_RINvMs_NtCs4eUmXem5O3q_6probar5eventNtB5_10InputEvent11key_releasepEB7_
FNDA:0,_RNvMNtCs4eUmXem5O3q_6probar5eventNtB2_5Touch3tap
FNDA:0,_RNvMNtCs4eUmXem5O3q_6probar5eventNtB2_5Touch4hold
FNDA:0,_RNvMNtCs4eUmXem5O3q_6probar5eventNtB2_5Touch5swipe
FNDA:0,_RNvMs_NtCs4eUmXem5O3q_6probar5eventNtB4_10InputEvent10mouse_move
FNDA:0,_RNvMs_NtCs4eUmXem5O3q_6probar5eventNtB4_10InputEvent11mouse_click
FNDA:0,_RNvMs_NtCs4eUmXem5O3q_6probar5eventNtB4_10InputEvent14gamepad_button
FNDA:0,_RNvMs_NtCs4eUmXem5O3q_6probar5eventNtB4_10InputEvent5touch
FNDA:0,_RINvMs_NtCs4eUmXem5O3q_6probar5eventNtB5_10InputEvent9key_pressReEB7_
FNF:9
FNH:0
DA:40,0
DA:41,0
DA:42,0
DA:43,0
DA:44,0
DA:45,0
DA:46,0
DA:50,0
DA:51,0
DA:52,0
DA:53,0
DA:54,0
DA:55,0
DA:56,0
DA:57,0
DA:58,0
DA:59,0
DA:60,0
DA:61,0
DA:62,0
DA:63,0
DA:64,0
DA:65,0
DA:66,0
DA:70,0
DA:71,0
DA:72,0
DA:73,0
DA:74,0
DA:75,0
DA:76,0
DA:125,0
DA:126,0
DA:127,0
DA:131,0
DA:132,0
DA:133,0
DA:137,0
DA:138,0
DA:139,0
DA:143,0
DA:144,0
DA:145,0
DA:149,0
DA:150,0
DA:151,0
DA:155,0
DA:156,0
DA:157,0
BRF:0
BRH:0
LF:49
LH:0
end_of_record
SF:/home/noah/src/probar/crates/probar/src/fixture.rs
FN:383,_RNvMs1_NtCsbqoqex1KQlH_6probar7fixtureDNtB5_7FixtureEL_6as_any
FN:450,_RNvMs3_NtCsbqoqex1KQlH_6probar7fixtureNtB5_13SimpleFixture13with_priority
FN:517,_RNvMs6_NtCsbqoqex1KQlH_6probar7fixtureNtB5_14FixtureBuilder15build_and_setup
FN:497,_RNvMs6_NtCsbqoqex1KQlH_6probar7fixtureNtB5_14FixtureBuilder3new
FN:512,_RNvMs6_NtCsbqoqex1KQlH_6probar7fixtureNtB5_14FixtureBuilder5build
FN:535,_RNvMs7_NtCsbqoqex1KQlH_6probar7fixtureNtB5_12FixtureScope3new
FN:236,_RNvMs_NtCsbqoqex1KQlH_6probar7fixtureNtB4_14FixtureManager12teardown_all
FN:241,_RNvMs_NtCsbqoqex1KQlH_6probar7fixtureNtB4_14FixtureManager20teardown_setup_order
FN:127,_RNvMs_NtCsbqoqex1KQlH_6probar7fixtureNtB4_14FixtureManager3new
FN:361,_RNvMs_NtCsbqoqex1KQlH_6probar7fixtureNtB4_14FixtureManager4list
FN:354,_RNvMs_NtCsbqoqex1KQlH_6probar7fixtureNtB4_14FixtureManager5clear
FN:157,_RNvMs_NtCsbqoqex1KQlH_6probar7fixtureNtB4_14FixtureManager5count
FN:339,_RNvMs_NtCsbqoqex1KQlH_6probar7fixtureNtB4_14FixtureManager5reset
FN:192,_RNvMs_NtCsbqoqex1KQlH_6probar7fixtureNtB4_14FixtureManager9setup_all
FN:473,_RNvXs4_NtCsbqoqex1KQlH_6probar7fixtureNtB5_13SimpleFixtureNtB5_7Fixture4name
FN:457,_RNvXs4_NtCsbqoqex1KQlH_6probar7fixtureNtB5_13SimpleFixtureNtB5_7Fixture5setup
FN:477,_RNvXs4_NtCsbqoqex1KQlH_6probar7fixtureNtB5_13SimpleFixtureNtB5_7Fixture8priority
FN:465,_RNvXs4_NtCsbqoqex1KQlH_6probar7fixtureNtB5_13SimpleFixtureNtB5_7Fixture8teardown
FN:547,_RINvMs7_NtCsbqoqex1KQlH_6probar7fixtureNtB6_12FixtureScope7get_mutpEB8_
FN:179,_RINvMs_NtCsbqoqex1KQlH_6probar7fixtureNtB5_14FixtureManager7get_mutpEB7_
FN:181,_RNCINvMs_NtCsbqoqex1KQlH_6probar7fixtureNtB7_14FixtureManager7get_mutpE0B9_
FN:590,_RNvMNtNtCsbqoqex1KQlH_6probar7fixture5testsNtB2_11TestFixture13with_priority
FN:389,_RNvMs1_NtCsbqoqex1KQlH_6probar7fixtureDNtB5_7FixtureEL_10as_any_mut
FN:377,_RNvXININtCsbqoqex1KQlH_6probar7fixtures0_0pEpNtB5_5AsAny10as_any_mutB7_
FN:373,_RNvXININtCsbqoqex1KQlH_6probar7fixtures0_0pEpNtB5_5AsAny6as_anyB7_
FN:116,_RNvXNtCsbqoqex1KQlH_6probar7fixtureNtB2_14FixtureManagerNtNtCs6RpC691fUBl_4core3fmt5Debug3fmt
FN:406,_RNvXs2_NtCsbqoqex1KQlH_6probar7fixtureNtB5_13SimpleFixtureNtNtCs6RpC691fUBl_4core3fmt5Debug3fmt
FN:489,_RNvXs5_NtCsbqoqex1KQlH_6probar7fixtureNtB5_14FixtureBuilderNtNtCs6RpC691fUBl_4core7default7Default7default
FN:560,_RNvXs9_NtCsbqoqex1KQlH_6probar7fixtureNtB5_12FixtureScopeNtNtCs6RpC691fUBl_4core3fmt5Debug3fmt
FN:888,_RNvNtNtNtCsbqoqex1KQlH_6probar7fixture5tests20simple_fixture_testss_25test_simple_fixture_setup
FN:875,_RNvNtNtNtCsbqoqex1KQlH_6probar7fixture5tests20simple_fixture_testss_28test_simple_fixture_creation
FN:902,_RNvNtNtNtCsbqoqex1KQlH_6probar7fixture5tests20simple_fixture_testss_28test_simple_fixture_teardown
FN:882,_RNvNtNtNtCsbqoqex1KQlH_6probar7fixture5tests20simple_fixture_testss_33test_simple_fixture_with_priority
FN:648,_RNvNtNtNtCsbqoqex1KQlH_6probar7fixture5tests19fixture_state_testss_19test_state_equality
FN:971,_RNvNtNtNtCsbqoqex1KQlH_6probar7fixture5tests19fixture_scope_testss_22test_scope_get_fixture
FN:954,_RNvNtNtNtCsbqoqex1KQlH_6probar7fixture5tests19fixture_scope_testss_24test_scope_auto_teardown
FN:787,_RNvNtNtNtCsbqoqex1KQlH_6probar7fixture5tests21fixture_manager_testss_10test_clear
FN:796,_RNvNtNtNtCsbqoqex1KQlH_6probar7fixture5tests21fixture_manager_testss_10test_reset
FN:684,_RNvNtNtNtCsbqoqex1KQlH_6probar7fixture5tests21fixture_manager_testss_14test_setup_all
FN:777,_RNvNtNtNtCsbqoqex1KQlH_6probar7fixture5tests21fixture_manager_testss_15test_unregister
FN:738,_RNvNtNtNtCsbqoqex1KQlH_6probar7fixture5tests21fixture_manager_testss_16test_get_fixture
FN:661,_RNvNtNtNtCsbqoqex1KQlH_6probar7fixture5tests21fixture_manager_testss_16test_new_manager
FN:697,_RNvNtNtNtCsbqoqex1KQlH_6probar7fixture5tests21fixture_manager_testss_17test_teardown_all
FN:757,_RNvNtNtNtCsbqoqex1KQlH_6probar7fixture5tests21fixture_manager_testss_18test_failing_setup
FN:767,_RNvNtNtNtCsbqoqex1KQlH_6probar7fixture5tests21fixture_manager_testss_21test_failing_teardown
FN:667,_RNvNtNtNtCsbqoqex1KQlH_6probar7fixture5tests21fixture_manager_testss_21test_register_fixture
FN:676,_RNvNtNtNtCsbqoqex1KQlH_6probar7fixture5tests21fixture_manager_testss_23test_state_before_setup
FN:711,_RNvNtNtNtCsbqoqex1KQlH_6probar7fixture5tests21fixture_manager_testss_25test_setup_single_fixture
FN:723,_RNvNtNtNtCsbqoqex1KQlH_6probar7fixture5tests21fixture_manager_testss_28test_teardown_single_fixture
FN:751,_RNvNtNtNtCsbqoqex1KQlH_6probar7fixture5tests21fixture_manager_testss_29test_get_unregistered_fixture
FN:806,_RNvNtNtNtCsbqoqex1KQlH_6probar7fixture5tests21fixture_manager_testss_9test_list
FN:920,_RNvNtNtNtCsbqoqex1KQlH_6probar7fixture5tests21fixture_builder_testss_16test_builder_new
FN:936,_RNvNtNtNtCsbqoqex1KQlH_6probar7fixture5tests21fixture_builder_testss_22test_builder_and_setup
FN:927,_RNvNtNtNtCsbqoqex1KQlH_6probar7fixture5tests21fixture_builder_testss_25test_builder_with_fixture
FN:820,_RNvNtNtNtCsbqoqex1KQlH_6probar7fixture5tests14priority_testss_19test_priority_order
FN:832,_RNvXNvNtNtNtCsbqoqex1KQlH_6probar7fixture5tests14priority_testss_19test_priority_orderNtB2_14OrderedFixtureNtB8_7Fixture5setup
FN:842,_RNvXNvNtNtNtCsbqoqex1KQlH_6probar7fixture5tests14priority_testss_19test_priority_orderNtB2_14OrderedFixtureNtB8_7Fixture8priority
FN:838,_RNvXNvNtNtNtCsbqoqex1KQlH_6probar7fixture5tests14priority_testss_19test_priority_orderNtB2_14OrderedFixtureNtB8_7Fixture8teardown
FN:859,_RNCNvNtNtNtCsbqoqex1KQlH_6probar7fixture5tests14priority_testss_19test_priority_order0B9_
FN:60,_RNvYNtNvNtNtNtCsbqoqex1KQlH_6probar7fixture5tests14priority_testss_19test_priority_order14OrderedFixtureNtBa_7Fixture4nameBc_
FN:60,_RNvYNtNtNtCsbqoqex1KQlH_6probar7fixture5tests11TestFixtureNtB6_7Fixture4nameB8_
FN:60,_RNvYNtNtNtCsbqoqex1KQlH_6probar7fixture5tests19FailingSetupFixtureNtB6_7Fixture4nameB8_
FN:65,_RNvYNtNtNtCsbqoqex1KQlH_6probar7fixture5tests19FailingSetupFixtureNtB6_7Fixture8priorityB8_
FN:60,_RNvYNtNtNtCsbqoqex1KQlH_6probar7fixture5tests22FailingTeardownFixtureNtB6_7Fixture4nameB8_
FN:65,_RNvYNtNtNtCsbqoqex1KQlH_6probar7fixture5tests22FailingTeardownFixtureNtB6_7Fixture8priorityB8_
FN:430,_RINvMs3_NtCsbqoqex1KQlH_6probar7fixtureNtB6_13SimpleFixture10with_setupNCNvNtNtB6_5tests14priority_testss_19test_priority_order0EB8_
FN:430,_RINvMs3_NtCsbqoqex1KQlH_6probar7fixtureNtB6_13SimpleFixture10with_setupNCNvNtNtB6_5tests20simple_fixture_testss_25test_simple_fixture_setup0EB8_
FN:440,_RINvMs3_NtCsbqoqex1KQlH_6probar7fixtureNtB6_13SimpleFixture13with_teardownNCNvNtNtB6_5tests20simple_fixture_testss_28test_simple_fixture_teardown0EB8_
FN:418,_RINvMs3_NtCsbqoqex1KQlH_6probar7fixtureNtB6_13SimpleFixture3newReEB8_
FN:505,_RINvMs6_NtCsbqoqex1KQlH_6probar7fixtureNtB6_14FixtureBuilder12with_fixtureNtNtB6_5tests11TestFixtureEB8_
FN:541,_RINvMs7_NtCsbqoqex1KQlH_6probar7fixtureNtB6_12FixtureScope3getNtNtB6_5tests11TestFixtureEB8_
FN:347,_RINvMs_NtCsbqoqex1KQlH_6probar7fixtureNtB5_14FixtureManager10unregisterNtNtB5_5tests11TestFixtureEB7_
FN:150,_RINvMs_NtCsbqoqex1KQlH_6probar7fixtureNtB5_14FixtureManager13is_registeredNtNtB5_5tests11TestFixtureEB7_
FN:170,_RINvMs_NtCsbqoqex1KQlH_6probar7fixtureNtB5_14FixtureManager3getNtNtB5_5tests11TestFixtureEB7_
FN:279,_RINvMs_NtCsbqoqex1KQlH_6probar7fixtureNtB5_14FixtureManager5setupNtNtB5_5tests11TestFixtureEB7_
FN:163,_RINvMs_NtCsbqoqex1KQlH_6probar7fixtureNtB5_14FixtureManager5stateNtNtB5_5tests11TestFixtureEB7_
FN:163,_RINvMs_NtCsbqoqex1KQlH_6probar7fixtureNtB5_14FixtureManager5stateNtNtB5_5tests19FailingSetupFixtureEB7_
FN:134,_RINvMs_NtCsbqoqex1KQlH_6probar7fixtureNtB5_14FixtureManager8registerNtB5_13SimpleFixtureEB7_
FN:134,_RINvMs_NtCsbqoqex1KQlH_6probar7fixtureNtB5_14FixtureManager8registerNtNtB5_5tests11TestFixtureEB7_
FN:134,_RINvMs_NtCsbqoqex1KQlH_6probar7fixtureNtB5_14FixtureManager8registerNtNtB5_5tests19FailingSetupFixtureEB7_
FN:134,_RINvMs_NtCsbqoqex1KQlH_6probar7fixtureNtB5_14FixtureManager8registerNtNtB5_5tests22FailingTeardownFixtureEB7_
FN:134,_RINvMs_NtCsbqoqex1KQlH_6probar7fixtureNtB5_14FixtureManager8registerNtNvNtNtB5_5tests14priority_testss_19test_priority_order14OrderedFixtureEB7_
FN:310,_RINvMs_NtCsbqoqex1KQlH_6probar7fixtureNtB5_14FixtureManager8teardownNtNtB5_5tests11TestFixtureEB7_
FN:349,_RNCINvMs_NtCsbqoqex1KQlH_6probar7fixtureNtB7_14FixtureManager10unregisterNtNtB7_5tests11TestFixtureE0B9_
FN:172,_RNCINvMs_NtCsbqoqex1KQlH_6probar7fixtureNtB7_14FixtureManager3getNtNtB7_5tests11TestFixtureE0B9_
FN:282,_RNCINvMs_NtCsbqoqex1KQlH_6probar7fixtureNtB7_14FixtureManager5setupNtNtB7_5tests11TestFixtureE0B9_
FN:293,_RNCINvMs_NtCsbqoqex1KQlH_6probar7fixtureNtB7_14FixtureManager5setupNtNtB7_5tests11TestFixtureEs_0B9_
FN:313,_RNCINvMs_NtCsbqoqex1KQlH_6probar7fixtureNtB7_14FixtureManager8teardownNtNtB7_5tests11TestFixtureE0B9_
FN:333,_RNCINvMs_NtCsbqoqex1KQlH_6probar7fixtureNtB7_14FixtureManager8teardownNtNtB7_5tests11TestFixtureEs0_0B9_
FN:327,_RNCINvMs_NtCsbqoqex1KQlH_6probar7fixtureNtB7_14FixtureManager8teardownNtNtB7_5tests11TestFixtureEs_0B9_
FN:362,_RNCNvMs_NtCsbqoqex1KQlH_6probar7fixtureNtB6_14FixtureManager4list0B8_
FN:197,_RNCNvMs_NtCsbqoqex1KQlH_6probar7fixtureNtB6_14FixtureManager9setup_all0B8_
FN:199,_RNCNvMs_NtCsbqoqex1KQlH_6probar7fixtureNtB6_14FixtureManager9setup_alls_0B8_
FN:892,_RNCNvNtNtNtCsbqoqex1KQlH_6probar7fixture5tests20simple_fixture_testss_25test_simple_fixture_setup0B9_
FN:906,_RNCNvNtNtNtCsbqoqex1KQlH_6probar7fixture5tests20simple_fixture_testss_28test_simple_fixture_teardown0B9_
FN:553,_RNvXs8_NtCsbqoqex1KQlH_6probar7fixtureNtB5_12FixtureScopeNtNtNtCs6RpC691fUBl_4core3ops4drop4Drop4drop
FN:582,_RNvMNtNtCsbqoqex1KQlH_6probar7fixture5testsNtB2_11TestFixture3new
FN:617,_RNvXs0_NtNtCsbqoqex1KQlH_6probar7fixture5testsNtB5_19FailingSetupFixtureNtB7_7Fixture5setup
FN:623,_RNvXs0_NtNtCsbqoqex1KQlH_6probar7fixture5testsNtB5_19FailingSetupFixtureNtB7_7Fixture8teardown
FN:633,_RNvXs1_NtNtCsbqoqex1KQlH_6probar7fixture5testsNtB5_22FailingTeardownFixtureNtB7_7Fixture5setup
FN:637,_RNvXs1_NtNtCsbqoqex1KQlH_6probar7fixture5testsNtB5_22FailingTeardownFixtureNtB7_7Fixture8teardown
FN:597,_RNvXs_NtNtCsbqoqex1KQlH_6probar7fixture5testsNtB4_11TestFixtureNtB6_7Fixture5setup
FN:607,_RNvXs_NtNtCsbqoqex1KQlH_6probar7fixture5testsNtB4_11TestFixtureNtB6_7Fixture8priority
FN:602,_RNvXs_NtNtCsbqoqex1KQlH_6probar7fixture5testsNtB4_11TestFixtureNtB6_7Fixture8teardown
FN:430,_RINvMs3_NtCs4eUmXem5O3q_6probar7fixtureNtB6_13SimpleFixture10with_setuppEB8_
FN:440,_RINvMs3_NtCs4eUmXem5O3q_6probar7fixtureNtB6_13SimpleFixture13with_teardownpEB8_
FN:418,_RINvMs3_NtCs4eUmXem5O3q_6probar7fixtureNtB6_13SimpleFixture3newpEB8_
FN:505,_RINvMs6_NtCs4eUmXem5O3q_6probar7fixtureNtB6_14FixtureBuilder12with_fixturepEB8_
FN:541,_RINvMs7_NtCs4eUmXem5O3q_6probar7fixtureNtB6_12FixtureScope3getpEB8_
FN:547,_RINvMs7_NtCs4eUmXem5O3q_6probar7fixtureNtB6_12FixtureScope7get_mutpEB8_
FN:347,_RINvMs_NtCs4eUmXem5O3q_6probar7fixtureNtB5_14FixtureManager10unregisterpEB7_
FN:150,_RINvMs_NtCs4eUmXem5O3q_6probar7fixtureNtB5_14FixtureManager13is_registeredpEB7_
FN:170,_RINvMs_NtCs4eUmXem5O3q_6probar7fixtureNtB5_14FixtureManager3getpEB7_
FN:279,_RINvMs_NtCs4eUmXem5O3q_6probar7fixtureNtB5_14FixtureManager5setuppEB7_
FN:163,_RINvMs_NtCs4eUmXem5O3q_6probar7fixtureNtB5_14FixtureManager5statepEB7_
FN:179,_RINvMs_NtCs4eUmXem5O3q_6probar7fixtureNtB5_14FixtureManager7get_mutpEB7_
FN:134,_RINvMs_NtCs4eUmXem5O3q_6probar7fixtureNtB5_14FixtureManager8registerpEB7_
FN:310,_RINvMs_NtCs4eUmXem5O3q_6probar7fixtureNtB5_14FixtureManager8teardownpEB7_
FN:349,_RNCINvMs_NtCs4eUmXem5O3q_6probar7fixtureNtB7_14FixtureManager10unregisterpE0B9_
FN:172,_RNCINvMs_NtCs4eUmXem5O3q_6probar7fixtureNtB7_14FixtureManager3getpE0B9_
FN:282,_RNCINvMs_NtCs4eUmXem5O3q_6probar7fixtureNtB7_14FixtureManager5setuppE0B9_
FN:293,_RNCINvMs_NtCs4eUmXem5O3q_6probar7fixtureNtB7_14FixtureManager5setuppEs_0B9_
FN:181,_RNCINvMs_NtCs4eUmXem5O3q_6probar7fixtureNtB7_14FixtureManager7get_mutpE0B9_
FN:313,_RNCINvMs_NtCs4eUmXem5O3q_6probar7fixtureNtB7_14FixtureManager8teardownpE0B9_
FN:333,_RNCINvMs_NtCs4eUmXem5O3q_6probar7fixtureNtB7_14FixtureManager8teardownpEs0_0B9_
FN:327,_RNCINvMs_NtCs4eUmXem5O3q_6probar7fixtureNtB7_14FixtureManager8teardownpEs_0B9_
FN:377,_RNvXININtCs4eUmXem5O3q_6probar7fixtures0_0pEpNtB5_5AsAny10as_any_mutB7_
FN:373,_RNvXININtCs4eUmXem5O3q_6probar7fixtures0_0pEpNtB5_5AsAny6as_anyB7_
FN:60,_RNvYpNtNtCs4eUmXem5O3q_6probar7fixture7Fixture4nameB7_
FN:65,_RNvYpNtNtCs4eUmXem5O3q_6probar7fixture7Fixture8priorityB7_
FN:389,_RNvMs1_NtCs4eUmXem5O3q_6probar7fixtureDNtB5_7FixtureEL_10as_any_mut
FN:383,_RNvMs1_NtCs4eUmXem5O3q_6probar7fixtureDNtB5_7FixtureEL_6as_any
FN:450,_RNvMs3_NtCs4eUmXem5O3q_6probar7fixtureNtB5_13SimpleFixture13with_priority
FN:517,_RNvMs6_NtCs4eUmXem5O3q_6probar7fixtureNtB5_14FixtureBuilder15build_and_setup
FN:497,_RNvMs6_NtCs4eUmXem5O3q_6probar7fixtureNtB5_14FixtureBuilder3new
FN:512,_RNvMs6_NtCs4eUmXem5O3q_6probar7fixtureNtB5_14FixtureBuilder5build
FN:535,_RNvMs7_NtCs4eUmXem5O3q_6probar7fixtureNtB5_12FixtureScope3new
FN:236,_RNvMs_NtCs4eUmXem5O3q_6probar7fixtureNtB4_14FixtureManager12teardown_all
FN:241,_RNvMs_NtCs4eUmXem5O3q_6probar7fixtureNtB4_14FixtureManager20teardown_setup_order
FN:127,_RNvMs_NtCs4eUmXem5O3q_6probar7fixtureNtB4_14FixtureManager3new
FN:361,_RNvMs_NtCs4eUmXem5O3q_6probar7fixtureNtB4_14FixtureManager4list
FN:354,_RNvMs_NtCs4eUmXem5O3q_6probar7fixtureNtB4_14FixtureManager5clear
FN:157,_RNvMs_NtCs4eUmXem5O3q_6probar7fixtureNtB4_14FixtureManager5count
FN:339,_RNvMs_NtCs4eUmXem5O3q_6probar7fixtureNtB4_14FixtureManager5reset
FN:192,_RNvMs_NtCs4eUmXem5O3q_6probar7fixtureNtB4_14FixtureManager9setup_all
FN:116,_RNvXNtCs4eUmXem5O3q_6probar7fixtureNtB2_14FixtureManagerNtNtCs6RpC691fUBl_4core3fmt5Debug3fmt
FN:406,_RNvXs2_NtCs4eUmXem5O3q_6probar7fixtureNtB5_13SimpleFixtureNtNtCs6RpC691fUBl_4core3fmt5Debug3fmt
FN:473,_RNvXs4_NtCs4eUmXem5O3q_6probar7fixtureNtB5_13SimpleFixtureNtB5_7Fixture4name
FN:457,_RNvXs4_NtCs4eUmXem5O3q_6probar7fixtureNtB5_13SimpleFixtureNtB5_7Fixture5setup
FN:477,_RNvXs4_NtCs4eUmXem5O3q_6probar7fixtureNtB5_13SimpleFixtureNtB5_7Fixture8priority
FN:465,_RNvXs4_NtCs4eUmXem5O3q_6probar7fixtureNtB5_13SimpleFixtureNtB5_7Fixture8teardown
FN:489,_RNvXs5_NtCs4eUmXem5O3q_6probar7fixtureNtB5_14FixtureBuilderNtNtCs6RpC691fUBl_4core7default7Default7default
FN:560,_RNvXs9_NtCs4eUmXem5O3q_6probar7fixtureNtB5_12FixtureScopeNtNtCs6RpC691fUBl_4core3fmt5Debug3fmt
FN:362,_RNCNvMs_NtCs4eUmXem5O3q_6probar7fixtureNtB6_14FixtureManager4list0B8_
FN:197,_RNCNvMs_NtCs4eUmXem5O3q_6probar7fixtureNtB6_14FixtureManager9setup_all0B8_
FN:199,_RNCNvMs_NtCs4eUmXem5O3q_6probar7fixtureNtB6_14FixtureManager9setup_alls_0B8_
FN:553,_RNvXs8_NtCs4eUmXem5O3q_6probar7fixtureNtB5_12FixtureScopeNtNtNtCs6RpC691fUBl_4core3ops4drop4Drop4drop
FNDA:0,_RNvMs1_NtCsbqoqex1KQlH_6probar7fixtureDNtB5_7FixtureEL_6as_any
FNDA:0,_RNvMs3_NtCsbqoqex1KQlH_6probar7fixtureNtB5_13SimpleFixture13with_priority
FNDA:0,_RNvMs6_NtCsbqoqex1KQlH_6probar7fixtureNtB5_14FixtureBuilder15build_and_setup
FNDA:0,_RNvMs6_NtCsbqoqex1KQlH_6probar7fixtureNtB5_14FixtureBuilder3new
FNDA:0,_RNvMs6_NtCsbqoqex1KQlH_6probar7fixtureNtB5_14FixtureBuilder5build
FNDA:0,_RNvMs7_NtCsbqoqex1KQlH_6probar7fixtureNtB5_12FixtureScope3new
FNDA:0,_RNvMs_NtCsbqoqex1KQlH_6probar7fixtureNtB4_14FixtureManager12teardown_all
FNDA:0,_RNvMs_NtCsbqoqex1KQlH_6probar7fixtureNtB4_14FixtureManager20teardown_setup_order
FNDA:0,_RNvMs_NtCsbqoqex1KQlH_6probar7fixtureNtB4_14FixtureManager3new
FNDA:0,_RNvMs_NtCsbqoqex1KQlH_6probar7fixtureNtB4_14FixtureManager4list
FNDA:0,_RNvMs_NtCsbqoqex1KQlH_6probar7fixtureNtB4_14FixtureManager5clear
FNDA:0,_RNvMs_NtCsbqoqex1KQlH_6probar7fixtureNtB4_14FixtureManager5count
FNDA:0,_RNvMs_NtCsbqoqex1KQlH_6probar7fixtureNtB4_14FixtureManager5reset
FNDA:0,_RNvMs_NtCsbqoqex1KQlH_6probar7fixtureNtB4_14FixtureManager9setup_all
FNDA:0,_RNvXs4_NtCsbqoqex1KQlH_6probar7fixtureNtB5_13SimpleFixtureNtB5_7Fixture4name
FNDA:0,_RNvXs4_NtCsbqoqex1KQlH_6probar7fixtureNtB5_13SimpleFixtureNtB5_7Fixture5setup
FNDA:0,_RNvXs4_NtCsbqoqex1KQlH_6probar7fixtureNtB5_13SimpleFixtureNtB5_7Fixture8priority
FNDA:0,_RNvXs4_NtCsbqoqex1KQlH_6probar7fixtureNtB5_13SimpleFixtureNtB5_7Fixture8teardown
FNDA:0,_RINvMs7_NtCsbqoqex1KQlH_6probar7fixtureNtB6_12FixtureScope7get_mutpEB8_
FNDA:0,_RINvMs_NtCsbqoqex1KQlH_6probar7fixtureNtB5_14FixtureManager7get_mutpEB7_
FNDA:0,_RNCINvMs_NtCsbqoqex1KQlH_6probar7fixtureNtB7_14FixtureManager7get_mutpE0B9_
FNDA:0,_RNvMNtNtCsbqoqex1KQlH_6probar7fixture5testsNtB2_11TestFixture13with_priority
FNDA:0,_RNvMs1_NtCsbqoqex1KQlH_6probar7fixtureDNtB5_7FixtureEL_10as_any_mut
FNDA:0,_RNvXININtCsbqoqex1KQlH_6probar7fixtures0_0pEpNtB5_5AsAny10as_any_mutB7_
FNDA:0,_RNvXININtCsbqoqex1KQlH_6probar7fixtures0_0pEpNtB5_5AsAny6as_anyB7_
FNDA:0,_RNvXNtCsbqoqex1KQlH_6probar7fixtureNtB2_14FixtureManagerNtNtCs6RpC691fUBl_4core3fmt5Debug3fmt
FNDA:0,_RNvXs2_NtCsbqoqex1KQlH_6probar7fixtureNtB5_13SimpleFixtureNtNtCs6RpC691fUBl_4core3fmt5Debug3fmt
FNDA:0,_RNvXs5_NtCsbqoqex1KQlH_6probar7fixtureNtB5_14FixtureBuilderNtNtCs6RpC691fUBl_4core7default7Default7default
FNDA:0,_RNvXs9_NtCsbqoqex1KQlH_6probar7fixtureNtB5_12FixtureScopeNtNtCs6RpC691fUBl_4core3fmt5Debug3fmt
FNDA:0,_RNvNtNtNtCsbqoqex1KQlH_6probar7fixture5tests20simple_fixture_testss_25test_simple_fixture_setup
FNDA:0,_RNvNtNtNtCsbqoqex1KQlH_6probar7fixture5tests20simple_fixture_testss_28test_simple_fixture_creation
FNDA:0,_RNvNtNtNtCsbqoqex1KQlH_6probar7fixture5tests20simple_fixture_testss_28test_simple_fixture_teardown
FNDA:0,_RNvNtNtNtCsbqoqex1KQlH_6probar7fixture5tests20simple_fixture_testss_33test_simple_fixture_with_priority
FNDA:0,_RNvNtNtNtCsbqoqex1KQlH_6probar7fixture5tests19fixture_state_testss_19test_state_equality
FNDA:0,_RNvNtNtNtCsbqoqex1KQlH_6probar7fixture5tests19fixture_scope_testss_22test_scope_get_fixture
FNDA:0,_RNvNtNtNtCsbqoqex1KQlH_6probar7fixture5tests19fixture_scope_testss_24test_scope_auto_teardown
FNDA:0,_RNvNtNtNtCsbqoqex1KQlH_6probar7fixture5tests21fixture_manager_testss_10test_clear
FNDA:0,_RNvNtNtNtCsbqoqex1KQlH_6probar7fixture5tests21fixture_manager_testss_10test_reset
FNDA:0,_RNvNtNtNtCsbqoqex1KQlH_6probar7fixture5tests21fixture_manager_testss_14test_setup_all
FNDA:0,_RNvNtNtNtCsbqoqex1KQlH_6probar7fixture5tests21fixture_manager_testss_15test_unregister
FNDA:0,_RNvNtNtNtCsbqoqex1KQlH_6probar7fixture5tests21fixture_manager_testss_16test_get_fixture
FNDA:0,_RNvNtNtNtCsbqoqex1KQlH_6probar7fixture5tests21fixture_manager_testss_16test_new_manager
FNDA:0,_RNvNtNtNtCsbqoqex1KQlH_6probar7fixture5tests21fixture_manager_testss_17test_teardown_all
FNDA:0,_RNvNtNtNtCsbqoqex1KQlH_6probar7fixture5tests21fixture_manager_testss_18test_failing_setup
FNDA:0,_RNvNtNtNtCsbqoqex1KQlH_6probar7fixture5tests21fixture_manager_testss_21test_failing_teardown
FNDA:0,_RNvNtNtNtCsbqoqex1KQlH_6probar7fixture5tests21fixture_manager_testss_21test_register_fixture
FNDA:0,_RNvNtNtNtCsbqoqex1KQlH_6probar7fixture5tests21fixture_manager_testss_23test_state_before_setup
FNDA:0,_RNvNtNtNtCsbqoqex1KQlH_6probar7fixture5tests21fixture_manager_testss_25test_setup_single_fixture
FNDA:0,_RNvNtNtNtCsbqoqex1KQlH_6probar7fixture5tests21fixture_manager_testss_28test_teardown_single_fixture
FNDA:0,_RNvNtNtNtCsbqoqex1KQlH_6probar7fixture5tests21fixture_manager_testss_29test_get_unregistered_fixture
FNDA:0,_RNvNtNtNtCsbqoqex1KQlH_6probar7fixture5tests21fixture_manager_testss_9test_list
FNDA:0,_RNvNtNtNtCsbqoqex1KQlH_6probar7fixture5tests21fixture_builder_testss_16test_builder_new
FNDA:0,_RNvNtNtNtCsbqoqex1KQlH_6probar7fixture5tests21fixture_builder_testss_22test_builder_and_setup
FNDA:0,_RNvNtNtNtCsbqoqex1KQlH_6probar7fixture5tests21fixture_builder_testss_25test_builder_with_fixture
FNDA:0,_RNvNtNtNtCsbqoqex1KQlH_6probar7fixture5tests14priority_testss_19test_priority_order
FNDA:0,_RNvXNvNtNtNtCsbqoqex1KQlH_6probar7fixture5tests14priority_testss_19test_priority_orderNtB2_14OrderedFixtureNtB8_7Fixture5setup
FNDA:0,_RNvXNvNtNtNtCsbqoqex1KQlH_6probar7fixture5tests14priority_testss_19test_priority_orderNtB2_14OrderedFixtureNtB8_7Fixture8priority
FNDA:0,_RNvXNvNtNtNtCsbqoqex1KQlH_6probar7fixture5tests14priority_testss_19test_priority_orderNtB2_14OrderedFixtureNtB8_7Fixture8teardown
FNDA:0,_RNCNvNtNtNtCsbqoqex1KQlH_6probar7fixture5tests14priority_testss_19test_priority_order0B9_
FNDA:0,_RNvYNtNvNtNtNtCsbqoqex1KQlH_6probar7fixture5tests14priority_testss_19test_priority_order14OrderedFixtureNtBa_7Fixture4nameBc_
FNDA:0,_RNvYNtNtNtCsbqoqex1KQlH_6probar7fixture5tests11TestFixtureNtB6_7Fixture4nameB8_
FNDA:0,_RNvYNtNtNtCsbqoqex1KQlH_6probar7fixture5tests19FailingSetupFixtureNtB6_7Fixture4nameB8_
FNDA:0,_RNvYNtNtNtCsbqoqex1KQlH_6probar7fixture5tests19FailingSetupFixtureNtB6_7Fixture8priorityB8_
FNDA:0,_RNvYNtNtNtCsbqoqex1KQlH_6probar7fixture5tests22FailingTeardownFixtureNtB6_7Fixture4nameB8_
FNDA:0,_RNvYNtNtNtCsbqoqex1KQlH_6probar7fixture5tests22FailingTeardownFixtureNtB6_7Fixture8priorityB8_
FNDA:0,_RINvMs3_NtCsbqoqex1KQlH_6probar7fixtureNtB6_13SimpleFixture10with_setupNCNvNtNtB6_5tests14priority_testss_19test_priority_order0EB8_
FNDA:0,_RINvMs3_NtCsbqoqex1KQlH_6probar7fixtureNtB6_13SimpleFixture10with_setupNCNvNtNtB6_5tests20simple_fixture_testss_25test_simple_fixture_setup0EB8_
FNDA:0,_RINvMs3_NtCsbqoqex1KQlH_6probar7fixtureNtB6_13SimpleFixture13with_teardownNCNvNtNtB6_5tests20simple_fixture_testss_28test_simple_fixture_teardown0EB8_
FNDA:0,_RINvMs3_NtCsbqoqex1KQlH_6probar7fixtureNtB6_13SimpleFixture3newReEB8_
FNDA:0,_RINvMs6_NtCsbqoqex1KQlH_6probar7fixtureNtB6_14FixtureBuilder12with_fixtureNtNtB6_5tests11TestFixtureEB8_
FNDA:0,_RINvMs7_NtCsbqoqex1KQlH_6probar7fixtureNtB6_12FixtureScope3getNtNtB6_5tests11TestFixtureEB8_
FNDA:0,_RINvMs_NtCsbqoqex1KQlH_6probar7fixtureNtB5_14FixtureManager10unregisterNtNtB5_5tests11TestFixtureEB7_
FNDA:0,_RINvMs_NtCsbqoqex1KQlH_6probar7fixtureNtB5_14FixtureManager13is_registeredNtNtB5_5tests11TestFixtureEB7_
FNDA:0,_RINvMs_NtCsbqoqex1KQlH_6probar7fixtureNtB5_14FixtureManager3getNtNtB5_5tests11TestFixtureEB7_
FNDA:0,_RINvMs_NtCsbqoqex1KQlH_6probar7fixtureNtB5_14FixtureManager5setupNtNtB5_5tests11TestFixtureEB7_
FNDA:0,_RINvMs_NtCsbqoqex1KQlH_6probar7fixtureNtB5_14FixtureManager5stateNtNtB5_5tests11TestFixtureEB7_
FNDA:0,_RINvMs_NtCsbqoqex1KQlH_6probar7fixtureNtB5_14FixtureManager5stateNtNtB5_5tests19FailingSetupFixtureEB7_
FNDA:0,_RINvMs_NtCsbqoqex1KQlH_6probar7fixtureNtB5_14FixtureManager8registerNtB5_13SimpleFixtureEB7_
FNDA:0,_RINvMs_NtCsbqoqex1KQlH_6probar7fixtureNtB5_14FixtureManager8registerNtNtB5_5tests11TestFixtureEB7_
FNDA:0,_RINvMs_NtCsbqoqex1KQlH_6probar7fixtureNtB5_14FixtureManager8registerNtNtB5_5tests19FailingSetupFixtureEB7_
FNDA:0,_RINvMs_NtCsbqoqex1KQlH_6probar7fixtureNtB5_14FixtureManager8registerNtNtB5_5tests22FailingTeardownFixtureEB7_
FNDA:0,_RINvMs_NtCsbqoqex1KQlH_6probar7fixtureNtB5_14FixtureManager8registerNtNvNtNtB5_5tests14priority_testss_19test_priority_order14OrderedFixtureEB7_
FNDA:0,_RINvMs_NtCsbqoqex1KQlH_6probar7fixtureNtB5_14FixtureManager8teardownNtNtB5_5tests11TestFixtureEB7_
FNDA:0,_RNCINvMs_NtCsbqoqex1KQlH_6probar7fixtureNtB7_14FixtureManager10unregisterNtNtB7_5tests11TestFixtureE0B9_
FNDA:0,_RNCINvMs_NtCsbqoqex1KQlH_6probar7fixtureNtB7_14FixtureManager3getNtNtB7_5tests11TestFixtureE0B9_
FNDA:0,_RNCINvMs_NtCsbqoqex1KQlH_6probar7fixtureNtB7_14FixtureManager5setupNtNtB7_5tests11TestFixtureE0B9_
FNDA:0,_RNCINvMs_NtCsbqoqex1KQlH_6probar7fixtureNtB7_14FixtureManager5setupNtNtB7_5tests11TestFixtureEs_0B9_
FNDA:0,_RNCINvMs_NtCsbqoqex1KQlH_6probar7fixtureNtB7_14FixtureManager8teardownNtNtB7_5tests11TestFixtureE0B9_
FNDA:0,_RNCINvMs_NtCsbqoqex1KQlH_6probar7fixtureNtB7_14FixtureManager8teardownNtNtB7_5tests11TestFixtureEs0_0B9_
FNDA:0,_RNCINvMs_NtCsbqoqex1KQlH_6probar7fixtureNtB7_14FixtureManager8teardownNtNtB7_5tests11TestFixtureEs_0B9_
FNDA:0,_RNCNvMs_NtCsbqoqex1KQlH_6probar7fixtureNtB6_14FixtureManager4list0B8_
FNDA:0,_RNCNvMs_NtCsbqoqex1KQlH_6probar7fixtureNtB6_14FixtureManager9setup_all0B8_
FNDA:0,_RNCNvMs_NtCsbqoqex1KQlH_6probar7fixtureNtB6_14FixtureManager9setup_alls_0B8_
FNDA:0,_RNCNvNtNtNtCsbqoqex1KQlH_6probar7fixture5tests20simple_fixture_testss_25test_simple_fixture_setup0B9_
FNDA:0,_RNCNvNtNtNtCsbqoqex1KQlH_6probar7fixture5tests20simple_fixture_testss_28test_simple_fixture_teardown0B9_
FNDA:0,_RNvXs8_NtCsbqoqex1KQlH_6probar7fixtureNtB5_12FixtureScopeNtNtNtCs6RpC691fUBl_4core3ops4drop4Drop4drop
FNDA:0,_RNvMNtNtCsbqoqex1KQlH_6probar7fixture5testsNtB2_11TestFixture3new
FNDA:0,_RNvXs0_NtNtCsbqoqex1KQlH_6probar7fixture5testsNtB5_19FailingSetupFixtureNtB7_7Fixture5setup
FNDA:0,_RNvXs0_NtNtCsbqoqex1KQlH_6probar7fixture5testsNtB5_19FailingSetupFixtureNtB7_7Fixture8teardown
FNDA:0,_RNvXs1_NtNtCsbqoqex1KQlH_6probar7fixture5testsNtB5_22FailingTeardownFixtureNtB7_7Fixture5setup
FNDA:0,_RNvXs1_NtNtCsbqoqex1KQlH_6probar7fixture5testsNtB5_22FailingTeardownFixtureNtB7_7Fixture8teardown
FNDA:0,_RNvXs_NtNtCsbqoqex1KQlH_6probar7fixture5testsNtB4_11TestFixtureNtB6_7Fixture5setup
FNDA:0,_RNvXs_NtNtCsbqoqex1KQlH_6probar7fixture5testsNtB4_11TestFixtureNtB6_7Fixture8priority
FNDA:0,_RNvXs_NtNtCsbqoqex1KQlH_6probar7fixture5testsNtB4_11TestFixtureNtB6_7Fixture8teardown
FNDA:0,_RINvMs3_NtCs4eUmXem5O3q_6probar7fixtureNtB6_13SimpleFixture10with_setuppEB8_
FNDA:0,_RINvMs3_NtCs4eUmXem5O3q_6probar7fixtureNtB6_13SimpleFixture13with_teardownpEB8_
FNDA:0,_RINvMs3_NtCs4eUmXem5O3q_6probar7fixtureNtB6_13SimpleFixture3newpEB8_
FNDA:0,_RINvMs6_NtCs4eUmXem5O3q_6probar7fixtureNtB6_14FixtureBuilder12with_fixturepEB8_
FNDA:0,_RINvMs7_NtCs4eUmXem5O3q_6probar7fixtureNtB6_12FixtureScope3getpEB8_
FNDA:0,_RINvMs7_NtCs4eUmXem5O3q_6probar7fixtureNtB6_12FixtureScope7get_mutpEB8_
FNDA:0,_RINvMs_NtCs4eUmXem5O3q_6probar7fixtureNtB5_14FixtureManager10unregisterpEB7_
FNDA:0,_RINvMs_NtCs4eUmXem5O3q_6probar7fixtureNtB5_14FixtureManager13is_registeredpEB7_
FNDA:0,_RINvMs_NtCs4eUmXem5O3q_6probar7fixtureNtB5_14FixtureManager3getpEB7_
FNDA:0,_RINvMs_NtCs4eUmXem5O3q_6probar7fixtureNtB5_14FixtureManager5setuppEB7_
FNDA:0,_RINvMs_NtCs4eUmXem5O3q_6probar7fixtureNtB5_14FixtureManager5statepEB7_
FNDA:0,_RINvMs_NtCs4eUmXem5O3q_6probar7fixtureNtB5_14FixtureManager7get_mutpEB7_
FNDA:0,_RINvMs_NtCs4eUmXem5O3q_6probar7fixtureNtB5_14FixtureManager8registerpEB7_
FNDA:0,_RINvMs_NtCs4eUmXem5O3q_6probar7fixtureNtB5_14FixtureManager8teardownpEB7_
FNDA:0,_RNCINvMs_NtCs4eUmXem5O3q_6probar7fixtureNtB7_14FixtureManager10unregisterpE0B9_
FNDA:0,_RNCINvMs_NtCs4eUmXem5O3q_6probar7fixtureNtB7_14FixtureManager3getpE0B9_
FNDA:0,_RNCINvMs_NtCs4eUmXem5O3q_6probar7fixtureNtB7_14FixtureManager5setuppE0B9_
FNDA:0,_RNCINvMs_NtCs4eUmXem5O3q_6probar7fixtureNtB7_14FixtureManager5setuppEs_0B9_
FNDA:0,_RNCINvMs_NtCs4eUmXem5O3q_6probar7fixtureNtB7_14FixtureManager7get_mutpE0B9_
FNDA:0,_RNCINvMs_NtCs4eUmXem5O3q_6probar7fixtureNtB7_14FixtureManager8teardownpE0B9_
FNDA:0,_RNCINvMs_NtCs4eUmXem5O3q_6probar7fixtureNtB7_14FixtureManager8teardownpEs0_0B9_
FNDA:0,_RNCINvMs_NtCs4eUmXem5O3q_6probar7fixtureNtB7_14FixtureManager8teardownpEs_0B9_
FNDA:0,_RNvXININtCs4eUmXem5O3q_6probar7fixtures0_0pEpNtB5_5AsAny10as_any_mutB7_
FNDA:0,_RNvXININtCs4eUmXem5O3q_6probar7fixtures0_0pEpNtB5_5AsAny6as_anyB7_
FNDA:0,_RNvYpNtNtCs4eUmXem5O3q_6probar7fixture7Fixture4nameB7_
FNDA:0,_RNvYpNtNtCs4eUmXem5O3q_6probar7fixture7Fixture8priorityB7_
FNDA:0,_RNvMs1_NtCs4eUmXem5O3q_6probar7fixtureDNtB5_7FixtureEL_10as_any_mut
FNDA:0,_RNvMs1_NtCs4eUmXem5O3q_6probar7fixtureDNtB5_7FixtureEL_6as_any
FNDA:0,_RNvMs3_NtCs4eUmXem5O3q_6probar7fixtureNtB5_13SimpleFixture13with_priority
FNDA:0,_RNvMs6_NtCs4eUmXem5O3q_6probar7fixtureNtB5_14FixtureBuilder15build_and_setup
FNDA:0,_RNvMs6_NtCs4eUmXem5O3q_6probar7fixtureNtB5_14FixtureBuilder3new
FNDA:0,_RNvMs6_NtCs4eUmXem5O3q_6probar7fixtureNtB5_14FixtureBuilder5build
FNDA:0,_RNvMs7_NtCs4eUmXem5O3q_6probar7fixtureNtB5_12FixtureScope3new
FNDA:0,_RNvMs_NtCs4eUmXem5O3q_6probar7fixtureNtB4_14FixtureManager12teardown_all
FNDA:0,_RNvMs_NtCs4eUmXem5O3q_6probar7fixtureNtB4_14FixtureManager20teardown_setup_order
FNDA:0,_RNvMs_NtCs4eUmXem5O3q_6probar7fixtureNtB4_14FixtureManager3new
FNDA:0,_RNvMs_NtCs4eUmXem5O3q_6probar7fixtureNtB4_14FixtureManager4list
FNDA:0,_RNvMs_NtCs4eUmXem5O3q_6probar7fixtureNtB4_14FixtureManager5clear
FNDA:0,_RNvMs_NtCs4eUmXem5O3q_6probar7fixtureNtB4_14FixtureManager5count
FNDA:0,_RNvMs_NtCs4eUmXem5O3q_6probar7fixtureNtB4_14FixtureManager5reset
FNDA:0,_RNvMs_NtCs4eUmXem5O3q_6probar7fixtureNtB4_14FixtureManager9setup_all
FNDA:0,_RNvXNtCs4eUmXem5O3q_6probar7fixtureNtB2_14FixtureManagerNtNtCs6RpC691fUBl_4core3fmt5Debug3fmt
FNDA:0,_RNvXs2_NtCs4eUmXem5O3q_6probar7fixtureNtB5_13SimpleFixtureNtNtCs6RpC691fUBl_4core3fmt5Debug3fmt
FNDA:0,_RNvXs4_NtCs4eUmXem5O3q_6probar7fixtureNtB5_13SimpleFixtureNtB5_7Fixture4name
FNDA:0,_RNvXs4_NtCs4eUmXem5O3q_6probar7fixtureNtB5_13SimpleFixtureNtB5_7Fixture5setup
FNDA:0,_RNvXs4_NtCs4eUmXem5O3q_6probar7fixtureNtB5_13SimpleFixtureNtB5_7Fixture8priority
FNDA:0,_RNvXs4_NtCs4eUmXem5O3q_6probar7fixtureNtB5_13SimpleFixtureNtB5_7Fixture8teardown
FNDA:0,_RNvXs5_NtCs4eUmXem5O3q_6probar7fixtureNtB5_14FixtureBuilderNtNtCs6RpC691fUBl_4core7default7Default7default
FNDA:0,_RNvXs9_NtCs4eUmXem5O3q_6probar7fixtureNtB5_12FixtureScopeNtNtCs6RpC691fUBl_4core3fmt5Debug3fmt
FNDA:0,_RNCNvMs_NtCs4eUmXem5O3q_6probar7fixtureNtB6_14FixtureManager4list0B8_
FNDA:0,_RNCNvMs_NtCs4eUmXem5O3q_6probar7fixtureNtB6_14FixtureManager9setup_all0B8_
FNDA:0,_RNCNvMs_NtCs4eUmXem5O3q_6probar7fixtureNtB6_14FixtureManager9setup_alls_0B8_
FNDA:0,_RNvXs8_NtCs4eUmXem5O3q_6probar7fixtureNtB5_12FixtureScopeNtNtNtCs6RpC691fUBl_4core3ops4drop4Drop4drop
FNF:94
FNH:0
DA:60,0
DA:61,0
DA:62,0
DA:65,0
DA:66,0
DA:67,0
DA:116,0
DA:117,0
DA:118,0
DA:119,0
DA:120,0
DA:121,0
DA:127,0
DA:128,0
DA:129,0
DA:134,0
DA:135,0
DA:136,0
DA:138,0
DA:139,0
DA:140,0
DA:141,0
DA:142,0
DA:143,0
DA:144,0
DA:145,0
DA:146,0
DA:150,0
DA:151,0
DA:152,0
DA:153,0
DA:157,0
DA:158,0
DA:159,0
DA:163,0
DA:164,0
DA:165,0
DA:166,0
DA:170,0
DA:171,0
DA:172,0
DA:173,0
DA:174,0
DA:175,0
DA:179,0
DA:180,0
DA:181,0
DA:182,0
DA:183,0
DA:184,0
DA:192,0
DA:194,0
DA:195,0
DA:196,0
DA:197,0
DA:198,0
DA:199,0
DA:201,0
DA:203,0
DA:205,0
DA:206,0
DA:207,0
DA:209,0
DA:210,0
DA:211,0
DA:212,0
DA:213,0
DA:214,0
DA:215,0
DA:216,0
DA:217,0
DA:218,0
DA:222,0
DA:223,0
DA:224,0
DA:225,0
DA:227,0
DA:228,0
DA:236,0
DA:237,0
DA:238,0
DA:241,0
DA:242,0
DA:245,0
DA:246,0
DA:247,0
DA:248,0
DA:249,0
DA:250,0
DA:251,0
DA:252,0
DA:253,0
DA:254,0
DA:255,0
DA:256,0
DA:257,0
DA:258,0
DA:259,0
DA:260,0
DA:261,0
DA:262,0
DA:265,0
DA:267,0
DA:268,0
DA:270,0
DA:272,0
DA:279,0
DA:280,0
DA:282,0
DA:283,0
DA:284,0
DA:285,0
DA:286,0
DA:288,0
DA:289,0
DA:290,0
DA:292,0
DA:293,0
DA:294,0
DA:296,0
DA:298,0
DA:299,0
DA:300,0
DA:302,0
DA:303,0
DA:310,0
DA:311,0
DA:313,0
DA:314,0
DA:315,0
DA:316,0
DA:317,0
DA:319,0
DA:320,0
DA:321,0
DA:323,0
DA:324,0
DA:325,0
DA:326,0
DA:327,0
DA:328,0
DA:330,0
DA:333,0
DA:335,0
DA:336,0
DA:339,0
DA:340,0
DA:341,0
DA:342,0
DA:343,0
DA:344,0
DA:347,0
DA:348,0
DA:349,0
DA:350,0
DA:351,0
DA:354,0
DA:355,0
DA:356,0
DA:357,0
DA:361,0
DA:362,0
DA:363,0
DA:373,0
DA:374,0
DA:375,0
DA:377,0
DA:378,0
DA:379,0
DA:383,0
DA:386,0
DA:387,0
DA:389,0
DA:390,0
DA:391,0
DA:406,0
DA:407,0
DA:408,0
DA:409,0
DA:410,0
DA:411,0
DA:412,0
DA:418,0
DA:419,0
DA:420,0
DA:421,0
DA:422,0
DA:423,0
DA:424,0
DA:425,0
DA:426,0
DA:430,0
DA:431,0
DA:432,0
DA:434,0
DA:435,0
DA:436,0
DA:440,0
DA:441,0
DA:442,0
DA:444,0
DA:445,0
DA:446,0
DA:450,0
DA:451,0
DA:452,0
DA:453,0
DA:457,0
DA:458,0
DA:459,0
DA:460,0
DA:461,0
DA:462,0
DA:463,0
DA:465,0
DA:466,0
DA:467,0
DA:468,0
DA:469,0
DA:470,0
DA:471,0
DA:473,0
DA:474,0
DA:475,0
DA:477,0
DA:478,0
DA:479,0
DA:489,0
DA:490,0
DA:491,0
DA:497,0
DA:498,0
DA:499,0
DA:500,0
DA:501,0
DA:505,0
DA:506,0
DA:507,0
DA:508,0
DA:512,0
DA:513,0
DA:514,0
DA:517,0
DA:518,0
DA:519,0
DA:520,0
DA:535,0
DA:536,0
DA:537,0
DA:541,0
DA:542,0
DA:543,0
DA:547,0
DA:548,0
DA:549,0
DA:553,0
DA:555,0
DA:556,0
DA:560,0
DA:561,0
DA:562,0
DA:563,0
DA:564,0
DA:582,0
DA:583,0
DA:584,0
DA:585,0
DA:586,0
DA:587,0
DA:588,0
DA:590,0
DA:591,0
DA:592,0
DA:593,0
DA:597,0
DA:598,0
DA:599,0
DA:600,0
DA:602,0
DA:603,0
DA:604,0
DA:605,0
DA:607,0
DA:608,0
DA:609,0
DA:617,0
DA:618,0
DA:619,0
DA:620,0
DA:621,0
DA:623,0
DA:624,0
DA:625,0
DA:633,0
DA:634,0
DA:635,0
DA:637,0
DA:638,0
DA:639,0
DA:640,0
DA:641,0
DA:648,0
DA:649,0
DA:650,0
DA:651,0
DA:652,0
DA:653,0
DA:654,0
DA:661,0
DA:662,0
DA:663,0
DA:664,0
DA:667,0
DA:668,0
DA:669,0
DA:671,0
DA:672,0
DA:673,0
DA:676,0
DA:677,0
DA:678,0
DA:680,0
DA:681,0
DA:684,0
DA:685,0
DA:686,0
DA:688,0
DA:689,0
DA:690,0
DA:692,0
DA:693,0
DA:694,0
DA:697,0
DA:698,0
DA:699,0
DA:701,0
DA:702,0
DA:703,0
DA:704,0
DA:706,0
DA:707,0
DA:708,0
DA:711,0
DA:712,0
DA:713,0
DA:715,0
DA:716,0
DA:717,0
DA:719,0
DA:720,0
DA:723,0
DA:724,0
DA:725,0
DA:727,0
DA:728,0
DA:729,0
DA:730,0
DA:731,0
DA:732,0
DA:734,0
DA:735,0
DA:738,0
DA:739,0
DA:740,0
DA:742,0
DA:743,0
DA:745,0
DA:746,0
DA:747,0
DA:748,0
DA:751,0
DA:752,0
DA:753,0
DA:754,0
DA:757,0
DA:758,0
DA:759,0
DA:761,0
DA:762,0
DA:763,0
DA:764,0
DA:767,0
DA:768,0
DA:769,0
DA:771,0
DA:772,0
DA:773,0
DA:774,0
DA:777,0
DA:778,0
DA:779,0
DA:781,0
DA:782,0
DA:783,0
DA:784,0
DA:787,0
DA:788,0
DA:789,0
DA:790,0
DA:792,0
DA:793,0
DA:796,0
DA:797,0
DA:798,0
DA:799,0
DA:801,0
DA:802,0
DA:803,0
DA:806,0
DA:807,0
DA:808,0
DA:810,0
DA:811,0
DA:812,0
DA:813,0
DA:820,0
DA:822,0
DA:832,0
DA:833,0
DA:834,0
DA:835,0
DA:836,0
DA:838,0
DA:839,0
DA:840,0
DA:842,0
DA:843,0
DA:844,0
DA:847,0
DA:850,0
DA:851,0
DA:852,0
DA:853,0
DA:854,0
DA:855,0
DA:856,0
DA:857,0
DA:858,0
DA:859,0
DA:860,0
DA:861,0
DA:862,0
DA:863,0
DA:868,0
DA:875,0
DA:876,0
DA:877,0
DA:878,0
DA:879,0
DA:882,0
DA:883,0
DA:884,0
DA:885,0
DA:888,0
DA:889,0
DA:890,0
DA:892,0
DA:893,0
DA:894,0
DA:895,0
DA:897,0
DA:898,0
DA:899,0
DA:902,0
DA:903,0
DA:904,0
DA:906,0
DA:907,0
DA:908,0
DA:909,0
DA:911,0
DA:912,0
DA:913,0
DA:920,0
DA:921,0
DA:922,0
DA:923,0
DA:924,0
DA:927,0
DA:928,0
DA:929,0
DA:930,0
DA:932,0
DA:933,0
DA:936,0
DA:937,0
DA:938,0
DA:940,0
DA:941,0
DA:942,0
DA:943,0
DA:945,0
DA:946,0
DA:947,0
DA:954,0
DA:955,0
DA:956,0
DA:958,0
DA:959,0
DA:960,0
DA:961,0
DA:962,0
DA:963,0
DA:964,0
DA:965,0
DA:967,0
DA:968,0
DA:971,0
DA:972,0
DA:973,0
DA:975,0
DA:976,0
DA:977,0
DA:979,0
DA:980,0
DA:981,0
DA:982,0
DA:983,0
BRF:0
BRH:0
LF:533
LH:0
end_of_record
SF:/home/noah/src/probar/crates/probar/src/fuzzer.rs
FN:241,_RINvMs3_NtCsbqoqex1KQlH_6probar6fuzzerNtB6_14InvariantCheck3newReBZ_EB8_
FN:241,_RINvMs3_NtCsbqoqex1KQlH_6probar6fuzzerNtB6_14InvariantCheck3newReNtNtCs6juDKDKeRkf_5alloc6string6StringEB8_
FN:532,_RNvNtNtNtCsbqoqex1KQlH_6probar6fuzzer5tests15invariant_testss_14test_add_check
FN:549,_RNvNtNtNtCsbqoqex1KQlH_6probar6fuzzer5tests15invariant_testss_21test_clear_violations
FN:539,_RNvNtNtNtCsbqoqex1KQlH_6probar6fuzzer5tests15invariant_testss_21test_record_violation
FN:559,_RNvNtNtNtCsbqoqex1KQlH_6probar6fuzzer5tests15invariant_testss_24test_standard_invariants
FN:525,_RNvNtNtNtCsbqoqex1KQlH_6probar6fuzzer5tests15invariant_testss_26test_invariant_checker_new
FN:581,_RNvNtNtNtCsbqoqex1KQlH_6probar6fuzzer5tests28monte_carlo_simulation_testss_23test_10k_steps_no_panic
FN:30,_RNvMNtCsbqoqex1KQlH_6probar6fuzzerNtB2_4Seed5value
FN:24,_RNvMNtCsbqoqex1KQlH_6probar6fuzzerNtB2_4Seed8from_u64
FN:111,_RNvMs1_NtCsbqoqex1KQlH_6probar6fuzzerNtB5_12FuzzerConfig13with_viewport
FN:141,_RNvMs2_NtCsbqoqex1KQlH_6probar6fuzzerNtB5_11InputFuzzer11with_config
FN:205,_RNvMs2_NtCsbqoqex1KQlH_6probar6fuzzerNtB5_11InputFuzzer16inputs_generated
FN:176,_RNvMs2_NtCsbqoqex1KQlH_6probar6fuzzerNtB5_11InputFuzzer18generate_key_input
FN:197,_RNvMs2_NtCsbqoqex1KQlH_6probar6fuzzerNtB5_11InputFuzzer20generate_mouse_input
FN:168,_RNvMs2_NtCsbqoqex1KQlH_6probar6fuzzerNtB5_11InputFuzzer20generate_touch_input
FN:151,_RNvMs2_NtCsbqoqex1KQlH_6probar6fuzzerNtB5_11InputFuzzer21generate_valid_inputs
FN:131,_RNvMs2_NtCsbqoqex1KQlH_6probar6fuzzerNtB5_11InputFuzzer3new
FN:210,_RNvMs2_NtCsbqoqex1KQlH_6probar6fuzzerNtB5_11InputFuzzer5reset
FN:217,_RNvMs2_NtCsbqoqex1KQlH_6probar6fuzzerNtB5_11InputFuzzer6config
FN:289,_RNvMs4_NtCsbqoqex1KQlH_6probar6fuzzerNtB5_16InvariantChecker10violations
FN:295,_RNvMs4_NtCsbqoqex1KQlH_6probar6fuzzerNtB5_16InvariantChecker11check_count
FN:283,_RNvMs4_NtCsbqoqex1KQlH_6probar6fuzzerNtB5_16InvariantChecker14has_violations
FN:300,_RNvMs4_NtCsbqoqex1KQlH_6probar6fuzzerNtB5_16InvariantChecker16clear_violations
FN:273,_RNvMs4_NtCsbqoqex1KQlH_6probar6fuzzerNtB5_16InvariantChecker16record_violation
FN:263,_RNvMs4_NtCsbqoqex1KQlH_6probar6fuzzerNtB5_16InvariantChecker3new
FN:268,_RNvMs4_NtCsbqoqex1KQlH_6probar6fuzzerNtB5_16InvariantChecker9add_check
FN:62,_RNvMs_NtCsbqoqex1KQlH_6probar6fuzzerNtB4_10Xorshift6410next_range
FN:70,_RNvMs_NtCsbqoqex1KQlH_6probar6fuzzerNtB4_10Xorshift6414next_f32_range
FN:42,_RNvMs_NtCsbqoqex1KQlH_6probar6fuzzerNtB4_10Xorshift643new
FN:48,_RNvMs_NtCsbqoqex1KQlH_6probar6fuzzerNtB4_10Xorshift644next
FN:58,_RNvMs_NtCsbqoqex1KQlH_6probar6fuzzerNtB4_10Xorshift648next_f32
FN:95,_RNvXs0_NtCsbqoqex1KQlH_6probar6fuzzerNtB5_12FuzzerConfigNtNtCs6RpC691fUBl_4core7default7Default7default
FN:402,_RNvNtNtNtCsbqoqex1KQlH_6probar6fuzzer5tests14xorshift_testss_19test_xorshift_range
FN:392,_RNvNtNtNtCsbqoqex1KQlH_6probar6fuzzer5tests14xorshift_testss_23test_xorshift_f32_range
FN:371,_RNvNtNtNtCsbqoqex1KQlH_6probar6fuzzer5tests14xorshift_testss_27test_xorshift_deterministic
FN:381,_RNvNtNtNtCsbqoqex1KQlH_6probar6fuzzer5tests14xorshift_testss_29test_xorshift_different_seeds
FN:451,_RNvNtNtNtCsbqoqex1KQlH_6probar6fuzzer5tests12fuzzer_testss_17test_fuzzer_reset
FN:465,_RNvNtNtNtCsbqoqex1KQlH_6probar6fuzzer5tests12fuzzer_testss_23test_fuzzer_with_config
FN:439,_RNvNtNtNtCsbqoqex1KQlH_6probar6fuzzer5tests12fuzzer_testss_24test_fuzzer_tracks_count
FN:416,_RNvNtNtNtCsbqoqex1KQlH_6probar6fuzzer5tests12fuzzer_testss_25test_fuzzer_deterministic
FN:429,_RNvNtNtNtCsbqoqex1KQlH_6probar6fuzzer5tests12fuzzer_testss_28test_fuzzer_generates_inputs
FN:499,_RNvNtNtNtCsbqoqex1KQlH_6probar6fuzzer5tests12fuzzer_testss_33test_fuzzer_touch_within_viewport
FN:474,_RNvNtNtNtCsbqoqex1KQlH_6probar6fuzzer5tests12fuzzer_testss_37test_fuzzer_generates_all_input_types
FN:361,_RNvNtNtNtCsbqoqex1KQlH_6probar6fuzzer5tests10seed_testss_17test_seed_default
FN:355,_RNvNtNtNtCsbqoqex1KQlH_6probar6fuzzer5tests10seed_testss_18test_seed_from_u64
FN:386,_RNCNvNtNtNtCsbqoqex1KQlH_6probar6fuzzer5tests14xorshift_testss_29test_xorshift_different_seeds0B9_
FN:387,_RNCNvNtNtNtCsbqoqex1KQlH_6probar6fuzzer5tests14xorshift_testss_29test_xorshift_different_seedss_0B9_
FN:332,_RNvNtNtCsbqoqex1KQlH_6probar6fuzzer19standard_invariants11score_valid
FN:326,_RNvNtNtCsbqoqex1KQlH_6probar6fuzzer19standard_invariants14physics_stable
FN:311,_RNvNtNtCsbqoqex1KQlH_6probar6fuzzer19standard_invariants19health_non_negative
FN:338,_RNvNtNtCsbqoqex1KQlH_6probar6fuzzer19standard_invariants19positions_in_bounds
FN:317,_RNvNtNtCsbqoqex1KQlH_6probar6fuzzer19standard_invariants20entity_count_bounded
FN:241,_RINvMs3_NtCs4eUmXem5O3q_6probar6fuzzerNtB6_14InvariantCheck3newReBZ_EB8_
FN:241,_RINvMs3_NtCs4eUmXem5O3q_6probar6fuzzerNtB6_14InvariantCheck3newReNtNtCs6juDKDKeRkf_5alloc6string6StringEB8_
FN:332,_RNvNtNtCs4eUmXem5O3q_6probar6fuzzer19standard_invariants11score_valid
FN:326,_RNvNtNtCs4eUmXem5O3q_6probar6fuzzer19standard_invariants14physics_stable
FN:311,_RNvNtNtCs4eUmXem5O3q_6probar6fuzzer19standard_invariants19health_non_negative
FN:338,_RNvNtNtCs4eUmXem5O3q_6probar6fuzzer19standard_invariants19positions_in_bounds
FN:317,_RNvNtNtCs4eUmXem5O3q_6probar6fuzzer19standard_invariants20entity_count_bounded
FNDA:0,_RINvMs3_NtCsbqoqex1KQlH_6probar6fuzzerNtB6_14InvariantCheck3newReBZ_EB8_
FNDA:0,_RINvMs3_NtCsbqoqex1KQlH_6probar6fuzzerNtB6_14InvariantCheck3newReNtNtCs6juDKDKeRkf_5alloc6string6StringEB8_
FNDA:0,_RNvNtNtNtCsbqoqex1KQlH_6probar6fuzzer5tests15invariant_testss_14test_add_check
FNDA:0,_RNvNtNtNtCsbqoqex1KQlH_6probar6fuzzer5tests15invariant_testss_21test_clear_violations
FNDA:0,_RNvNtNtNtCsbqoqex1KQlH_6probar6fuzzer5tests15invariant_testss_21test_record_violation
FNDA:0,_RNvNtNtNtCsbqoqex1KQlH_6probar6fuzzer5tests15invariant_testss_24test_standard_invariants
FNDA:0,_RNvNtNtNtCsbqoqex1KQlH_6probar6fuzzer5tests15invariant_testss_26test_invariant_checker_new
FNDA:0,_RNvNtNtNtCsbqoqex1KQlH_6probar6fuzzer5tests28monte_carlo_simulation_testss_23test_10k_steps_no_panic
FNDA:0,_RNvMNtCsbqoqex1KQlH_6probar6fuzzerNtB2_4Seed5value
FNDA:0,_RNvMNtCsbqoqex1KQlH_6probar6fuzzerNtB2_4Seed8from_u64
FNDA:0,_RNvMs1_NtCsbqoqex1KQlH_6probar6fuzzerNtB5_12FuzzerConfig13with_viewport
FNDA:0,_RNvMs2_NtCsbqoqex1KQlH_6probar6fuzzerNtB5_11InputFuzzer11with_config
FNDA:0,_RNvMs2_NtCsbqoqex1KQlH_6probar6fuzzerNtB5_11InputFuzzer16inputs_generated
FNDA:0,_RNvMs2_NtCsbqoqex1KQlH_6probar6fuzzerNtB5_11InputFuzzer18generate_key_input
FNDA:0,_RNvMs2_NtCsbqoqex1KQlH_6probar6fuzzerNtB5_11InputFuzzer20generate_mouse_input
FNDA:0,_RNvMs2_NtCsbqoqex1KQlH_6probar6fuzzerNtB5_11InputFuzzer20generate_touch_input
FNDA:0,_RNvMs2_NtCsbqoqex1KQlH_6probar6fuzzerNtB5_11InputFuzzer21generate_valid_inputs
FNDA:0,_RNvMs2_NtCsbqoqex1KQlH_6probar6fuzzerNtB5_11InputFuzzer3new
FNDA:0,_RNvMs2_NtCsbqoqex1KQlH_6probar6fuzzerNtB5_11InputFuzzer5reset
FNDA:0,_RNvMs2_NtCsbqoqex1KQlH_6probar6fuzzerNtB5_11InputFuzzer6config
FNDA:0,_RNvMs4_NtCsbqoqex1KQlH_6probar6fuzzerNtB5_16InvariantChecker10violations
FNDA:0,_RNvMs4_NtCsbqoqex1KQlH_6probar6fuzzerNtB5_16InvariantChecker11check_count
FNDA:0,_RNvMs4_NtCsbqoqex1KQlH_6probar6fuzzerNtB5_16InvariantChecker14has_violations
FNDA:0,_RNvMs4_NtCsbqoqex1KQlH_6probar6fuzzerNtB5_16InvariantChecker16clear_violations
FNDA:0,_RNvMs4_NtCsbqoqex1KQlH_6probar6fuzzerNtB5_16InvariantChecker16record_violation
FNDA:0,_RNvMs4_NtCsbqoqex1KQlH_6probar6fuzzerNtB5_16InvariantChecker3new
FNDA:0,_RNvMs4_NtCsbqoqex1KQlH_6probar6fuzzerNtB5_16InvariantChecker9add_check
FNDA:0,_RNvMs_NtCsbqoqex1KQlH_6probar6fuzzerNtB4_10Xorshift6410next_range
FNDA:0,_RNvMs_NtCsbqoqex1KQlH_6probar6fuzzerNtB4_10Xorshift6414next_f32_range
FNDA:0,_RNvMs_NtCsbqoqex1KQlH_6probar6fuzzerNtB4_10Xorshift643new
FNDA:0,_RNvMs_NtCsbqoqex1KQlH_6probar6fuzzerNtB4_10Xorshift644next
FNDA:0,_RNvMs_NtCsbqoqex1KQlH_6probar6fuzzerNtB4_10Xorshift648next_f32
FNDA:0,_RNvXs0_NtCsbqoqex1KQlH_6probar6fuzzerNtB5_12FuzzerConfigNtNtCs6RpC691fUBl_4core7default7Default7default
FNDA:0,_RNvNtNtNtCsbqoqex1KQlH_6probar6fuzzer5tests14xorshift_testss_19test_xorshift_range
FNDA:0,_RNvNtNtNtCsbqoqex1KQlH_6probar6fuzzer5tests14xorshift_testss_23test_xorshift_f32_range
FNDA:0,_RNvNtNtNtCsbqoqex1KQlH_6probar6fuzzer5tests14xorshift_testss_27test_xorshift_deterministic
FNDA:0,_RNvNtNtNtCsbqoqex1KQlH_6probar6fuzzer5tests14xorshift_testss_29test_xorshift_different_seeds
FNDA:0,_RNvNtNtNtCsbqoqex1KQlH_6probar6fuzzer5tests12fuzzer_testss_17test_fuzzer_reset
FNDA:0,_RNvNtNtNtCsbqoqex1KQlH_6probar6fuzzer5tests12fuzzer_testss_23test_fuzzer_with_config
FNDA:0,_RNvNtNtNtCsbqoqex1KQlH_6probar6fuzzer5tests12fuzzer_testss_24test_fuzzer_tracks_count
FNDA:0,_RNvNtNtNtCsbqoqex1KQlH_6probar6fuzzer5tests12fuzzer_testss_25test_fuzzer_deterministic
FNDA:0,_RNvNtNtNtCsbqoqex1KQlH_6probar6fuzzer5tests12fuzzer_testss_28test_fuzzer_generates_inputs
FNDA:0,_RNvNtNtNtCsbqoqex1KQlH_6probar6fuzzer5tests12fuzzer_testss_33test_fuzzer_touch_within_viewport
FNDA:0,_RNvNtNtNtCsbqoqex1KQlH_6probar6fuzzer5tests12fuzzer_testss_37test_fuzzer_generates_all_input_types
FNDA:0,_RNvNtNtNtCsbqoqex1KQlH_6probar6fuzzer5tests10seed_testss_17test_seed_default
FNDA:0,_RNvNtNtNtCsbqoqex1KQlH_6probar6fuzzer5tests10seed_testss_18test_seed_from_u64
FNDA:0,_RNCNvNtNtNtCsbqoqex1KQlH_6probar6fuzzer5tests14xorshift_testss_29test_xorshift_different_seeds0B9_
FNDA:0,_RNCNvNtNtNtCsbqoqex1KQlH_6probar6fuzzer5tests14xorshift_testss_29test_xorshift_different_seedss_0B9_
FNDA:0,_RNvNtNtCsbqoqex1KQlH_6probar6fuzzer19standard_invariants11score_valid
FNDA:0,_RNvNtNtCsbqoqex1KQlH_6probar6fuzzer19standard_invariants14physics_stable
FNDA:0,_RNvNtNtCsbqoqex1KQlH_6probar6fuzzer19standard_invariants19health_non_negative
FNDA:0,_RNvNtNtCsbqoqex1KQlH_6probar6fuzzer19standard_invariants19positions_in_bounds
FNDA:0,_RNvNtNtCsbqoqex1KQlH_6probar6fuzzer19standard_invariants20entity_count_bounded
FNDA:0,_RINvMs3_NtCs4eUmXem5O3q_6probar6fuzzerNtB6_14InvariantCheck3newReBZ_EB8_
FNDA:0,_RINvMs3_NtCs4eUmXem5O3q_6probar6fuzzerNtB6_14InvariantCheck3newReNtNtCs6juDKDKeRkf_5alloc6string6StringEB8_
FNDA:0,_RNvNtNtCs4eUmXem5O3q_6probar6fuzzer19standard_invariants11score_valid
FNDA:0,_RNvNtNtCs4eUmXem5O3q_6probar6fuzzer19standard_invariants14physics_stable
FNDA:0,_RNvNtNtCs4eUmXem5O3q_6probar6fuzzer19standard_invariants19health_non_negative
FNDA:0,_RNvNtNtCs4eUmXem5O3q_6probar6fuzzer19standard_invariants19positions_in_bounds
FNDA:0,_RNvNtNtCs4eUmXem5O3q_6probar6fuzzer19standard_invariants20entity_count_bounded
FNF:52
FNH:0
DA:24,0
DA:25,0
DA:26,0
DA:30,0
DA:31,0
DA:32,0
DA:42,0
DA:44,0
DA:45,0
DA:46,0
DA:48,0
DA:49,0
DA:50,0
DA:51,0
DA:52,0
DA:53,0
DA:54,0
DA:55,0
DA:58,0
DA:59,0
DA:60,0
DA:62,0
DA:63,0
DA:64,0
DA:65,0
DA:66,0
DA:67,0
DA:70,0
DA:71,0
DA:72,0
DA:95,0
DA:96,0
DA:97,0
DA:98,0
DA:99,0
DA:100,0
DA:101,0
DA:102,0
DA:103,0
DA:104,0
DA:105,0
DA:111,0
DA:112,0
DA:113,0
DA:114,0
DA:115,0
DA:131,0
DA:132,0
DA:133,0
DA:134,0
DA:135,0
DA:136,0
DA:137,0
DA:141,0
DA:142,0
DA:143,0
DA:144,0
DA:145,0
DA:146,0
DA:147,0
DA:151,0
DA:152,0
DA:153,0
DA:155,0
DA:156,0
DA:157,0
DA:158,0
DA:159,0
DA:160,0
DA:161,0
DA:163,0
DA:164,0
DA:165,0
DA:168,0
DA:169,0
DA:170,0
DA:171,0
DA:172,0
DA:176,0
DA:192,0
DA:193,0
DA:194,0
DA:197,0
DA:198,0
DA:199,0
DA:200,0
DA:201,0
DA:205,0
DA:206,0
DA:207,0
DA:210,0
DA:211,0
DA:212,0
DA:213,0
DA:217,0
DA:218,0
DA:219,0
DA:241,0
DA:242,0
DA:243,0
DA:244,0
DA:245,0
DA:246,0
DA:263,0
DA:264,0
DA:265,0
DA:268,0
DA:269,0
DA:270,0
DA:273,0
DA:274,0
DA:275,0
DA:276,0
DA:277,0
DA:278,0
DA:279,0
DA:283,0
DA:284,0
DA:285,0
DA:289,0
DA:290,0
DA:291,0
DA:295,0
DA:296,0
DA:297,0
DA:300,0
DA:301,0
DA:302,0
DA:311,0
DA:312,0
DA:313,0
DA:317,0
DA:318,0
DA:320,0
DA:322,0
DA:326,0
DA:327,0
DA:328,0
DA:332,0
DA:333,0
DA:334,0
DA:338,0
DA:339,0
DA:343,0
DA:355,0
DA:356,0
DA:357,0
DA:358,0
DA:361,0
DA:362,0
DA:363,0
DA:364,0
DA:371,0
DA:372,0
DA:373,0
DA:375,0
DA:376,0
DA:378,0
DA:381,0
DA:382,0
DA:383,0
DA:386,0
DA:387,0
DA:388,0
DA:389,0
DA:392,0
DA:393,0
DA:395,0
DA:396,0
DA:397,0
DA:399,0
DA:402,0
DA:403,0
DA:405,0
DA:406,0
DA:407,0
DA:409,0
DA:416,0
DA:417,0
DA:418,0
DA:420,0
DA:421,0
DA:422,0
DA:424,0
DA:426,0
DA:429,0
DA:430,0
DA:432,0
DA:433,0
DA:434,0
DA:436,0
DA:439,0
DA:440,0
DA:441,0
DA:443,0
DA:444,0
DA:445,0
DA:447,0
DA:448,0
DA:451,0
DA:452,0
DA:455,0
DA:456,0
DA:457,0
DA:460,0
DA:461,0
DA:462,0
DA:465,0
DA:466,0
DA:467,0
DA:469,0
DA:470,0
DA:471,0
DA:474,0
DA:475,0
DA:476,0
DA:477,0
DA:478,0
DA:481,0
DA:482,0
DA:483,0
DA:484,0
DA:485,0
DA:486,0
DA:487,0
DA:488,0
DA:493,0
DA:494,0
DA:495,0
DA:496,0
DA:499,0
DA:500,0
DA:501,0
DA:503,0
DA:504,0
DA:505,0
DA:506,0
DA:507,0
DA:508,0
DA:509,0
DA:511,0
DA:512,0
DA:513,0
DA:515,0
DA:518,0
DA:525,0
DA:526,0
DA:527,0
DA:528,0
DA:529,0
DA:532,0
DA:533,0
DA:534,0
DA:535,0
DA:536,0
DA:539,0
DA:540,0
DA:541,0
DA:543,0
DA:544,0
DA:545,0
DA:546,0
DA:549,0
DA:550,0
DA:551,0
DA:552,0
DA:554,0
DA:555,0
DA:556,0
DA:559,0
DA:560,0
DA:561,0
DA:563,0
DA:564,0
DA:566,0
DA:567,0
DA:569,0
DA:570,0
DA:572,0
DA:573,0
DA:574,0
DA:581,0
DA:582,0
DA:583,0
DA:584,0
DA:585,0
DA:588,0
DA:589,0
DA:592,0
DA:593,0
DA:594,0
DA:595,0
DA:597,0
DA:598,0
DA:600,0
DA:605,0
DA:606,0
DA:607,0
DA:608,0
DA:609,0
DA:610,0
DA:611,0
DA:612,0
DA:615,0
DA:617,0
DA:618,0
BRF:0
BRH:0
LF:308
LH:0
end_of_record
SF:/home/noah/src/probar/crates/probar/src/harness.rs
FN:31,_RNvMNtCsbqoqex1KQlH_6probar7harnessNtB2_9TestSuite10test_count
FN:25,_RNvMNtCsbqoqex1KQlH_6probar7harnessNtB2_9TestSuite8add_test
FN:101,_RNvMs0_NtCsbqoqex1KQlH_6probar7harnessNtB5_10TestResult13with_duration
FN:121,_RNvMs1_NtCsbqoqex1KQlH_6probar7harnessNtB5_12SuiteResults10all_passed
FN:133,_RNvMs1_NtCsbqoqex1KQlH_6probar7harnessNtB5_12SuiteResults12failed_count
FN:127,_RNvMs1_NtCsbqoqex1KQlH_6probar7harnessNtB5_12SuiteResults12passed_count
FN:139,_RNvMs1_NtCsbqoqex1KQlH_6probar7harnessNtB5_12SuiteResults5total
FN:145,_RNvMs1_NtCsbqoqex1KQlH_6probar7harnessNtB5_12SuiteResults8failures
FN:175,_RNvMs2_NtCsbqoqex1KQlH_6probar7harnessNtB5_11TestHarness13with_parallel
FN:168,_RNvMs2_NtCsbqoqex1KQlH_6probar7harnessNtB5_11TestHarness14with_fail_fast
FN:162,_RNvMs2_NtCsbqoqex1KQlH_6probar7harnessNtB5_11TestHarness3new
FN:182,_RNvMs2_NtCsbqoqex1KQlH_6probar7harnessNtB5_11TestHarness3run
FN:57,_RNvMs_NtCsbqoqex1KQlH_6probar7harnessNtB4_8TestCase12with_timeout
FN:17,_RINvMNtCsbqoqex1KQlH_6probar7harnessNtB3_9TestSuite3newReEB5_
FN:90,_RINvMs0_NtCsbqoqex1KQlH_6probar7harnessNtB6_10TestResult4failReBX_EB8_
FN:79,_RINvMs0_NtCsbqoqex1KQlH_6probar7harnessNtB6_10TestResult4passReEB8_
FN:48,_RINvMs_NtCsbqoqex1KQlH_6probar7harnessNtB5_8TestCase3newReEB7_
FN:134,_RNCNvMs1_NtCsbqoqex1KQlH_6probar7harnessNtB7_12SuiteResults12failed_count0B9_
FN:146,_RNCNvMs1_NtCsbqoqex1KQlH_6probar7harnessNtB7_12SuiteResults8failures0B9_
FN:17,_RINvMNtCs4eUmXem5O3q_6probar7harnessNtB3_9TestSuite3newpEB5_
FN:90,_RINvMs0_NtCs4eUmXem5O3q_6probar7harnessNtB6_10TestResult4failppEB8_
FN:79,_RINvMs0_NtCs4eUmXem5O3q_6probar7harnessNtB6_10TestResult4passpEB8_
FN:48,_RINvMs_NtCs4eUmXem5O3q_6probar7harnessNtB5_8TestCase3newpEB7_
FN:134,_RNCNvMs1_NtCs4eUmXem5O3q_6probar7harnessNtB7_12SuiteResults12failed_count0B9_
FN:146,_RNCNvMs1_NtCs4eUmXem5O3q_6probar7harnessNtB7_12SuiteResults8failures0B9_
FN:31,_RNvMNtCs4eUmXem5O3q_6probar7harnessNtB2_9TestSuite10test_count
FN:25,_RNvMNtCs4eUmXem5O3q_6probar7harnessNtB2_9TestSuite8add_test
FN:101,_RNvMs0_NtCs4eUmXem5O3q_6probar7harnessNtB5_10TestResult13with_duration
FN:121,_RNvMs1_NtCs4eUmXem5O3q_6probar7harnessNtB5_12SuiteResults10all_passed
FN:133,_RNvMs1_NtCs4eUmXem5O3q_6probar7harnessNtB5_12SuiteResults12failed_count
FN:127,_RNvMs1_NtCs4eUmXem5O3q_6probar7harnessNtB5_12SuiteResults12passed_count
FN:139,_RNvMs1_NtCs4eUmXem5O3q_6probar7harnessNtB5_12SuiteResults5total
FN:145,_RNvMs1_NtCs4eUmXem5O3q_6probar7harnessNtB5_12SuiteResults8failures
FN:175,_RNvMs2_NtCs4eUmXem5O3q_6probar7harnessNtB5_11TestHarness13with_parallel
FN:168,_RNvMs2_NtCs4eUmXem5O3q_6probar7harnessNtB5_11TestHarness14with_fail_fast
FN:162,_RNvMs2_NtCs4eUmXem5O3q_6probar7harnessNtB5_11TestHarness3new
FN:182,_RNvMs2_NtCs4eUmXem5O3q_6probar7harnessNtB5_11TestHarness3run
FN:57,_RNvMs_NtCs4eUmXem5O3q_6probar7harnessNtB4_8TestCase12with_timeout
FNDA:0,_RNvMNtCsbqoqex1KQlH_6probar7harnessNtB2_9TestSuite10test_count
FNDA:0,_RNvMNtCsbqoqex1KQlH_6probar7harnessNtB2_9TestSuite8add_test
FNDA:0,_RNvMs0_NtCsbqoqex1KQlH_6probar7harnessNtB5_10TestResult13with_duration
FNDA:0,_RNvMs1_NtCsbqoqex1KQlH_6probar7harnessNtB5_12SuiteResults10all_passed
FNDA:0,_RNvMs1_NtCsbqoqex1KQlH_6probar7harnessNtB5_12SuiteResults12failed_count
FNDA:0,_RNvMs1_NtCsbqoqex1KQlH_6probar7harnessNtB5_12SuiteResults12passed_count
FNDA:0,_RNvMs1_NtCsbqoqex1KQlH_6probar7harnessNtB5_12SuiteResults5total
FNDA:0,_RNvMs1_NtCsbqoqex1KQlH_6probar7harnessNtB5_12SuiteResults8failures
FNDA:0,_RNvMs2_NtCsbqoqex1KQlH_6probar7harnessNtB5_11TestHarness13with_parallel
FNDA:0,_RNvMs2_NtCsbqoqex1KQlH_6probar7harnessNtB5_11TestHarness14with_fail_fast
FNDA:0,_RNvMs2_NtCsbqoqex1KQlH_6probar7harnessNtB5_11TestHarness3new
FNDA:0,_RNvMs2_NtCsbqoqex1KQlH_6probar7harnessNtB5_11TestHarness3run
FNDA:0,_RNvMs_NtCsbqoqex1KQlH_6probar7harnessNtB4_8TestCase12with_timeout
FNDA:0,_RINvMNtCsbqoqex1KQlH_6probar7harnessNtB3_9TestSuite3newReEB5_
FNDA:0,_RINvMs0_NtCsbqoqex1KQlH_6probar7harnessNtB6_10TestResult4failReBX_EB8_
FNDA:0,_RINvMs0_NtCsbqoqex1KQlH_6probar7harnessNtB6_10TestResult4passReEB8_
FNDA:0,_RINvMs_NtCsbqoqex1KQlH_6probar7harnessNtB5_8TestCase3newReEB7_
FNDA:0,_RNCNvMs1_NtCsbqoqex1KQlH_6probar7harnessNtB7_12SuiteResults12failed_count0B9_
FNDA:0,_RNCNvMs1_NtCsbqoqex1KQlH_6probar7harnessNtB7_12SuiteResults8failures0B9_
FNDA:0,_RINvMNtCs4eUmXem5O3q_6probar7harnessNtB3_9TestSuite3newpEB5_
FNDA:0,_RINvMs0_NtCs4eUmXem5O3q_6probar7harnessNtB6_10TestResult4failppEB8_
FNDA:0,_RINvMs0_NtCs4eUmXem5O3q_6probar7harnessNtB6_10TestResult4passpEB8_
FNDA:0,_RINvMs_NtCs4eUmXem5O3q_6probar7harnessNtB5_8TestCase3newpEB7_
FNDA:0,_RNCNvMs1_NtCs4eUmXem5O3q_6probar7harnessNtB7_12SuiteResults12failed_count0B9_
FNDA:0,_RNCNvMs1_NtCs4eUmXem5O3q_6probar7harnessNtB7_12SuiteResults8failures0B9_
FNDA:0,_RNvMNtCs4eUmXem5O3q_6probar7harnessNtB2_9TestSuite10test_count
FNDA:0,_RNvMNtCs4eUmXem5O3q_6probar7harnessNtB2_9TestSuite8add_test
FNDA:0,_RNvMs0_NtCs4eUmXem5O3q_6probar7harnessNtB5_10TestResult13with_duration
FNDA:0,_RNvMs1_NtCs4eUmXem5O3q_6probar7harnessNtB5_12SuiteResults10all_passed
FNDA:0,_RNvMs1_NtCs4eUmXem5O3q_6probar7harnessNtB5_12SuiteResults12failed_count
FNDA:0,_RNvMs1_NtCs4eUmXem5O3q_6probar7harnessNtB5_12SuiteResults12passed_count
FNDA:0,_RNvMs1_NtCs4eUmXem5O3q_6probar7harnessNtB5_12SuiteResults5total
FNDA:0,_RNvMs1_NtCs4eUmXem5O3q_6probar7harnessNtB5_12SuiteResults8failures
FNDA:0,_RNvMs2_NtCs4eUmXem5O3q_6probar7harnessNtB5_11TestHarness13with_parallel
FNDA:0,_RNvMs2_NtCs4eUmXem5O3q_6probar7harnessNtB5_11TestHarness14with_fail_fast
FNDA:0,_RNvMs2_NtCs4eUmXem5O3q_6probar7harnessNtB5_11TestHarness3new
FNDA:0,_RNvMs2_NtCs4eUmXem5O3q_6probar7harnessNtB5_11TestHarness3run
FNDA:0,_RNvMs_NtCs4eUmXem5O3q_6probar7harnessNtB4_8TestCase12with_timeout
FNF:19
FNH:0
DA:17,0
DA:18,0
DA:19,0
DA:20,0
DA:21,0
DA:22,0
DA:25,0
DA:26,0
DA:27,0
DA:31,0
DA:32,0
DA:33,0
DA:48,0
DA:49,0
DA:50,0
DA:51,0
DA:52,0
DA:53,0
DA:57,0
DA:58,0
DA:59,0
DA:60,0
DA:79,0
DA:80,0
DA:81,0
DA:82,0
DA:83,0
DA:84,0
DA:85,0
DA:86,0
DA:90,0
DA:91,0
DA:92,0
DA:93,0
DA:94,0
DA:95,0
DA:96,0
DA:97,0
DA:101,0
DA:102,0
DA:103,0
DA:104,0
DA:121,0
DA:122,0
DA:123,0
DA:127,0
DA:128,0
DA:129,0
DA:133,0
DA:134,0
DA:135,0
DA:139,0
DA:140,0
DA:141,0
DA:145,0
DA:146,0
DA:147,0
DA:162,0
DA:163,0
DA:164,0
DA:168,0
DA:169,0
DA:170,0
DA:171,0
DA:175,0
DA:176,0
DA:177,0
DA:178,0
DA:182,0
DA:183,0
DA:184,0
DA:189,0
DA:190,0
DA:191,0
DA:192,0
DA:193,0
DA:194,0
BRF:0
BRH:0
LF:79
LH:0
end_of_record
SF:/home/noah/src/probar/crates/probar/src/lib.rs
FN:618,_RNvNtNtCsbqoqex1KQlH_6probar5tests14snapshot_testss_18test_snapshot_size
FN:602,_RNvNtNtCsbqoqex1KQlH_6probar5tests14snapshot_testss_22test_snapshot_creation
FN:643,_RNvNtNtCsbqoqex1KQlH_6probar5tests14snapshot_testss_24test_snapshot_diff_empty
FN:672,_RNvNtNtCsbqoqex1KQlH_6probar5tests14snapshot_testss_28test_snapshot_config_default
FN:634,_RNvNtNtCsbqoqex1KQlH_6probar5tests14snapshot_testss_28test_snapshot_diff_different
FN:624,_RNvNtNtCsbqoqex1KQlH_6probar5tests14snapshot_testss_28test_snapshot_diff_identical
FN:692,_RNvNtNtCsbqoqex1KQlH_6probar5tests14snapshot_testss_29test_snapshot_config_with_dir
FN:611,_RNvNtNtCsbqoqex1KQlH_6probar5tests14snapshot_testss_29test_snapshot_with_dimensions
FN:680,_RNvNtNtCsbqoqex1KQlH_6probar5tests14snapshot_testss_32test_snapshot_config_with_update
FN:686,_RNvNtNtCsbqoqex1KQlH_6probar5tests14snapshot_testss_35test_snapshot_config_with_threshold
FN:662,_RNvNtNtCsbqoqex1KQlH_6probar5tests14snapshot_testss_35test_snapshot_diff_within_threshold
FN:652,_RNvNtNtCsbqoqex1KQlH_6probar5tests14snapshot_testss_36test_snapshot_diff_different_lengths
FN:698,_RNvNtNtCsbqoqex1KQlH_6probar5tests14snapshot_testss_37test_snapshot_config_chained_builders
FN:390,_RNvNtNtCsbqoqex1KQlH_6probar5tests11touch_testss_14test_touch_tap
FN:404,_RNvNtNtCsbqoqex1KQlH_6probar5tests11touch_testss_15test_touch_hold
FN:398,_RNvNtNtCsbqoqex1KQlH_6probar5tests11touch_testss_16test_touch_swipe
FN:843,_RNvNtNtCsbqoqex1KQlH_6probar5tests13harness_testss_20test_harness_default
FN:752,_RNvNtNtCsbqoqex1KQlH_6probar5tests13harness_testss_21test_test_result_fail
FN:743,_RNvNtNtCsbqoqex1KQlH_6probar5tests13harness_testss_21test_test_result_pass
FN:730,_RNvNtNtCsbqoqex1KQlH_6probar5tests13harness_testss_23test_test_case_creation
FN:722,_RNvNtNtCsbqoqex1KQlH_6probar5tests13harness_testss_24test_test_suite_add_test
FN:715,_RNvNtNtCsbqoqex1KQlH_6probar5tests13harness_testss_24test_test_suite_creation
FN:789,_RNvNtNtCsbqoqex1KQlH_6probar5tests13harness_testss_25test_suite_results_counts
FN:837,_RNvNtNtCsbqoqex1KQlH_6probar5tests13harness_testss_26test_harness_with_parallel
FN:831,_RNvNtNtCsbqoqex1KQlH_6probar5tests13harness_testss_27test_harness_with_fail_fast
FN:805,_RNvNtNtCsbqoqex1KQlH_6probar5tests13harness_testss_27test_suite_results_failures
FN:737,_RNvNtNtCsbqoqex1KQlH_6probar5tests13harness_testss_27test_test_case_with_timeout
FN:822,_RNvNtNtCsbqoqex1KQlH_6probar5tests13harness_testss_28test_harness_run_empty_suite
FN:766,_RNvNtNtCsbqoqex1KQlH_6probar5tests13harness_testss_29test_suite_results_all_passed
FN:760,_RNvNtNtCsbqoqex1KQlH_6probar5tests13harness_testss_30test_test_result_with_duration
FN:776,_RNvNtNtCsbqoqex1KQlH_6probar5tests13harness_testss_33test_suite_results_not_all_passed
FN:991,_RNvNtNtCsbqoqex1KQlH_6probar5tests11error_testss_25test_probar_error_display
FN:998,_RNvNtNtCsbqoqex1KQlH_6probar5tests11error_testss_25test_probar_error_timeout
FN:540,_RNvNtNtCsbqoqex1KQlH_6probar5tests15assertion_testss_25test_assertion_is_ok_fail
FN:533,_RNvNtNtCsbqoqex1KQlH_6probar5tests15assertion_testss_25test_assertion_is_ok_pass
FN:434,_RNvNtNtCsbqoqex1KQlH_6probar5tests15assertion_testss_26test_assertion_equals_fail
FN:428,_RNvNtNtCsbqoqex1KQlH_6probar5tests15assertion_testss_26test_assertion_equals_pass
FN:555,_RNvNtNtCsbqoqex1KQlH_6probar5tests15assertion_testss_26test_assertion_is_err_fail
FN:548,_RNvNtNtCsbqoqex1KQlH_6probar5tests15assertion_testss_26test_assertion_is_err_pass
FN:421,_RNvNtNtCsbqoqex1KQlH_6probar5tests15assertion_testss_26test_assertion_result_fail
FN:414,_RNvNtNtCsbqoqex1KQlH_6probar5tests15assertion_testss_26test_assertion_result_pass
FN:525,_RNvNtNtCsbqoqex1KQlH_6probar5tests15assertion_testss_27test_assertion_is_none_fail
FN:518,_RNvNtNtCsbqoqex1KQlH_6probar5tests15assertion_testss_27test_assertion_is_none_pass
FN:510,_RNvNtNtCsbqoqex1KQlH_6probar5tests15assertion_testss_27test_assertion_is_some_fail
FN:503,_RNvNtNtCsbqoqex1KQlH_6probar5tests15assertion_testss_27test_assertion_is_some_pass
FN:483,_RNvNtNtCsbqoqex1KQlH_6probar5tests15assertion_testss_27test_assertion_is_true_fail
FN:477,_RNvNtNtCsbqoqex1KQlH_6probar5tests15assertion_testss_27test_assertion_is_true_pass
FN:447,_RNvNtNtCsbqoqex1KQlH_6probar5tests15assertion_testss_28test_assertion_contains_fail
FN:441,_RNvNtNtCsbqoqex1KQlH_6probar5tests15assertion_testss_28test_assertion_contains_pass
FN:460,_RNvNtNtCsbqoqex1KQlH_6probar5tests15assertion_testss_28test_assertion_in_range_fail
FN:454,_RNvNtNtCsbqoqex1KQlH_6probar5tests15assertion_testss_28test_assertion_in_range_pass
FN:496,_RNvNtNtCsbqoqex1KQlH_6probar5tests15assertion_testss_28test_assertion_is_false_fail
FN:490,_RNvNtNtCsbqoqex1KQlH_6probar5tests15assertion_testss_28test_assertion_is_false_pass
FN:569,_RNvNtNtCsbqoqex1KQlH_6probar5tests15assertion_testss_29test_assertion_approx_eq_fail
FN:563,_RNvNtNtCsbqoqex1KQlH_6probar5tests15assertion_testss_29test_assertion_approx_eq_pass
FN:583,_RNvNtNtCsbqoqex1KQlH_6probar5tests15assertion_testss_30test_assertion_has_length_fail
FN:576,_RNvNtNtCsbqoqex1KQlH_6probar5tests15assertion_testss_30test_assertion_has_length_pass
FN:591,_RNvNtNtCsbqoqex1KQlH_6probar5tests15assertion_testss_31test_assertion_has_length_empty
FN:467,_RNvNtNtCsbqoqex1KQlH_6probar5tests15assertion_testss_37test_assertion_in_range_at_boundaries
FN:973,_RNvNtNtCsbqoqex1KQlH_6probar5tests17input_event_testss_19test_touch_equality
FN:854,_RNvNtNtCsbqoqex1KQlH_6probar5tests17input_event_testss_22test_input_event_touch
FN:980,_RNvNtNtCsbqoqex1KQlH_6probar5tests17input_event_testss_25test_input_event_equality
FN:862,_RNvNtNtCsbqoqex1KQlH_6probar5tests17input_event_testss_26test_input_event_key_press
FN:954,_RNvNtNtCsbqoqex1KQlH_6probar5tests17input_event_testss_26test_touch_action_equality
FN:914,_RNvNtNtCsbqoqex1KQlH_6probar5tests17input_event_testss_26test_touch_tap_coordinates
FN:882,_RNvNtNtCsbqoqex1KQlH_6probar5tests17input_event_testss_27test_input_event_mouse_move
FN:868,_RNvNtNtCsbqoqex1KQlH_6probar5tests17input_event_testss_28test_input_event_key_release
FN:874,_RNvNtNtCsbqoqex1KQlH_6probar5tests17input_event_testss_28test_input_event_mouse_click
FN:941,_RNvNtNtCsbqoqex1KQlH_6probar5tests17input_event_testss_31test_touch_hold_full_properties
FN:922,_RNvNtNtCsbqoqex1KQlH_6probar5tests17input_event_testss_32test_touch_swipe_full_properties
FN:890,_RNvNtNtCsbqoqex1KQlH_6probar5tests17input_event_testss_39test_input_event_gamepad_button_pressed
FN:902,_RNvNtNtCsbqoqex1KQlH_6probar5tests17input_event_testss_40test_input_event_gamepad_button_released
FN:376,_RNvNtNtCsbqoqex1KQlH_6probar5tests13browser_testss_27test_browser_config_builder
FN:368,_RNvNtNtCsbqoqex1KQlH_6probar5tests13browser_testss_28test_browser_config_defaults
FNDA:0,_RNvNtNtCsbqoqex1KQlH_6probar5tests14snapshot_testss_18test_snapshot_size
FNDA:0,_RNvNtNtCsbqoqex1KQlH_6probar5tests14snapshot_testss_22test_snapshot_creation
FNDA:0,_RNvNtNtCsbqoqex1KQlH_6probar5tests14snapshot_testss_24test_snapshot_diff_empty
FNDA:0,_RNvNtNtCsbqoqex1KQlH_6probar5tests14snapshot_testss_28test_snapshot_config_default
FNDA:0,_RNvNtNtCsbqoqex1KQlH_6probar5tests14snapshot_testss_28test_snapshot_diff_different
FNDA:0,_RNvNtNtCsbqoqex1KQlH_6probar5tests14snapshot_testss_28test_snapshot_diff_identical
FNDA:0,_RNvNtNtCsbqoqex1KQlH_6probar5tests14snapshot_testss_29test_snapshot_config_with_dir
FNDA:0,_RNvNtNtCsbqoqex1KQlH_6probar5tests14snapshot_testss_29test_snapshot_with_dimensions
FNDA:0,_RNvNtNtCsbqoqex1KQlH_6probar5tests14snapshot_testss_32test_snapshot_config_with_update
FNDA:0,_RNvNtNtCsbqoqex1KQlH_6probar5tests14snapshot_testss_35test_snapshot_config_with_threshold
FNDA:0,_RNvNtNtCsbqoqex1KQlH_6probar5tests14snapshot_testss_35test_snapshot_diff_within_threshold
FNDA:0,_RNvNtNtCsbqoqex1KQlH_6probar5tests14snapshot_testss_36test_snapshot_diff_different_lengths
FNDA:0,_RNvNtNtCsbqoqex1KQlH_6probar5tests14snapshot_testss_37test_snapshot_config_chained_builders
FNDA:0,_RNvNtNtCsbqoqex1KQlH_6probar5tests11touch_testss_14test_touch_tap
FNDA:0,_RNvNtNtCsbqoqex1KQlH_6probar5tests11touch_testss_15test_touch_hold
FNDA:0,_RNvNtNtCsbqoqex1KQlH_6probar5tests11touch_testss_16test_touch_swipe
FNDA:0,_RNvNtNtCsbqoqex1KQlH_6probar5tests13harness_testss_20test_harness_default
FNDA:0,_RNvNtNtCsbqoqex1KQlH_6probar5tests13harness_testss_21test_test_result_fail
FNDA:0,_RNvNtNtCsbqoqex1KQlH_6probar5tests13harness_testss_21test_test_result_pass
FNDA:0,_RNvNtNtCsbqoqex1KQlH_6probar5tests13harness_testss_23test_test_case_creation
FNDA:0,_RNvNtNtCsbqoqex1KQlH_6probar5tests13harness_testss_24test_test_suite_add_test
FNDA:0,_RNvNtNtCsbqoqex1KQlH_6probar5tests13harness_testss_24test_test_suite_creation
FNDA:0,_RNvNtNtCsbqoqex1KQlH_6probar5tests13harness_testss_25test_suite_results_counts
FNDA:0,_RNvNtNtCsbqoqex1KQlH_6probar5tests13harness_testss_26test_harness_with_parallel
FNDA:0,_RNvNtNtCsbqoqex1KQlH_6probar5tests13harness_testss_27test_harness_with_fail_fast
FNDA:0,_RNvNtNtCsbqoqex1KQlH_6probar5tests13harness_testss_27test_suite_results_failures
FNDA:0,_RNvNtNtCsbqoqex1KQlH_6probar5tests13harness_testss_27test_test_case_with_timeout
FNDA:0,_RNvNtNtCsbqoqex1KQlH_6probar5tests13harness_testss_28test_harness_run_empty_suite
FNDA:0,_RNvNtNtCsbqoqex1KQlH_6probar5tests13harness_testss_29test_suite_results_all_passed
FNDA:0,_RNvNtNtCsbqoqex1KQlH_6probar5tests13harness_testss_30test_test_result_with_duration
FNDA:0,_RNvNtNtCsbqoqex1KQlH_6probar5tests13harness_testss_33test_suite_results_not_all_passed
FNDA:0,_RNvNtNtCsbqoqex1KQlH_6probar5tests11error_testss_25test_probar_error_display
FNDA:0,_RNvNtNtCsbqoqex1KQlH_6probar5tests11error_testss_25test_probar_error_timeout
FNDA:0,_RNvNtNtCsbqoqex1KQlH_6probar5tests15assertion_testss_25test_assertion_is_ok_fail
FNDA:0,_RNvNtNtCsbqoqex1KQlH_6probar5tests15assertion_testss_25test_assertion_is_ok_pass
FNDA:0,_RNvNtNtCsbqoqex1KQlH_6probar5tests15assertion_testss_26test_assertion_equals_fail
FNDA:0,_RNvNtNtCsbqoqex1KQlH_6probar5tests15assertion_testss_26test_assertion_equals_pass
FNDA:0,_RNvNtNtCsbqoqex1KQlH_6probar5tests15assertion_testss_26test_assertion_is_err_fail
FNDA:0,_RNvNtNtCsbqoqex1KQlH_6probar5tests15assertion_testss_26test_assertion_is_err_pass
FNDA:0,_RNvNtNtCsbqoqex1KQlH_6probar5tests15assertion_testss_26test_assertion_result_fail
FNDA:0,_RNvNtNtCsbqoqex1KQlH_6probar5tests15assertion_testss_26test_assertion_result_pass
FNDA:0,_RNvNtNtCsbqoqex1KQlH_6probar5tests15assertion_testss_27test_assertion_is_none_fail
FNDA:0,_RNvNtNtCsbqoqex1KQlH_6probar5tests15assertion_testss_27test_assertion_is_none_pass
FNDA:0,_RNvNtNtCsbqoqex1KQlH_6probar5tests15assertion_testss_27test_assertion_is_some_fail
FNDA:0,_RNvNtNtCsbqoqex1KQlH_6probar5tests15assertion_testss_27test_assertion_is_some_pass
FNDA:0,_RNvNtNtCsbqoqex1KQlH_6probar5tests15assertion_testss_27test_assertion_is_true_fail
FNDA:0,_RNvNtNtCsbqoqex1KQlH_6probar5tests15assertion_testss_27test_assertion_is_true_pass
FNDA:0,_RNvNtNtCsbqoqex1KQlH_6probar5tests15assertion_testss_28test_assertion_contains_fail
FNDA:0,_RNvNtNtCsbqoqex1KQlH_6probar5tests15assertion_testss_28test_assertion_contains_pass
FNDA:0,_RNvNtNtCsbqoqex1KQlH_6probar5tests15assertion_testss_28test_assertion_in_range_fail
FNDA:0,_RNvNtNtCsbqoqex1KQlH_6probar5tests15assertion_testss_28test_assertion_in_range_pass
FNDA:0,_RNvNtNtCsbqoqex1KQlH_6probar5tests15assertion_testss_28test_assertion_is_false_fail
FNDA:0,_RNvNtNtCsbqoqex1KQlH_6probar5tests15assertion_testss_28test_assertion_is_false_pass
FNDA:0,_RNvNtNtCsbqoqex1KQlH_6probar5tests15assertion_testss_29test_assertion_approx_eq_fail
FNDA:0,_RNvNtNtCsbqoqex1KQlH_6probar5tests15assertion_testss_29test_assertion_approx_eq_pass
FNDA:0,_RNvNtNtCsbqoqex1KQlH_6probar5tests15assertion_testss_30test_assertion_has_length_fail
FNDA:0,_RNvNtNtCsbqoqex1KQlH_6probar5tests15assertion_testss_30test_assertion_has_length_pass
FNDA:0,_RNvNtNtCsbqoqex1KQlH_6probar5tests15assertion_testss_31test_assertion_has_length_empty
FNDA:0,_RNvNtNtCsbqoqex1KQlH_6probar5tests15assertion_testss_37test_assertion_in_range_at_boundaries
FNDA:0,_RNvNtNtCsbqoqex1KQlH_6probar5tests17input_event_testss_19test_touch_equality
FNDA:0,_RNvNtNtCsbqoqex1KQlH_6probar5tests17input_event_testss_22test_input_event_touch
FNDA:0,_RNvNtNtCsbqoqex1KQlH_6probar5tests17input_event_testss_25test_input_event_equality
FNDA:0,_RNvNtNtCsbqoqex1KQlH_6probar5tests17input_event_testss_26test_input_event_key_press
FNDA:0,_RNvNtNtCsbqoqex1KQlH_6probar5tests17input_event_testss_26test_touch_action_equality
FNDA:0,_RNvNtNtCsbqoqex1KQlH_6probar5tests17input_event_testss_26test_touch_tap_coordinates
FNDA:0,_RNvNtNtCsbqoqex1KQlH_6probar5tests17input_event_testss_27test_input_event_mouse_move
FNDA:0,_RNvNtNtCsbqoqex1KQlH_6probar5tests17input_event_testss_28test_input_event_key_release
FNDA:0,_RNvNtNtCsbqoqex1KQlH_6probar5tests17input_event_testss_28test_input_event_mouse_click
FNDA:0,_RNvNtNtCsbqoqex1KQlH_6probar5tests17input_event_testss_31test_touch_hold_full_properties
FNDA:0,_RNvNtNtCsbqoqex1KQlH_6probar5tests17input_event_testss_32test_touch_swipe_full_properties
FNDA:0,_RNvNtNtCsbqoqex1KQlH_6probar5tests17input_event_testss_39test_input_event_gamepad_button_pressed
FNDA:0,_RNvNtNtCsbqoqex1KQlH_6probar5tests17input_event_testss_40test_input_event_gamepad_button_released
FNDA:0,_RNvNtNtCsbqoqex1KQlH_6probar5tests13browser_testss_27test_browser_config_builder
FNDA:0,_RNvNtNtCsbqoqex1KQlH_6probar5tests13browser_testss_28test_browser_config_defaults
FNF:74
FNH:0
DA:368,0
DA:369,0
DA:370,0
DA:371,0
DA:372,0
DA:373,0
DA:376,0
DA:377,0
DA:378,0
DA:379,0
DA:380,0
DA:381,0
DA:382,0
DA:383,0
DA:390,0
DA:391,0
DA:392,0
DA:393,0
DA:394,0
DA:395,0
DA:398,0
DA:399,0
DA:400,0
DA:401,0
DA:404,0
DA:405,0
DA:406,0
DA:407,0
DA:414,0
DA:415,0
DA:416,0
DA:417,0
DA:418,0
DA:421,0
DA:422,0
DA:423,0
DA:424,0
DA:425,0
DA:428,0
DA:429,0
DA:430,0
DA:431,0
DA:434,0
DA:435,0
DA:436,0
DA:437,0
DA:438,0
DA:441,0
DA:442,0
DA:443,0
DA:444,0
DA:447,0
DA:448,0
DA:449,0
DA:450,0
DA:451,0
DA:454,0
DA:455,0
DA:456,0
DA:457,0
DA:460,0
DA:461,0
DA:462,0
DA:463,0
DA:464,0
DA:467,0
DA:469,0
DA:470,0
DA:472,0
DA:473,0
DA:474,0
DA:477,0
DA:478,0
DA:479,0
DA:480,0
DA:483,0
DA:484,0
DA:485,0
DA:486,0
DA:487,0
DA:490,0
DA:491,0
DA:492,0
DA:493,0
DA:496,0
DA:497,0
DA:498,0
DA:499,0
DA:500,0
DA:503,0
DA:504,0
DA:505,0
DA:506,0
DA:507,0
DA:510,0
DA:511,0
DA:512,0
DA:513,0
DA:514,0
DA:515,0
DA:518,0
DA:519,0
DA:520,0
DA:521,0
DA:522,0
DA:525,0
DA:526,0
DA:527,0
DA:528,0
DA:529,0
DA:530,0
DA:533,0
DA:534,0
DA:535,0
DA:536,0
DA:537,0
DA:540,0
DA:541,0
DA:542,0
DA:543,0
DA:544,0
DA:545,0
DA:548,0
DA:549,0
DA:550,0
DA:551,0
DA:552,0
DA:555,0
DA:556,0
DA:557,0
DA:558,0
DA:559,0
DA:560,0
DA:563,0
DA:564,0
DA:565,0
DA:566,0
DA:569,0
DA:570,0
DA:571,0
DA:572,0
DA:573,0
DA:576,0
DA:577,0
DA:578,0
DA:579,0
DA:580,0
DA:583,0
DA:584,0
DA:585,0
DA:586,0
DA:587,0
DA:588,0
DA:591,0
DA:592,0
DA:593,0
DA:594,0
DA:595,0
DA:602,0
DA:603,0
DA:604,0
DA:605,0
DA:606,0
DA:607,0
DA:608,0
DA:611,0
DA:612,0
DA:613,0
DA:614,0
DA:615,0
DA:618,0
DA:619,0
DA:620,0
DA:621,0
DA:624,0
DA:625,0
DA:626,0
DA:627,0
DA:628,0
DA:629,0
DA:630,0
DA:631,0
DA:634,0
DA:635,0
DA:636,0
DA:637,0
DA:638,0
DA:639,0
DA:640,0
DA:643,0
DA:644,0
DA:645,0
DA:646,0
DA:647,0
DA:648,0
DA:649,0
DA:652,0
DA:653,0
DA:654,0
DA:655,0
DA:656,0
DA:658,0
DA:659,0
DA:662,0
DA:663,0
DA:664,0
DA:665,0
DA:667,0
DA:668,0
DA:669,0
DA:672,0
DA:673,0
DA:674,0
DA:675,0
DA:676,0
DA:677,0
DA:680,0
DA:681,0
DA:682,0
DA:683,0
DA:686,0
DA:687,0
DA:688,0
DA:689,0
DA:692,0
DA:693,0
DA:694,0
DA:695,0
DA:698,0
DA:699,0
DA:700,0
DA:701,0
DA:702,0
DA:703,0
DA:704,0
DA:705,0
DA:706,0
DA:715,0
DA:716,0
DA:717,0
DA:718,0
DA:719,0
DA:722,0
DA:723,0
DA:724,0
DA:725,0
DA:726,0
DA:727,0
DA:730,0
DA:731,0
DA:732,0
DA:733,0
DA:734,0
DA:737,0
DA:738,0
DA:739,0
DA:740,0
DA:743,0
DA:744,0
DA:745,0
DA:746,0
DA:747,0
DA:748,0
DA:749,0
DA:752,0
DA:753,0
DA:754,0
DA:755,0
DA:756,0
DA:757,0
DA:760,0
DA:761,0
DA:762,0
DA:763,0
DA:766,0
DA:767,0
DA:768,0
DA:769,0
DA:770,0
DA:771,0
DA:772,0
DA:773,0
DA:776,0
DA:777,0
DA:778,0
DA:779,0
DA:780,0
DA:781,0
DA:782,0
DA:783,0
DA:784,0
DA:785,0
DA:786,0
DA:789,0
DA:790,0
DA:791,0
DA:792,0
DA:793,0
DA:794,0
DA:795,0
DA:796,0
DA:797,0
DA:798,0
DA:799,0
DA:800,0
DA:801,0
DA:802,0
DA:805,0
DA:806,0
DA:807,0
DA:808,0
DA:809,0
DA:810,0
DA:811,0
DA:812,0
DA:813,0
DA:814,0
DA:815,0
DA:816,0
DA:817,0
DA:818,0
DA:819,0
DA:822,0
DA:823,0
DA:824,0
DA:825,0
DA:826,0
DA:827,0
DA:828,0
DA:831,0
DA:832,0
DA:833,0
DA:834,0
DA:837,0
DA:838,0
DA:839,0
DA:840,0
DA:843,0
DA:844,0
DA:845,0
DA:846,0
DA:847,0
DA:854,0
DA:855,0
DA:856,0
DA:857,0
DA:859,0
DA:862,0
DA:863,0
DA:864,0
DA:865,0
DA:868,0
DA:869,0
DA:870,0
DA:871,0
DA:874,0
DA:875,0
DA:876,0
DA:877,0
DA:879,0
DA:882,0
DA:883,0
DA:884,0
DA:885,0
DA:887,0
DA:890,0
DA:891,0
DA:892,0
DA:893,0
DA:899,0
DA:902,0
DA:903,0
DA:904,0
DA:905,0
DA:911,0
DA:914,0
DA:915,0
DA:916,0
DA:917,0
DA:918,0
DA:919,0
DA:922,0
DA:923,0
DA:924,0
DA:925,0
DA:926,0
DA:928,0
DA:929,0
DA:930,0
DA:932,0
DA:933,0
DA:934,0
DA:936,0
DA:938,0
DA:941,0
DA:942,0
DA:943,0
DA:944,0
DA:945,0
DA:946,0
DA:947,0
DA:949,0
DA:951,0
DA:954,0
DA:955,0
DA:956,0
DA:957,0
DA:958,0
DA:959,0
DA:960,0
DA:961,0
DA:962,0
DA:963,0
DA:964,0
DA:965,0
DA:966,0
DA:967,0
DA:968,0
DA:969,0
DA:970,0
DA:973,0
DA:974,0
DA:975,0
DA:976,0
DA:977,0
DA:980,0
DA:981,0
DA:982,0
DA:983,0
DA:984,0
DA:991,0
DA:992,0
DA:993,0
DA:994,0
DA:995,0
DA:998,0
DA:999,0
DA:1000,0
DA:1001,0
DA:1002,0
BRF:0
BRH:0
LF:440
LH:0
end_of_record
SF:/home/noah/src/probar/crates/probar/src/locator.rs
FN:211,_RINvMs2_NtCsbqoqex1KQlH_6probar7locatorNtB6_7Locator3newReEB8_
FN:336,_RINvMs2_NtCsbqoqex1KQlH_6probar7locatorNtB6_7Locator4fillReEB8_
FN:254,_RINvMs2_NtCsbqoqex1KQlH_6probar7locatorNtB6_7Locator6entityReEB8_
FN:231,_RINvMs2_NtCsbqoqex1KQlH_6probar7locatorNtB6_7Locator9with_textReEB8_
FN:578,_RINvMs7_NtCsbqoqex1KQlH_6probar7locatorNtB6_6Expect12to_have_textReEB8_
FN:608,_RINvMs7_NtCsbqoqex1KQlH_6probar7locatorNtB6_6Expect15to_contain_textReEB8_
FN:71,_RINvMs_NtCsbqoqex1KQlH_6probar7locatorNtB5_8Selector3cssReEB7_
FN:83,_RINvMs_NtCsbqoqex1KQlH_6probar7locatorNtB5_8Selector4textReEB7_
FN:89,_RINvMs_NtCsbqoqex1KQlH_6probar7locatorNtB5_8Selector6entityReEB7_
FN:77,_RINvMs_NtCsbqoqex1KQlH_6probar7locatorNtB5_8Selector7test_idReEB7_
FN:1207,_RNvNtNtNtCsbqoqex1KQlH_6probar7locator5tests26qa_checklist_locator_testss_24test_long_selector_limit
FN:1268,_RNvNtNtNtCsbqoqex1KQlH_6probar7locator5tests26qa_checklist_locator_testss_29test_empty_selector_rejection
FN:1251,_RNvNtNtNtCsbqoqex1KQlH_6probar7locator5tests26qa_checklist_locator_testss_29test_iframe_context_switching
FN:1226,_RNvNtNtNtCsbqoqex1KQlH_6probar7locator5tests26qa_checklist_locator_testss_32test_shadow_dom_selector_support
FN:1282,_RNvNtNtNtCsbqoqex1KQlH_6probar7locator5tests26qa_checklist_locator_testss_35test_special_char_selector_escaping
FN:954,_RNvNtNtNtCsbqoqex1KQlH_6probar7locator5tests13default_testss_20test_default_timeout
FN:959,_RNvNtNtNtCsbqoqex1KQlH_6probar7locator5tests13default_testss_26test_default_poll_interval
FN:964,_RNvNtNtNtCsbqoqex1KQlH_6probar7locator5tests13default_testss_28test_locator_options_default
FN:1184,_RNvNtNtNtCsbqoqex1KQlH_6probar7locator5tests29additional_bounding_box_testss_37test_bounding_box_contains_edge_cases
FN:1175,_RNvNtNtNtCsbqoqex1KQlH_6probar7locator5tests29additional_bounding_box_testss_37test_bounding_box_creation_and_fields
FN:593,_RNvMs7_NtCsbqoqex1KQlH_6probar7locatorNtB5_6Expect12to_be_hidden
FN:935,_RNvNtNtNtCsbqoqex1KQlH_6probar7locator5tests18bounding_box_testss_24test_bounding_box_center
FN:943,_RNvNtNtNtCsbqoqex1KQlH_6probar7locator5tests18bounding_box_testss_26test_bounding_box_contains
FN:924,_RNvNtNtNtCsbqoqex1KQlH_6probar7locator5tests11point_testss_14test_point_new
FN:36,_RNvMNtCsbqoqex1KQlH_6probar7locatorNtB2_5Point3new
FN:150,_RNvMs0_NtCsbqoqex1KQlH_6probar7locatorNtB5_13DragOperation2to
FN:160,_RNvMs0_NtCsbqoqex1KQlH_6probar7locatorNtB5_13DragOperation5steps
FN:167,_RNvMs0_NtCsbqoqex1KQlH_6probar7locatorNtB5_13DragOperation8duration
FN:355,_RNvMs2_NtCsbqoqex1KQlH_6probar7locatorNtB5_7Locator10is_visible
FN:272,_RNvMs2_NtCsbqoqex1KQlH_6probar7locatorNtB5_7Locator11with_strict
FN:362,_RNvMs2_NtCsbqoqex1KQlH_6probar7locatorNtB5_7Locator12bounding_box
FN:312,_RNvMs2_NtCsbqoqex1KQlH_6probar7locatorNtB5_7Locator12double_click
FN:348,_RNvMs2_NtCsbqoqex1KQlH_6probar7locatorNtB5_7Locator12text_content
FN:265,_RNvMs2_NtCsbqoqex1KQlH_6probar7locatorNtB5_7Locator12with_timeout
FN:279,_RNvMs2_NtCsbqoqex1KQlH_6probar7locatorNtB5_7Locator12with_visible
FN:220,_RNvMs2_NtCsbqoqex1KQlH_6probar7locatorNtB5_7Locator13from_selector
FN:376,_RNvMs2_NtCsbqoqex1KQlH_6probar7locatorNtB5_7Locator15wait_for_hidden
FN:369,_RNvMs2_NtCsbqoqex1KQlH_6probar7locatorNtB5_7Locator16wait_for_visible
FN:301,_RNvMs2_NtCsbqoqex1KQlH_6probar7locatorNtB5_7Locator5click
FN:383,_RNvMs2_NtCsbqoqex1KQlH_6probar7locatorNtB5_7Locator5count
FN:322,_RNvMs2_NtCsbqoqex1KQlH_6probar7locatorNtB5_7Locator7drag_to
FN:292,_RNvMs2_NtCsbqoqex1KQlH_6probar7locatorNtB5_7Locator7options
FN:286,_RNvMs2_NtCsbqoqex1KQlH_6probar7locatorNtB5_7Locator8selector
FN:415,_RNvMs3_NtCsbqoqex1KQlH_6probar7locatorNtB5_11DragBuilder5build
FN:402,_RNvMs3_NtCsbqoqex1KQlH_6probar7locatorNtB5_11DragBuilder5steps
FN:409,_RNvMs3_NtCsbqoqex1KQlH_6probar7locatorNtB5_11DragBuilder8duration
FN:471,_RNvMs4_NtCsbqoqex1KQlH_6probar7locatorNtB5_13LocatorAction7locator
FN:511,_RNvMs5_NtCsbqoqex1KQlH_6probar7locatorNtB5_12LocatorQuery7locator
FN:537,_RNvMs6_NtCsbqoqex1KQlH_6probar7locatorNtB5_11BoundingBox3new
FN:548,_RNvMs6_NtCsbqoqex1KQlH_6probar7locatorNtB5_11BoundingBox6center
FN:554,_RNvMs6_NtCsbqoqex1KQlH_6probar7locatorNtB5_11BoundingBox8contains
FN:586,_RNvMs7_NtCsbqoqex1KQlH_6probar7locatorNtB5_6Expect13to_be_visible
FN:600,_RNvMs7_NtCsbqoqex1KQlH_6probar7locatorNtB5_6Expect13to_have_count
FN:573,_RNvMs7_NtCsbqoqex1KQlH_6probar7locatorNtB5_6Expect3new
FN:692,_RNvMs8_NtCsbqoqex1KQlH_6probar7locatorNtB5_15ExpectAssertion14validate_count
FN:658,_RNvMs8_NtCsbqoqex1KQlH_6probar7locatorNtB5_15ExpectAssertion8validate
FN:115,_RNvMs_NtCsbqoqex1KQlH_6probar7locatorNtB4_8Selector14to_count_query
FN:95,_RNvMs_NtCsbqoqex1KQlH_6probar7locatorNtB4_8Selector8to_query
FN:712,_RNvNtCsbqoqex1KQlH_6probar7locator6expect
FN:187,_RNvXs1_NtCsbqoqex1KQlH_6probar7locatorNtB5_14LocatorOptionsNtNtCs6RpC691fUBl_4core7default7Default7default
FN:1051,_RNvNtNtNtCsbqoqex1KQlH_6probar7locator5tests21additional_drag_testss_28test_drag_operation_defaults
FN:1058,_RNvNtNtNtCsbqoqex1KQlH_6probar7locator5tests21additional_drag_testss_32test_drag_operation_custom_steps
FN:1064,_RNvNtNtNtCsbqoqex1KQlH_6probar7locator5tests21additional_drag_testss_35test_drag_operation_custom_duration
FN:850,_RNvNtNtNtCsbqoqex1KQlH_6probar7locator5tests11query_testss_16test_count_query
FN:843,_RNvNtNtNtCsbqoqex1KQlH_6probar7locator5tests11query_testss_21test_is_visible_query
FN:836,_RNvNtNtNtCsbqoqex1KQlH_6probar7locator5tests11query_testss_23test_text_content_query
FN:814,_RNvNtNtNtCsbqoqex1KQlH_6probar7locator5tests12action_testss_16test_fill_action
FN:807,_RNvNtNtNtCsbqoqex1KQlH_6probar7locator5tests12action_testss_17test_click_action
FN:821,_RNvNtNtNtCsbqoqex1KQlH_6probar7locator5tests12action_testss_17test_drag_builder
FN:1074,_RNvNtNtNtCsbqoqex1KQlH_6probar7locator5tests24additional_locator_testss_25test_locator_bounding_box
FN:1102,_RNvNtNtNtCsbqoqex1KQlH_6probar7locator5tests24additional_locator_testss_25test_locator_double_click
FN:1096,_RNvNtNtNtCsbqoqex1KQlH_6probar7locator5tests24additional_locator_testss_25test_locator_with_visible
FN:1081,_RNvNtNtNtCsbqoqex1KQlH_6probar7locator5tests24additional_locator_testss_26test_locator_from_selector
FN:1116,_RNvNtNtNtCsbqoqex1KQlH_6probar7locator5tests24additional_locator_testss_28test_locator_wait_for_hidden
FN:1109,_RNvNtNtNtCsbqoqex1KQlH_6probar7locator5tests24additional_locator_testss_29test_locator_wait_for_visible
FN:1088,_RNvNtNtNtCsbqoqex1KQlH_6probar7locator5tests24additional_locator_testss_30test_locator_with_text_non_css
FN:1131,_RNvNtNtNtCsbqoqex1KQlH_6probar7locator5tests24additional_locator_testss_35test_locator_query_locator_accessor
FN:1123,_RNvNtNtNtCsbqoqex1KQlH_6probar7locator5tests24additional_locator_testss_36test_locator_action_locator_accessor
FN:1139,_RNvNtNtNtCsbqoqex1KQlH_6probar7locator5tests24additional_locator_testss_41test_selector_to_count_query_all_variants
FN:1040,_RNvNtNtNtCsbqoqex1KQlH_6probar7locator5tests25additional_selector_testss_23test_entity_count_query
FN:976,_RNvNtNtNtCsbqoqex1KQlH_6probar7locator5tests25additional_selector_testss_25test_xpath_selector_query
FN:1014,_RNvNtNtNtCsbqoqex1KQlH_6probar7locator5tests25additional_selector_testss_27test_canvas_entity_selector
FN:992,_RNvNtNtNtCsbqoqex1KQlH_6probar7locator5tests25additional_selector_testss_27test_css_with_text_selector
FN:1023,_RNvNtNtNtCsbqoqex1KQlH_6probar7locator5tests25additional_selector_testss_30test_canvas_entity_count_query
FN:1003,_RNvNtNtNtCsbqoqex1KQlH_6probar7locator5tests25additional_selector_testss_30test_css_with_text_count_query
FN:1032,_RNvNtNtNtCsbqoqex1KQlH_6probar7locator5tests25additional_selector_testss_30test_text_selector_count_query
FN:984,_RNvNtNtNtCsbqoqex1KQlH_6probar7locator5tests25additional_selector_testss_31test_xpath_selector_count_query
FN:773,_RNvNtNtNtCsbqoqex1KQlH_6probar7locator5tests13locator_testss_16test_locator_new
FN:785,_RNvNtNtNtCsbqoqex1KQlH_6probar7locator5tests13locator_testss_19test_locator_entity
FN:791,_RNvNtNtNtCsbqoqex1KQlH_6probar7locator5tests13locator_testss_20test_locator_timeout
FN:779,_RNvNtNtNtCsbqoqex1KQlH_6probar7locator5tests13locator_testss_22test_locator_with_text
FN:797,_RNvNtNtNtCsbqoqex1KQlH_6probar7locator5tests13locator_testss_24test_locator_strict_mode
FN:861,_RNvNtNtNtCsbqoqex1KQlH_6probar7locator5tests12expect_testss_24test_expect_to_have_text
FN:913,_RNvNtNtNtCsbqoqex1KQlH_6probar7locator5tests12expect_testss_24test_validate_count_fail
FN:906,_RNvNtNtNtCsbqoqex1KQlH_6probar7locator5tests12expect_testss_24test_validate_count_pass
FN:868,_RNvNtNtNtCsbqoqex1KQlH_6probar7locator5tests12expect_testss_25test_expect_to_be_visible
FN:875,_RNvNtNtNtCsbqoqex1KQlH_6probar7locator5tests12expect_testss_25test_expect_to_have_count
FN:892,_RNvNtNtNtCsbqoqex1KQlH_6probar7locator5tests12expect_testss_27test_validate_has_text_fail
FN:885,_RNvNtNtNtCsbqoqex1KQlH_6probar7locator5tests12expect_testss_27test_validate_has_text_pass
FN:899,_RNvNtNtNtCsbqoqex1KQlH_6probar7locator5tests12expect_testss_32test_validate_contains_text_pass
FN:761,_RNvNtNtNtCsbqoqex1KQlH_6probar7locator5tests14selector_testss_16test_count_query
FN:729,_RNvNtNtNtCsbqoqex1KQlH_6probar7locator5tests14selector_testss_17test_css_selector
FN:745,_RNvNtNtNtCsbqoqex1KQlH_6probar7locator5tests14selector_testss_18test_text_selector
FN:753,_RNvNtNtNtCsbqoqex1KQlH_6probar7locator5tests14selector_testss_20test_entity_selector
FN:737,_RNvNtNtNtCsbqoqex1KQlH_6probar7locator5tests14selector_testss_21test_test_id_selector
FN:211,_RINvMs2_NtCs4eUmXem5O3q_6probar7locatorNtB6_7Locator3newpEB8_
FN:336,_RINvMs2_NtCs4eUmXem5O3q_6probar7locatorNtB6_7Locator4fillpEB8_
FN:254,_RINvMs2_NtCs4eUmXem5O3q_6probar7locatorNtB6_7Locator6entitypEB8_
FN:231,_RINvMs2_NtCs4eUmXem5O3q_6probar7locatorNtB6_7Locator9with_textpEB8_
FN:578,_RINvMs7_NtCs4eUmXem5O3q_6probar7locatorNtB6_6Expect12to_have_textpEB8_
FN:608,_RINvMs7_NtCs4eUmXem5O3q_6probar7locatorNtB6_6Expect15to_contain_textpEB8_
FN:71,_RINvMs_NtCs4eUmXem5O3q_6probar7locatorNtB5_8Selector3csspEB7_
FN:83,_RINvMs_NtCs4eUmXem5O3q_6probar7locatorNtB5_8Selector4textpEB7_
FN:89,_RINvMs_NtCs4eUmXem5O3q_6probar7locatorNtB5_8Selector6entitypEB7_
FN:77,_RINvMs_NtCs4eUmXem5O3q_6probar7locatorNtB5_8Selector7test_idpEB7_
FNDA:0,_RINvMs2_NtCsbqoqex1KQlH_6probar7locatorNtB6_7Locator3newReEB8_
FNDA:0,_RINvMs2_NtCsbqoqex1KQlH_6probar7locatorNtB6_7Locator4fillReEB8_
FNDA:0,_RINvMs2_NtCsbqoqex1KQlH_6probar7locatorNtB6_7Locator6entityReEB8_
FNDA:0,_RINvMs2_NtCsbqoqex1KQlH_6probar7locatorNtB6_7Locator9with_textReEB8_
FNDA:0,_RINvMs7_NtCsbqoqex1KQlH_6probar7locatorNtB6_6Expect12to_have_textReEB8_
FNDA:0,_RINvMs7_NtCsbqoqex1KQlH_6probar7locatorNtB6_6Expect15to_contain_textReEB8_
FNDA:0,_RINvMs_NtCsbqoqex1KQlH_6probar7locatorNtB5_8Selector3cssReEB7_
FNDA:0,_RINvMs_NtCsbqoqex1KQlH_6probar7locatorNtB5_8Selector4textReEB7_
FNDA:0,_RINvMs_NtCsbqoqex1KQlH_6probar7locatorNtB5_8Selector6entityReEB7_
FNDA:0,_RINvMs_NtCsbqoqex1KQlH_6probar7locatorNtB5_8Selector7test_idReEB7_
FNDA:0,_RNvNtNtNtCsbqoqex1KQlH_6probar7locator5tests26qa_checklist_locator_testss_24test_long_selector_limit
FNDA:0,_RNvNtNtNtCsbqoqex1KQlH_6probar7locator5tests26qa_checklist_locator_testss_29test_empty_selector_rejection
FNDA:0,_RNvNtNtNtCsbqoqex1KQlH_6probar7locator5tests26qa_checklist_locator_testss_29test_iframe_context_switching
FNDA:0,_RNvNtNtNtCsbqoqex1KQlH_6probar7locator5tests26qa_checklist_locator_testss_32test_shadow_dom_selector_support
FNDA:0,_RNvNtNtNtCsbqoqex1KQlH_6probar7locator5tests26qa_checklist_locator_testss_35test_special_char_selector_escaping
FNDA:0,_RNvNtNtNtCsbqoqex1KQlH_6probar7locator5tests13default_testss_20test_default_timeout
FNDA:0,_RNvNtNtNtCsbqoqex1KQlH_6probar7locator5tests13default_testss_26test_default_poll_interval
FNDA:0,_RNvNtNtNtCsbqoqex1KQlH_6probar7locator5tests13default_testss_28test_locator_options_default
FNDA:0,_RNvNtNtNtCsbqoqex1KQlH_6probar7locator5tests29additional_bounding_box_testss_37test_bounding_box_contains_edge_cases
FNDA:0,_RNvNtNtNtCsbqoqex1KQlH_6probar7locator5tests29additional_bounding_box_testss_37test_bounding_box_creation_and_fields
FNDA:0,_RNvMs7_NtCsbqoqex1KQlH_6probar7locatorNtB5_6Expect12to_be_hidden
FNDA:0,_RNvNtNtNtCsbqoqex1KQlH_6probar7locator5tests18bounding_box_testss_24test_bounding_box_center
